
F411_chunithm_15.6.elf:     file format elf32-littlearm

Sections:
Idx Name          Size      VMA       LMA       File off  Algn
  0 .isr_vector   00000198  08000000  08000000  00010000  2**0
                  CONTENTS, ALLOC, LOAD, READONLY, DATA
  1 .text         0000943c  080001a0  080001a0  000101a0  2**4
                  CONTENTS, ALLOC, LOAD, READONLY, CODE
  2 .rodata       00000258  080095dc  080095dc  000195dc  2**2
                  CONTENTS, ALLOC, LOAD, READONLY, DATA
  3 .ARM.extab    00000000  08009834  08009834  00020460  2**0
                  CONTENTS
  4 .ARM          00000008  08009834  08009834  00019834  2**2
                  CONTENTS, ALLOC, LOAD, READONLY, DATA
  5 .preinit_array 00000000  0800983c  0800983c  00020460  2**0
                  CONTENTS, ALLOC, LOAD, DATA
  6 .init_array   00000004  0800983c  0800983c  0001983c  2**2
                  CONTENTS, ALLOC, LOAD, DATA
  7 .fini_array   00000004  08009840  08009840  00019840  2**2
                  CONTENTS, ALLOC, LOAD, DATA
  8 .data         00000460  20000000  08009844  00020000  2**2
                  CONTENTS, ALLOC, LOAD, DATA
  9 .bss          000071a0  20000460  08009ca4  00020460  2**3
                  ALLOC
 10 ._user_heap_stack 00004200  20007600  08009ca4  00027600  2**0
                  ALLOC
 11 .ARM.attributes 00000030  00000000  00000000  00020460  2**0
                  CONTENTS, READONLY
 12 .comment      00000050  00000000  00000000  00020490  2**0
                  CONTENTS, READONLY
 13 .debug_frame  000004d0  00000000  00000000  000204e0  2**2
                  CONTENTS, READONLY, DEBUGGING, OCTETS

Disassembly of section .text:

080001a0 <__do_global_dtors_aux>:
 80001a0:	b510      	push	{r4, lr}
 80001a2:	4c05      	ldr	r4, [pc, #20]	; (80001b8 <__do_global_dtors_aux+0x18>)
 80001a4:	7823      	ldrb	r3, [r4, #0]
 80001a6:	b933      	cbnz	r3, 80001b6 <__do_global_dtors_aux+0x16>
 80001a8:	4b04      	ldr	r3, [pc, #16]	; (80001bc <__do_global_dtors_aux+0x1c>)
 80001aa:	b113      	cbz	r3, 80001b2 <__do_global_dtors_aux+0x12>
 80001ac:	4804      	ldr	r0, [pc, #16]	; (80001c0 <__do_global_dtors_aux+0x20>)
 80001ae:	f3af 8000 	nop.w
 80001b2:	2301      	movs	r3, #1
 80001b4:	7023      	strb	r3, [r4, #0]
 80001b6:	bd10      	pop	{r4, pc}
 80001b8:	20000460 	.word	0x20000460
 80001bc:	00000000 	.word	0x00000000
 80001c0:	080095c4 	.word	0x080095c4

080001c4 <frame_dummy>:
 80001c4:	b508      	push	{r3, lr}
 80001c6:	4b03      	ldr	r3, [pc, #12]	; (80001d4 <frame_dummy+0x10>)
 80001c8:	b11b      	cbz	r3, 80001d2 <frame_dummy+0xe>
 80001ca:	4903      	ldr	r1, [pc, #12]	; (80001d8 <frame_dummy+0x14>)
 80001cc:	4803      	ldr	r0, [pc, #12]	; (80001dc <frame_dummy+0x18>)
 80001ce:	f3af 8000 	nop.w
 80001d2:	bd08      	pop	{r3, pc}
 80001d4:	00000000 	.word	0x00000000
 80001d8:	20000464 	.word	0x20000464
 80001dc:	080095c4 	.word	0x080095c4

080001e0 <memchr>:
 80001e0:	f001 01ff 	and.w	r1, r1, #255	; 0xff
 80001e4:	2a10      	cmp	r2, #16
 80001e6:	db2b      	blt.n	8000240 <memchr+0x60>
 80001e8:	f010 0f07 	tst.w	r0, #7
 80001ec:	d008      	beq.n	8000200 <memchr+0x20>
 80001ee:	f810 3b01 	ldrb.w	r3, [r0], #1
 80001f2:	3a01      	subs	r2, #1
 80001f4:	428b      	cmp	r3, r1
 80001f6:	d02d      	beq.n	8000254 <memchr+0x74>
 80001f8:	f010 0f07 	tst.w	r0, #7
 80001fc:	b342      	cbz	r2, 8000250 <memchr+0x70>
 80001fe:	d1f6      	bne.n	80001ee <memchr+0xe>
 8000200:	b4f0      	push	{r4, r5, r6, r7}
 8000202:	ea41 2101 	orr.w	r1, r1, r1, lsl #8
 8000206:	ea41 4101 	orr.w	r1, r1, r1, lsl #16
 800020a:	f022 0407 	bic.w	r4, r2, #7
 800020e:	f07f 0700 	mvns.w	r7, #0
 8000212:	2300      	movs	r3, #0
 8000214:	e8f0 5602 	ldrd	r5, r6, [r0], #8
 8000218:	3c08      	subs	r4, #8
 800021a:	ea85 0501 	eor.w	r5, r5, r1
 800021e:	ea86 0601 	eor.w	r6, r6, r1
 8000222:	fa85 f547 	uadd8	r5, r5, r7
 8000226:	faa3 f587 	sel	r5, r3, r7
 800022a:	fa86 f647 	uadd8	r6, r6, r7
 800022e:	faa5 f687 	sel	r6, r5, r7
 8000232:	b98e      	cbnz	r6, 8000258 <memchr+0x78>
 8000234:	d1ee      	bne.n	8000214 <memchr+0x34>
 8000236:	bcf0      	pop	{r4, r5, r6, r7}
 8000238:	f001 01ff 	and.w	r1, r1, #255	; 0xff
 800023c:	f002 0207 	and.w	r2, r2, #7
 8000240:	b132      	cbz	r2, 8000250 <memchr+0x70>
 8000242:	f810 3b01 	ldrb.w	r3, [r0], #1
 8000246:	3a01      	subs	r2, #1
 8000248:	ea83 0301 	eor.w	r3, r3, r1
 800024c:	b113      	cbz	r3, 8000254 <memchr+0x74>
 800024e:	d1f8      	bne.n	8000242 <memchr+0x62>
 8000250:	2000      	movs	r0, #0
 8000252:	4770      	bx	lr
 8000254:	3801      	subs	r0, #1
 8000256:	4770      	bx	lr
 8000258:	2d00      	cmp	r5, #0
 800025a:	bf06      	itte	eq
 800025c:	4635      	moveq	r5, r6
 800025e:	3803      	subeq	r0, #3
 8000260:	3807      	subne	r0, #7
 8000262:	f015 0f01 	tst.w	r5, #1
 8000266:	d107      	bne.n	8000278 <memchr+0x98>
 8000268:	3001      	adds	r0, #1
 800026a:	f415 7f80 	tst.w	r5, #256	; 0x100
 800026e:	bf02      	ittt	eq
 8000270:	3001      	addeq	r0, #1
 8000272:	f415 3fc0 	tsteq.w	r5, #98304	; 0x18000
 8000276:	3001      	addeq	r0, #1
 8000278:	bcf0      	pop	{r4, r5, r6, r7}
 800027a:	3801      	subs	r0, #1
 800027c:	4770      	bx	lr
 800027e:	bf00      	nop

08000280 <__aeabi_uldivmod>:
 8000280:	b953      	cbnz	r3, 8000298 <__aeabi_uldivmod+0x18>
 8000282:	b94a      	cbnz	r2, 8000298 <__aeabi_uldivmod+0x18>
 8000284:	2900      	cmp	r1, #0
 8000286:	bf08      	it	eq
 8000288:	2800      	cmpeq	r0, #0
 800028a:	bf1c      	itt	ne
 800028c:	f04f 31ff 	movne.w	r1, #4294967295
 8000290:	f04f 30ff 	movne.w	r0, #4294967295
 8000294:	f000 b974 	b.w	8000580 <__aeabi_idiv0>
 8000298:	f1ad 0c08 	sub.w	ip, sp, #8
 800029c:	e96d ce04 	strd	ip, lr, [sp, #-16]!
 80002a0:	f000 f806 	bl	80002b0 <__udivmoddi4>
 80002a4:	f8dd e004 	ldr.w	lr, [sp, #4]
 80002a8:	e9dd 2302 	ldrd	r2, r3, [sp, #8]
 80002ac:	b004      	add	sp, #16
 80002ae:	4770      	bx	lr

080002b0 <__udivmoddi4>:
 80002b0:	e92d 47f0 	stmdb	sp!, {r4, r5, r6, r7, r8, r9, sl, lr}
 80002b4:	9d08      	ldr	r5, [sp, #32]
 80002b6:	4604      	mov	r4, r0
 80002b8:	468e      	mov	lr, r1
 80002ba:	2b00      	cmp	r3, #0
 80002bc:	d14d      	bne.n	800035a <__udivmoddi4+0xaa>
 80002be:	428a      	cmp	r2, r1
 80002c0:	4694      	mov	ip, r2
 80002c2:	d969      	bls.n	8000398 <__udivmoddi4+0xe8>
 80002c4:	fab2 f282 	clz	r2, r2
 80002c8:	b152      	cbz	r2, 80002e0 <__udivmoddi4+0x30>
 80002ca:	fa01 f302 	lsl.w	r3, r1, r2
 80002ce:	f1c2 0120 	rsb	r1, r2, #32
 80002d2:	fa20 f101 	lsr.w	r1, r0, r1
 80002d6:	fa0c fc02 	lsl.w	ip, ip, r2
 80002da:	ea41 0e03 	orr.w	lr, r1, r3
 80002de:	4094      	lsls	r4, r2
 80002e0:	ea4f 481c 	mov.w	r8, ip, lsr #16
 80002e4:	0c21      	lsrs	r1, r4, #16
 80002e6:	fbbe f6f8 	udiv	r6, lr, r8
 80002ea:	fa1f f78c 	uxth.w	r7, ip
 80002ee:	fb08 e316 	mls	r3, r8, r6, lr
 80002f2:	ea41 4303 	orr.w	r3, r1, r3, lsl #16
 80002f6:	fb06 f107 	mul.w	r1, r6, r7
 80002fa:	4299      	cmp	r1, r3
 80002fc:	d90a      	bls.n	8000314 <__udivmoddi4+0x64>
 80002fe:	eb1c 0303 	adds.w	r3, ip, r3
 8000302:	f106 30ff 	add.w	r0, r6, #4294967295
 8000306:	f080 811f 	bcs.w	8000548 <__udivmoddi4+0x298>
 800030a:	4299      	cmp	r1, r3
 800030c:	f240 811c 	bls.w	8000548 <__udivmoddi4+0x298>
 8000310:	3e02      	subs	r6, #2
 8000312:	4463      	add	r3, ip
 8000314:	1a5b      	subs	r3, r3, r1
 8000316:	b2a4      	uxth	r4, r4
 8000318:	fbb3 f0f8 	udiv	r0, r3, r8
 800031c:	fb08 3310 	mls	r3, r8, r0, r3
 8000320:	ea44 4403 	orr.w	r4, r4, r3, lsl #16
 8000324:	fb00 f707 	mul.w	r7, r0, r7
 8000328:	42a7      	cmp	r7, r4
 800032a:	d90a      	bls.n	8000342 <__udivmoddi4+0x92>
 800032c:	eb1c 0404 	adds.w	r4, ip, r4
 8000330:	f100 33ff 	add.w	r3, r0, #4294967295
 8000334:	f080 810a 	bcs.w	800054c <__udivmoddi4+0x29c>
 8000338:	42a7      	cmp	r7, r4
 800033a:	f240 8107 	bls.w	800054c <__udivmoddi4+0x29c>
 800033e:	4464      	add	r4, ip
 8000340:	3802      	subs	r0, #2
 8000342:	ea40 4006 	orr.w	r0, r0, r6, lsl #16
 8000346:	1be4      	subs	r4, r4, r7
 8000348:	2600      	movs	r6, #0
 800034a:	b11d      	cbz	r5, 8000354 <__udivmoddi4+0xa4>
 800034c:	40d4      	lsrs	r4, r2
 800034e:	2300      	movs	r3, #0
 8000350:	e9c5 4300 	strd	r4, r3, [r5]
 8000354:	4631      	mov	r1, r6
 8000356:	e8bd 87f0 	ldmia.w	sp!, {r4, r5, r6, r7, r8, r9, sl, pc}
 800035a:	428b      	cmp	r3, r1
 800035c:	d909      	bls.n	8000372 <__udivmoddi4+0xc2>
 800035e:	2d00      	cmp	r5, #0
 8000360:	f000 80ef 	beq.w	8000542 <__udivmoddi4+0x292>
 8000364:	2600      	movs	r6, #0
 8000366:	e9c5 0100 	strd	r0, r1, [r5]
 800036a:	4630      	mov	r0, r6
 800036c:	4631      	mov	r1, r6
 800036e:	e8bd 87f0 	ldmia.w	sp!, {r4, r5, r6, r7, r8, r9, sl, pc}
 8000372:	fab3 f683 	clz	r6, r3
 8000376:	2e00      	cmp	r6, #0
 8000378:	d14a      	bne.n	8000410 <__udivmoddi4+0x160>
 800037a:	428b      	cmp	r3, r1
 800037c:	d302      	bcc.n	8000384 <__udivmoddi4+0xd4>
 800037e:	4282      	cmp	r2, r0
 8000380:	f200 80f9 	bhi.w	8000576 <__udivmoddi4+0x2c6>
 8000384:	1a84      	subs	r4, r0, r2
 8000386:	eb61 0303 	sbc.w	r3, r1, r3
 800038a:	2001      	movs	r0, #1
 800038c:	469e      	mov	lr, r3
 800038e:	2d00      	cmp	r5, #0
 8000390:	d0e0      	beq.n	8000354 <__udivmoddi4+0xa4>
 8000392:	e9c5 4e00 	strd	r4, lr, [r5]
 8000396:	e7dd      	b.n	8000354 <__udivmoddi4+0xa4>
 8000398:	b902      	cbnz	r2, 800039c <__udivmoddi4+0xec>
 800039a:	deff      	udf	#255	; 0xff
 800039c:	fab2 f282 	clz	r2, r2
 80003a0:	2a00      	cmp	r2, #0
 80003a2:	f040 8092 	bne.w	80004ca <__udivmoddi4+0x21a>
 80003a6:	eba1 010c 	sub.w	r1, r1, ip
 80003aa:	ea4f 471c 	mov.w	r7, ip, lsr #16
 80003ae:	fa1f fe8c 	uxth.w	lr, ip
 80003b2:	2601      	movs	r6, #1
 80003b4:	0c20      	lsrs	r0, r4, #16
 80003b6:	fbb1 f3f7 	udiv	r3, r1, r7
 80003ba:	fb07 1113 	mls	r1, r7, r3, r1
 80003be:	ea40 4101 	orr.w	r1, r0, r1, lsl #16
 80003c2:	fb0e f003 	mul.w	r0, lr, r3
 80003c6:	4288      	cmp	r0, r1
 80003c8:	d908      	bls.n	80003dc <__udivmoddi4+0x12c>
 80003ca:	eb1c 0101 	adds.w	r1, ip, r1
 80003ce:	f103 38ff 	add.w	r8, r3, #4294967295
 80003d2:	d202      	bcs.n	80003da <__udivmoddi4+0x12a>
 80003d4:	4288      	cmp	r0, r1
 80003d6:	f200 80cb 	bhi.w	8000570 <__udivmoddi4+0x2c0>
 80003da:	4643      	mov	r3, r8
 80003dc:	1a09      	subs	r1, r1, r0
 80003de:	b2a4      	uxth	r4, r4
 80003e0:	fbb1 f0f7 	udiv	r0, r1, r7
 80003e4:	fb07 1110 	mls	r1, r7, r0, r1
 80003e8:	ea44 4401 	orr.w	r4, r4, r1, lsl #16
 80003ec:	fb0e fe00 	mul.w	lr, lr, r0
 80003f0:	45a6      	cmp	lr, r4
 80003f2:	d908      	bls.n	8000406 <__udivmoddi4+0x156>
 80003f4:	eb1c 0404 	adds.w	r4, ip, r4
 80003f8:	f100 31ff 	add.w	r1, r0, #4294967295
 80003fc:	d202      	bcs.n	8000404 <__udivmoddi4+0x154>
 80003fe:	45a6      	cmp	lr, r4
 8000400:	f200 80bb 	bhi.w	800057a <__udivmoddi4+0x2ca>
 8000404:	4608      	mov	r0, r1
 8000406:	eba4 040e 	sub.w	r4, r4, lr
 800040a:	ea40 4003 	orr.w	r0, r0, r3, lsl #16
 800040e:	e79c      	b.n	800034a <__udivmoddi4+0x9a>
 8000410:	f1c6 0720 	rsb	r7, r6, #32
 8000414:	40b3      	lsls	r3, r6
 8000416:	fa22 fc07 	lsr.w	ip, r2, r7
 800041a:	ea4c 0c03 	orr.w	ip, ip, r3
 800041e:	fa20 f407 	lsr.w	r4, r0, r7
 8000422:	fa01 f306 	lsl.w	r3, r1, r6
 8000426:	431c      	orrs	r4, r3
 8000428:	40f9      	lsrs	r1, r7
 800042a:	ea4f 491c 	mov.w	r9, ip, lsr #16
 800042e:	fa00 f306 	lsl.w	r3, r0, r6
 8000432:	fbb1 f8f9 	udiv	r8, r1, r9
 8000436:	0c20      	lsrs	r0, r4, #16
 8000438:	fa1f fe8c 	uxth.w	lr, ip
 800043c:	fb09 1118 	mls	r1, r9, r8, r1
 8000440:	ea40 4101 	orr.w	r1, r0, r1, lsl #16
 8000444:	fb08 f00e 	mul.w	r0, r8, lr
 8000448:	4288      	cmp	r0, r1
 800044a:	fa02 f206 	lsl.w	r2, r2, r6
 800044e:	d90b      	bls.n	8000468 <__udivmoddi4+0x1b8>
 8000450:	eb1c 0101 	adds.w	r1, ip, r1
 8000454:	f108 3aff 	add.w	sl, r8, #4294967295
 8000458:	f080 8088 	bcs.w	800056c <__udivmoddi4+0x2bc>
 800045c:	4288      	cmp	r0, r1
 800045e:	f240 8085 	bls.w	800056c <__udivmoddi4+0x2bc>
 8000462:	f1a8 0802 	sub.w	r8, r8, #2
 8000466:	4461      	add	r1, ip
 8000468:	1a09      	subs	r1, r1, r0
 800046a:	b2a4      	uxth	r4, r4
 800046c:	fbb1 f0f9 	udiv	r0, r1, r9
 8000470:	fb09 1110 	mls	r1, r9, r0, r1
 8000474:	ea44 4101 	orr.w	r1, r4, r1, lsl #16
 8000478:	fb00 fe0e 	mul.w	lr, r0, lr
 800047c:	458e      	cmp	lr, r1
 800047e:	d908      	bls.n	8000492 <__udivmoddi4+0x1e2>
 8000480:	eb1c 0101 	adds.w	r1, ip, r1
 8000484:	f100 34ff 	add.w	r4, r0, #4294967295
 8000488:	d26c      	bcs.n	8000564 <__udivmoddi4+0x2b4>
 800048a:	458e      	cmp	lr, r1
 800048c:	d96a      	bls.n	8000564 <__udivmoddi4+0x2b4>
 800048e:	3802      	subs	r0, #2
 8000490:	4461      	add	r1, ip
 8000492:	ea40 4008 	orr.w	r0, r0, r8, lsl #16
 8000496:	fba0 9402 	umull	r9, r4, r0, r2
 800049a:	eba1 010e 	sub.w	r1, r1, lr
 800049e:	42a1      	cmp	r1, r4
 80004a0:	46c8      	mov	r8, r9
 80004a2:	46a6      	mov	lr, r4
 80004a4:	d356      	bcc.n	8000554 <__udivmoddi4+0x2a4>
 80004a6:	d053      	beq.n	8000550 <__udivmoddi4+0x2a0>
 80004a8:	b15d      	cbz	r5, 80004c2 <__udivmoddi4+0x212>
 80004aa:	ebb3 0208 	subs.w	r2, r3, r8
 80004ae:	eb61 010e 	sbc.w	r1, r1, lr
 80004b2:	fa01 f707 	lsl.w	r7, r1, r7
 80004b6:	fa22 f306 	lsr.w	r3, r2, r6
 80004ba:	40f1      	lsrs	r1, r6
 80004bc:	431f      	orrs	r7, r3
 80004be:	e9c5 7100 	strd	r7, r1, [r5]
 80004c2:	2600      	movs	r6, #0
 80004c4:	4631      	mov	r1, r6
 80004c6:	e8bd 87f0 	ldmia.w	sp!, {r4, r5, r6, r7, r8, r9, sl, pc}
 80004ca:	f1c2 0320 	rsb	r3, r2, #32
 80004ce:	40d8      	lsrs	r0, r3
 80004d0:	fa0c fc02 	lsl.w	ip, ip, r2
 80004d4:	fa21 f303 	lsr.w	r3, r1, r3
 80004d8:	4091      	lsls	r1, r2
 80004da:	4301      	orrs	r1, r0
 80004dc:	ea4f 471c 	mov.w	r7, ip, lsr #16
 80004e0:	fa1f fe8c 	uxth.w	lr, ip
 80004e4:	fbb3 f0f7 	udiv	r0, r3, r7
 80004e8:	fb07 3610 	mls	r6, r7, r0, r3
 80004ec:	0c0b      	lsrs	r3, r1, #16
 80004ee:	ea43 4306 	orr.w	r3, r3, r6, lsl #16
 80004f2:	fb00 f60e 	mul.w	r6, r0, lr
 80004f6:	429e      	cmp	r6, r3
 80004f8:	fa04 f402 	lsl.w	r4, r4, r2
 80004fc:	d908      	bls.n	8000510 <__udivmoddi4+0x260>
 80004fe:	eb1c 0303 	adds.w	r3, ip, r3
 8000502:	f100 38ff 	add.w	r8, r0, #4294967295
 8000506:	d22f      	bcs.n	8000568 <__udivmoddi4+0x2b8>
 8000508:	429e      	cmp	r6, r3
 800050a:	d92d      	bls.n	8000568 <__udivmoddi4+0x2b8>
 800050c:	3802      	subs	r0, #2
 800050e:	4463      	add	r3, ip
 8000510:	1b9b      	subs	r3, r3, r6
 8000512:	b289      	uxth	r1, r1
 8000514:	fbb3 f6f7 	udiv	r6, r3, r7
 8000518:	fb07 3316 	mls	r3, r7, r6, r3
 800051c:	ea41 4103 	orr.w	r1, r1, r3, lsl #16
 8000520:	fb06 f30e 	mul.w	r3, r6, lr
 8000524:	428b      	cmp	r3, r1
 8000526:	d908      	bls.n	800053a <__udivmoddi4+0x28a>
 8000528:	eb1c 0101 	adds.w	r1, ip, r1
 800052c:	f106 38ff 	add.w	r8, r6, #4294967295
 8000530:	d216      	bcs.n	8000560 <__udivmoddi4+0x2b0>
 8000532:	428b      	cmp	r3, r1
 8000534:	d914      	bls.n	8000560 <__udivmoddi4+0x2b0>
 8000536:	3e02      	subs	r6, #2
 8000538:	4461      	add	r1, ip
 800053a:	1ac9      	subs	r1, r1, r3
 800053c:	ea46 4600 	orr.w	r6, r6, r0, lsl #16
 8000540:	e738      	b.n	80003b4 <__udivmoddi4+0x104>
 8000542:	462e      	mov	r6, r5
 8000544:	4628      	mov	r0, r5
 8000546:	e705      	b.n	8000354 <__udivmoddi4+0xa4>
 8000548:	4606      	mov	r6, r0
 800054a:	e6e3      	b.n	8000314 <__udivmoddi4+0x64>
 800054c:	4618      	mov	r0, r3
 800054e:	e6f8      	b.n	8000342 <__udivmoddi4+0x92>
 8000550:	454b      	cmp	r3, r9
 8000552:	d2a9      	bcs.n	80004a8 <__udivmoddi4+0x1f8>
 8000554:	ebb9 0802 	subs.w	r8, r9, r2
 8000558:	eb64 0e0c 	sbc.w	lr, r4, ip
 800055c:	3801      	subs	r0, #1
 800055e:	e7a3      	b.n	80004a8 <__udivmoddi4+0x1f8>
 8000560:	4646      	mov	r6, r8
 8000562:	e7ea      	b.n	800053a <__udivmoddi4+0x28a>
 8000564:	4620      	mov	r0, r4
 8000566:	e794      	b.n	8000492 <__udivmoddi4+0x1e2>
 8000568:	4640      	mov	r0, r8
 800056a:	e7d1      	b.n	8000510 <__udivmoddi4+0x260>
 800056c:	46d0      	mov	r8, sl
 800056e:	e77b      	b.n	8000468 <__udivmoddi4+0x1b8>
 8000570:	3b02      	subs	r3, #2
 8000572:	4461      	add	r1, ip
 8000574:	e732      	b.n	80003dc <__udivmoddi4+0x12c>
 8000576:	4630      	mov	r0, r6
 8000578:	e709      	b.n	800038e <__udivmoddi4+0xde>
 800057a:	4464      	add	r4, ip
 800057c:	3802      	subs	r0, #2
 800057e:	e742      	b.n	8000406 <__udivmoddi4+0x156>

08000580 <__aeabi_idiv0>:
 8000580:	4770      	bx	lr
 8000582:	bf00      	nop

08000584 <HAL_TIM_PWM_PulseFinishedCallback>:
 8000584:	4801      	ldr	r0, [pc, #4]	; (800058c <HAL_TIM_PWM_PulseFinishedCallback+0x8>)
 8000586:	2100      	movs	r1, #0
 8000588:	f003 bdea 	b.w	8004160 <HAL_TIM_PWM_Stop_DMA>
 800058c:	20001e50 	.word	0x20001e50

08000590 <key_scan>:
 8000590:	e92d 4ff0 	stmdb	sp!, {r4, r5, r6, r7, r8, r9, sl, fp, lr}
 8000594:	4c1b      	ldr	r4, [pc, #108]	; (8000604 <key_scan+0x74>)
 8000596:	4f1c      	ldr	r7, [pc, #112]	; (8000608 <key_scan+0x78>)
 8000598:	4e1c      	ldr	r6, [pc, #112]	; (800060c <key_scan+0x7c>)
 800059a:	f8df b078 	ldr.w	fp, [pc, #120]	; 8000614 <key_scan+0x84>
 800059e:	b085      	sub	sp, #20
 80005a0:	f104 0810 	add.w	r8, r4, #16
 80005a4:	4625      	mov	r5, r4
 80005a6:	f04f 0a64 	mov.w	sl, #100	; 0x64
 80005aa:	f04f 0901 	mov.w	r9, #1
 80005ae:	f815 2f01 	ldrb.w	r2, [r5, #1]!
 80005b2:	9600      	str	r6, [sp, #0]
 80005b4:	e9cd 9a01 	strd	r9, sl, [sp, #4]
 80005b8:	2301      	movs	r3, #1
 80005ba:	216e      	movs	r1, #110	; 0x6e
 80005bc:	4658      	mov	r0, fp
 80005be:	f001 ff21 	bl	8002404 <HAL_I2C_Mem_Read>
 80005c2:	b908      	cbnz	r0, 80005c8 <key_scan+0x38>
 80005c4:	7833      	ldrb	r3, [r6, #0]
 80005c6:	703b      	strb	r3, [r7, #0]
 80005c8:	4545      	cmp	r5, r8
 80005ca:	f107 0701 	add.w	r7, r7, #1
 80005ce:	d1ee      	bne.n	80005ae <key_scan+0x1e>
 80005d0:	4d0f      	ldr	r5, [pc, #60]	; (8000610 <key_scan+0x80>)
 80005d2:	f8df 9044 	ldr.w	r9, [pc, #68]	; 8000618 <key_scan+0x88>
 80005d6:	f04f 0a64 	mov.w	sl, #100	; 0x64
 80005da:	2701      	movs	r7, #1
 80005dc:	e9cd 7a01 	strd	r7, sl, [sp, #4]
 80005e0:	f814 2f01 	ldrb.w	r2, [r4, #1]!
 80005e4:	9600      	str	r6, [sp, #0]
 80005e6:	2301      	movs	r3, #1
 80005e8:	216e      	movs	r1, #110	; 0x6e
 80005ea:	4648      	mov	r0, r9
 80005ec:	f001 ff0a 	bl	8002404 <HAL_I2C_Mem_Read>
 80005f0:	b908      	cbnz	r0, 80005f6 <key_scan+0x66>
 80005f2:	7833      	ldrb	r3, [r6, #0]
 80005f4:	702b      	strb	r3, [r5, #0]
 80005f6:	4544      	cmp	r4, r8
 80005f8:	f105 0501 	add.w	r5, r5, #1
 80005fc:	d1ee      	bne.n	80005dc <key_scan+0x4c>
 80005fe:	b005      	add	sp, #20
 8000600:	e8bd 8ff0 	ldmia.w	sp!, {r4, r5, r6, r7, r8, r9, sl, fp, pc}
 8000604:	200000cb 	.word	0x200000cb
 8000608:	20000c60 	.word	0x20000c60
 800060c:	20000c80 	.word	0x20000c80
 8000610:	20000c70 	.word	0x20000c70
 8000614:	20001cf8 	.word	0x20001cf8
 8000618:	20001d4c 	.word	0x20001d4c

0800061c <Sensor_Cfg>:
 800061c:	b5f0      	push	{r4, r5, r6, r7, lr}
 800061e:	b087      	sub	sp, #28
 8000620:	2301      	movs	r3, #1
 8000622:	f10d 0213 	add.w	r2, sp, #19
 8000626:	2464      	movs	r4, #100	; 0x64
 8000628:	e9cd 3401 	strd	r3, r4, [sp, #4]
 800062c:	9200      	str	r2, [sp, #0]
 800062e:	4855      	ldr	r0, [pc, #340]	; (8000784 <Sensor_Cfg+0x168>)
 8000630:	f88d 3013 	strb.w	r3, [sp, #19]
 8000634:	228a      	movs	r2, #138	; 0x8a
 8000636:	216e      	movs	r1, #110	; 0x6e
 8000638:	f001 fee4 	bl	8002404 <HAL_I2C_Mem_Read>
 800063c:	f89d 3013 	ldrb.w	r3, [sp, #19]
 8000640:	2b01      	cmp	r3, #1
 8000642:	f040 809d 	bne.w	8000780 <Sensor_Cfg+0x164>
 8000646:	4f50      	ldr	r7, [pc, #320]	; (8000788 <Sensor_Cfg+0x16c>)
 8000648:	4e50      	ldr	r6, [pc, #320]	; (800078c <Sensor_Cfg+0x170>)
 800064a:	2580      	movs	r5, #128	; 0x80
 800064c:	e9cd 5401 	strd	r5, r4, [sp, #4]
 8000650:	9700      	str	r7, [sp, #0]
 8000652:	2301      	movs	r3, #1
 8000654:	2200      	movs	r2, #0
 8000656:	216e      	movs	r1, #110	; 0x6e
 8000658:	4630      	mov	r0, r6
 800065a:	f001 fddf 	bl	800221c <HAL_I2C_Mem_Write>
 800065e:	2800      	cmp	r0, #0
 8000660:	d1f4      	bne.n	800064c <Sensor_Cfg+0x30>
 8000662:	2303      	movs	r3, #3
 8000664:	4f49      	ldr	r7, [pc, #292]	; (800078c <Sensor_Cfg+0x170>)
 8000666:	f88d 3014 	strb.w	r3, [sp, #20]
 800066a:	ae05      	add	r6, sp, #20
 800066c:	2564      	movs	r5, #100	; 0x64
 800066e:	2401      	movs	r4, #1
 8000670:	e9cd 4501 	strd	r4, r5, [sp, #4]
 8000674:	9600      	str	r6, [sp, #0]
 8000676:	2301      	movs	r3, #1
 8000678:	2286      	movs	r2, #134	; 0x86
 800067a:	216e      	movs	r1, #110	; 0x6e
 800067c:	4638      	mov	r0, r7
 800067e:	f001 fdcd 	bl	800221c <HAL_I2C_Mem_Write>
 8000682:	2800      	cmp	r0, #0
 8000684:	d1f4      	bne.n	8000670 <Sensor_Cfg+0x54>
 8000686:	f44f 70fa 	mov.w	r0, #500	; 0x1f4
 800068a:	f006 fb9d 	bl	8006dc8 <osDelay>
 800068e:	4c40      	ldr	r4, [pc, #256]	; (8000790 <Sensor_Cfg+0x174>)
 8000690:	4f3e      	ldr	r7, [pc, #248]	; (800078c <Sensor_Cfg+0x170>)
 8000692:	2664      	movs	r6, #100	; 0x64
 8000694:	2502      	movs	r5, #2
 8000696:	e9cd 5601 	strd	r5, r6, [sp, #4]
 800069a:	9400      	str	r4, [sp, #0]
 800069c:	2301      	movs	r3, #1
 800069e:	2294      	movs	r2, #148	; 0x94
 80006a0:	216e      	movs	r1, #110	; 0x6e
 80006a2:	4638      	mov	r0, r7
 80006a4:	f001 feae 	bl	8002404 <HAL_I2C_Mem_Read>
 80006a8:	2800      	cmp	r0, #0
 80006aa:	d1f4      	bne.n	8000696 <Sensor_Cfg+0x7a>
 80006ac:	4938      	ldr	r1, [pc, #224]	; (8000790 <Sensor_Cfg+0x174>)
 80006ae:	4f37      	ldr	r7, [pc, #220]	; (800078c <Sensor_Cfg+0x170>)
 80006b0:	2202      	movs	r2, #2
 80006b2:	f004 ff97 	bl	80055e4 <CDC_Transmit>
 80006b6:	2064      	movs	r0, #100	; 0x64
 80006b8:	f006 fb86 	bl	8006dc8 <osDelay>
 80006bc:	2664      	movs	r6, #100	; 0x64
 80006be:	2502      	movs	r5, #2
 80006c0:	e9cd 5601 	strd	r5, r6, [sp, #4]
 80006c4:	9400      	str	r4, [sp, #0]
 80006c6:	2301      	movs	r3, #1
 80006c8:	227e      	movs	r2, #126	; 0x7e
 80006ca:	216e      	movs	r1, #110	; 0x6e
 80006cc:	4638      	mov	r0, r7
 80006ce:	f001 fda5 	bl	800221c <HAL_I2C_Mem_Write>
 80006d2:	2800      	cmp	r0, #0
 80006d4:	d1f4      	bne.n	80006c0 <Sensor_Cfg+0xa4>
 80006d6:	4f2d      	ldr	r7, [pc, #180]	; (800078c <Sensor_Cfg+0x170>)
 80006d8:	f88d 5015 	strb.w	r5, [sp, #21]
 80006dc:	f10d 0615 	add.w	r6, sp, #21
 80006e0:	2564      	movs	r5, #100	; 0x64
 80006e2:	2401      	movs	r4, #1
 80006e4:	e9cd 4501 	strd	r4, r5, [sp, #4]
 80006e8:	9600      	str	r6, [sp, #0]
 80006ea:	2301      	movs	r3, #1
 80006ec:	2286      	movs	r2, #134	; 0x86
 80006ee:	216e      	movs	r1, #110	; 0x6e
 80006f0:	4638      	mov	r0, r7
 80006f2:	f001 fd93 	bl	800221c <HAL_I2C_Mem_Write>
 80006f6:	2800      	cmp	r0, #0
 80006f8:	d1f4      	bne.n	80006e4 <Sensor_Cfg+0xc8>
 80006fa:	20dc      	movs	r0, #220	; 0xdc
 80006fc:	f006 fb64 	bl	8006dc8 <osDelay>
 8000700:	4f22      	ldr	r7, [pc, #136]	; (800078c <Sensor_Cfg+0x170>)
 8000702:	2302      	movs	r3, #2
 8000704:	f88d 3016 	strb.w	r3, [sp, #22]
 8000708:	f10d 0616 	add.w	r6, sp, #22
 800070c:	2564      	movs	r5, #100	; 0x64
 800070e:	2401      	movs	r4, #1
 8000710:	e9cd 4501 	strd	r4, r5, [sp, #4]
 8000714:	9600      	str	r6, [sp, #0]
 8000716:	2301      	movs	r3, #1
 8000718:	2288      	movs	r2, #136	; 0x88
 800071a:	216e      	movs	r1, #110	; 0x6e
 800071c:	4638      	mov	r0, r7
 800071e:	f001 fe71 	bl	8002404 <HAL_I2C_Mem_Read>
 8000722:	2800      	cmp	r0, #0
 8000724:	d1f4      	bne.n	8000710 <Sensor_Cfg+0xf4>
 8000726:	f89d 3016 	ldrb.w	r3, [sp, #22]
 800072a:	b1db      	cbz	r3, 8000764 <Sensor_Cfg+0x148>
 800072c:	4f17      	ldr	r7, [pc, #92]	; (800078c <Sensor_Cfg+0x170>)
 800072e:	f10d 0417 	add.w	r4, sp, #23
 8000732:	2601      	movs	r6, #1
 8000734:	f44f 707a 	mov.w	r0, #1000	; 0x3e8
 8000738:	f006 fb46 	bl	8006dc8 <osDelay>
 800073c:	2300      	movs	r3, #0
 800073e:	f88d 3017 	strb.w	r3, [sp, #23]
 8000742:	2564      	movs	r5, #100	; 0x64
 8000744:	e9cd 6501 	strd	r6, r5, [sp, #4]
 8000748:	9400      	str	r4, [sp, #0]
 800074a:	2301      	movs	r3, #1
 800074c:	2289      	movs	r2, #137	; 0x89
 800074e:	216e      	movs	r1, #110	; 0x6e
 8000750:	4638      	mov	r0, r7
 8000752:	f001 fe57 	bl	8002404 <HAL_I2C_Mem_Read>
 8000756:	2800      	cmp	r0, #0
 8000758:	d1f4      	bne.n	8000744 <Sensor_Cfg+0x128>
 800075a:	2201      	movs	r2, #1
 800075c:	4621      	mov	r1, r4
 800075e:	f004 ff41 	bl	80055e4 <CDC_Transmit>
 8000762:	e7e7      	b.n	8000734 <Sensor_Cfg+0x118>
 8000764:	f10d 0317 	add.w	r3, sp, #23
 8000768:	26ff      	movs	r6, #255	; 0xff
 800076a:	9300      	str	r3, [sp, #0]
 800076c:	e9cd 4501 	strd	r4, r5, [sp, #4]
 8000770:	4806      	ldr	r0, [pc, #24]	; (800078c <Sensor_Cfg+0x170>)
 8000772:	f88d 6017 	strb.w	r6, [sp, #23]
 8000776:	2301      	movs	r3, #1
 8000778:	2286      	movs	r2, #134	; 0x86
 800077a:	216e      	movs	r1, #110	; 0x6e
 800077c:	f001 fd4e 	bl	800221c <HAL_I2C_Mem_Write>
 8000780:	b007      	add	sp, #28
 8000782:	bdf0      	pop	{r4, r5, r6, r7, pc}
 8000784:	20001cf8 	.word	0x20001cf8
 8000788:	08009604 	.word	0x08009604
 800078c:	20001d4c 	.word	0x20001d4c
 8000790:	200000c8 	.word	0x200000c8

08000794 <MX_DMA_Init>:
 8000794:	b530      	push	{r4, r5, lr}
 8000796:	b083      	sub	sp, #12
 8000798:	2300      	movs	r3, #0
 800079a:	4a1e      	ldr	r2, [pc, #120]	; (8000814 <MX_DMA_Init+0x80>)
 800079c:	9300      	str	r3, [sp, #0]
 800079e:	6b11      	ldr	r1, [r2, #48]	; 0x30
 80007a0:	481d      	ldr	r0, [pc, #116]	; (8000818 <MX_DMA_Init+0x84>)
 80007a2:	4d1e      	ldr	r5, [pc, #120]	; (800081c <MX_DMA_Init+0x88>)
 80007a4:	f441 1100 	orr.w	r1, r1, #2097152	; 0x200000
 80007a8:	6311      	str	r1, [r2, #48]	; 0x30
 80007aa:	6b11      	ldr	r1, [r2, #48]	; 0x30
 80007ac:	f401 1100 	and.w	r1, r1, #2097152	; 0x200000
 80007b0:	9100      	str	r1, [sp, #0]
 80007b2:	9900      	ldr	r1, [sp, #0]
 80007b4:	9301      	str	r3, [sp, #4]
 80007b6:	6b11      	ldr	r1, [r2, #48]	; 0x30
 80007b8:	6043      	str	r3, [r0, #4]
 80007ba:	f441 0180 	orr.w	r1, r1, #4194304	; 0x400000
 80007be:	6311      	str	r1, [r2, #48]	; 0x30
 80007c0:	6b12      	ldr	r2, [r2, #48]	; 0x30
 80007c2:	6143      	str	r3, [r0, #20]
 80007c4:	f402 0280 	and.w	r2, r2, #4194304	; 0x400000
 80007c8:	9201      	str	r2, [sp, #4]
 80007ca:	2280      	movs	r2, #128	; 0x80
 80007cc:	f44f 7400 	mov.w	r4, #512	; 0x200
 80007d0:	6082      	str	r2, [r0, #8]
 80007d2:	f44f 6280 	mov.w	r2, #1024	; 0x400
 80007d6:	e9c0 4203 	strd	r4, r2, [r0, #12]
 80007da:	9901      	ldr	r1, [sp, #4]
 80007dc:	6005      	str	r5, [r0, #0]
 80007de:	2104      	movs	r1, #4
 80007e0:	2203      	movs	r2, #3
 80007e2:	e9c0 3306 	strd	r3, r3, [r0, #24]
 80007e6:	e9c0 3108 	strd	r3, r1, [r0, #32]
 80007ea:	e9c0 230a 	strd	r2, r3, [r0, #40]	; 0x28
 80007ee:	6303      	str	r3, [r0, #48]	; 0x30
 80007f0:	f000 ff24 	bl	800163c <HAL_DMA_Init>
 80007f4:	b950      	cbnz	r0, 800080c <MX_DMA_Init+0x78>
 80007f6:	200b      	movs	r0, #11
 80007f8:	2200      	movs	r2, #0
 80007fa:	2105      	movs	r1, #5
 80007fc:	f000 fed2 	bl	80015a4 <HAL_NVIC_SetPriority>
 8000800:	200b      	movs	r0, #11
 8000802:	b003      	add	sp, #12
 8000804:	e8bd 4030 	ldmia.w	sp!, {r4, r5, lr}
 8000808:	f000 bf0a 	b.w	8001620 <HAL_NVIC_EnableIRQ>
 800080c:	f000 fc74 	bl	80010f8 <Error_Handler>
 8000810:	e7f1      	b.n	80007f6 <MX_DMA_Init+0x62>
 8000812:	bf00      	nop
 8000814:	40023800 	.word	0x40023800
 8000818:	20000c84 	.word	0x20000c84
 800081c:	40026410 	.word	0x40026410

08000820 <StartTask04>:
 8000820:	b508      	push	{r3, lr}
 8000822:	2001      	movs	r0, #1
 8000824:	f006 fad0 	bl	8006dc8 <osDelay>
 8000828:	e7fb      	b.n	8000822 <StartTask04+0x2>
 800082a:	bf00      	nop

0800082c <StartDefaultTask>:
 800082c:	e92d 41f0 	stmdb	sp!, {r4, r5, r6, r7, r8, lr}
 8000830:	2005      	movs	r0, #5
 8000832:	b08a      	sub	sp, #40	; 0x28
 8000834:	f006 fac8 	bl	8006dc8 <osDelay>
 8000838:	f7ff fef0 	bl	800061c <Sensor_Cfg>
 800083c:	f8df e0ac 	ldr.w	lr, [pc, #172]	; 80008ec <StartDefaultTask+0xc0>
 8000840:	4c26      	ldr	r4, [pc, #152]	; (80008dc <StartDefaultTask+0xb0>)
 8000842:	f8df 80ac 	ldr.w	r8, [pc, #172]	; 80008f0 <StartDefaultTask+0xc4>
 8000846:	4e26      	ldr	r6, [pc, #152]	; (80008e0 <StartDefaultTask+0xb4>)
 8000848:	e8be 000f 	ldmia.w	lr!, {r0, r1, r2, r3}
 800084c:	46ec      	mov	ip, sp
 800084e:	e8ac 000f 	stmia.w	ip!, {r0, r1, r2, r3}
 8000852:	e8be 000f 	ldmia.w	lr!, {r0, r1, r2, r3}
 8000856:	e8ac 000f 	stmia.w	ip!, {r0, r1, r2, r3}
 800085a:	e89e 0003 	ldmia.w	lr, {r0, r1}
 800085e:	f84c 0b04 	str.w	r0, [ip], #4
 8000862:	f1a4 051f 	sub.w	r5, r4, #31
 8000866:	27fe      	movs	r7, #254	; 0xfe
 8000868:	f88c 1000 	strb.w	r1, [ip]
 800086c:	200a      	movs	r0, #10
 800086e:	f006 faab 	bl	8006dc8 <osDelay>
 8000872:	f898 3000 	ldrb.w	r3, [r8]
 8000876:	2b01      	cmp	r3, #1
 8000878:	d1f8      	bne.n	800086c <StartDefaultTask+0x40>
 800087a:	f7ff fe89 	bl	8000590 <key_scan>
 800087e:	4a19      	ldr	r2, [pc, #100]	; (80008e4 <StartDefaultTask+0xb8>)
 8000880:	f44f 7190 	mov.w	r1, #288	; 0x120
 8000884:	e004      	b.n	8000890 <StartDefaultTask+0x64>
 8000886:	2bfd      	cmp	r3, #253	; 0xfd
 8000888:	d006      	beq.n	8000898 <StartDefaultTask+0x6c>
 800088a:	42a2      	cmp	r2, r4
 800088c:	4419      	add	r1, r3
 800088e:	d008      	beq.n	80008a2 <StartDefaultTask+0x76>
 8000890:	f812 3f01 	ldrb.w	r3, [r2, #1]!
 8000894:	2bff      	cmp	r3, #255	; 0xff
 8000896:	d1f6      	bne.n	8000886 <StartDefaultTask+0x5a>
 8000898:	23fe      	movs	r3, #254	; 0xfe
 800089a:	42a2      	cmp	r2, r4
 800089c:	7017      	strb	r7, [r2, #0]
 800089e:	4419      	add	r1, r3
 80008a0:	d1f6      	bne.n	8000890 <StartDefaultTask+0x64>
 80008a2:	4b11      	ldr	r3, [pc, #68]	; (80008e8 <StartDefaultTask+0xbc>)
 80008a4:	f10d 0202 	add.w	r2, sp, #2
 80008a8:	f813 0f01 	ldrb.w	r0, [r3, #1]!
 80008ac:	5c28      	ldrb	r0, [r5, r0]
 80008ae:	f802 0f01 	strb.w	r0, [r2, #1]!
 80008b2:	429e      	cmp	r6, r3
 80008b4:	d1f8      	bne.n	80008a8 <StartDefaultTask+0x7c>
 80008b6:	4249      	negs	r1, r1
 80008b8:	b2c9      	uxtb	r1, r1
 80008ba:	29ff      	cmp	r1, #255	; 0xff
 80008bc:	bf14      	ite	ne
 80008be:	f88d 1023 	strbne.w	r1, [sp, #35]	; 0x23
 80008c2:	f64f 63fd 	movweq	r3, #65277	; 0xfefd
 80008c6:	f04f 0225 	mov.w	r2, #37	; 0x25
 80008ca:	4669      	mov	r1, sp
 80008cc:	f04f 0000 	mov.w	r0, #0
 80008d0:	bf08      	it	eq
 80008d2:	f8ad 3023 	strheq.w	r3, [sp, #35]	; 0x23
 80008d6:	f004 fe85 	bl	80055e4 <CDC_Transmit>
 80008da:	e7c7      	b.n	800086c <StartDefaultTask+0x40>
 80008dc:	20000c7f 	.word	0x20000c7f
 80008e0:	080096a3 	.word	0x080096a3
 80008e4:	20000c5f 	.word	0x20000c5f
 80008e8:	08009683 	.word	0x08009683
 80008ec:	080095dc 	.word	0x080095dc
 80008f0:	20001da0 	.word	0x20001da0

080008f4 <StartTask02>:
 80008f4:	e92d 4ff8 	stmdb	sp!, {r3, r4, r5, r6, r7, r8, r9, sl, fp, lr}
 80008f8:	4c89      	ldr	r4, [pc, #548]	; (8000b20 <StartTask02+0x22c>)
 80008fa:	4b8a      	ldr	r3, [pc, #552]	; (8000b24 <StartTask02+0x230>)
 80008fc:	4d8a      	ldr	r5, [pc, #552]	; (8000b28 <StartTask02+0x234>)
 80008fe:	781f      	ldrb	r7, [r3, #0]
 8000900:	2600      	movs	r6, #0
 8000902:	4630      	mov	r0, r6
 8000904:	4631      	mov	r1, r6
 8000906:	e066      	b.n	80009d6 <StartTask02+0xe2>
 8000908:	f013 0f01 	tst.w	r3, #1
 800090c:	bf14      	ite	ne
 800090e:	2752      	movne	r7, #82	; 0x52
 8000910:	2718      	moveq	r7, #24
 8000912:	f013 0f02 	tst.w	r3, #2
 8000916:	bf0c      	ite	eq
 8000918:	f04f 0b18 	moveq.w	fp, #24
 800091c:	f04f 0b52 	movne.w	fp, #82	; 0x52
 8000920:	f013 0f04 	tst.w	r3, #4
 8000924:	bf0c      	ite	eq
 8000926:	f04f 0a18 	moveq.w	sl, #24
 800092a:	f04f 0a52 	movne.w	sl, #82	; 0x52
 800092e:	f013 0f08 	tst.w	r3, #8
 8000932:	bf0c      	ite	eq
 8000934:	f04f 0918 	moveq.w	r9, #24
 8000938:	f04f 0952 	movne.w	r9, #82	; 0x52
 800093c:	180a      	adds	r2, r1, r0
 800093e:	f013 0f10 	tst.w	r3, #16
 8000942:	ea4f 02c2 	mov.w	r2, r2, lsl #3
 8000946:	bf0c      	ite	eq
 8000948:	f04f 0818 	moveq.w	r8, #24
 800094c:	f04f 0852 	movne.w	r8, #82	; 0x52
 8000950:	f013 0f20 	tst.w	r3, #32
 8000954:	bf0c      	ite	eq
 8000956:	f04f 0c18 	moveq.w	ip, #24
 800095a:	f04f 0c52 	movne.w	ip, #82	; 0x52
 800095e:	f013 0f40 	tst.w	r3, #64	; 0x40
 8000962:	f824 7012 	strh.w	r7, [r4, r2, lsl #1]
 8000966:	bf14      	ite	ne
 8000968:	f04f 0e52 	movne.w	lr, #82	; 0x52
 800096c:	f04f 0e18 	moveq.w	lr, #24
 8000970:	09df      	lsrs	r7, r3, #7
 8000972:	f102 0701 	add.w	r7, r2, #1
 8000976:	f101 0101 	add.w	r1, r1, #1
 800097a:	f824 b017 	strh.w	fp, [r4, r7, lsl #1]
 800097e:	f102 0702 	add.w	r7, r2, #2
 8000982:	b2c9      	uxtb	r1, r1
 8000984:	f824 a017 	strh.w	sl, [r4, r7, lsl #1]
 8000988:	f102 0703 	add.w	r7, r2, #3
 800098c:	f824 9017 	strh.w	r9, [r4, r7, lsl #1]
 8000990:	f102 0704 	add.w	r7, r2, #4
 8000994:	f824 8017 	strh.w	r8, [r4, r7, lsl #1]
 8000998:	f102 0705 	add.w	r7, r2, #5
 800099c:	f824 c017 	strh.w	ip, [r4, r7, lsl #1]
 80009a0:	f102 0c06 	add.w	ip, r2, #6
 80009a4:	f102 0207 	add.w	r2, r2, #7
 80009a8:	bf0c      	ite	eq
 80009aa:	2718      	moveq	r7, #24
 80009ac:	2752      	movne	r7, #82	; 0x52
 80009ae:	f824 e01c 	strh.w	lr, [r4, ip, lsl #1]
 80009b2:	f824 7012 	strh.w	r7, [r4, r2, lsl #1]
 80009b6:	461f      	mov	r7, r3
 80009b8:	2800      	cmp	r0, #0
 80009ba:	f000 8092 	beq.w	8000ae2 <StartTask02+0x1ee>
 80009be:	2801      	cmp	r0, #1
 80009c0:	f000 808c 	beq.w	8000adc <StartTask02+0x1e8>
 80009c4:	1c43      	adds	r3, r0, #1
 80009c6:	d100      	bne.n	80009ca <StartTask02+0xd6>
 80009c8:	2000      	movs	r0, #0
 80009ca:	4b58      	ldr	r3, [pc, #352]	; (8000b2c <StartTask02+0x238>)
 80009cc:	429d      	cmp	r5, r3
 80009ce:	d06c      	beq.n	8000aaa <StartTask02+0x1b6>
 80009d0:	2960      	cmp	r1, #96	; 0x60
 80009d2:	f000 8091 	beq.w	8000af8 <StartTask02+0x204>
 80009d6:	f815 3f01 	ldrb.w	r3, [r5, #1]!
 80009da:	2bfd      	cmp	r3, #253	; 0xfd
 80009dc:	d07c      	beq.n	8000ad8 <StartTask02+0x1e4>
 80009de:	2e00      	cmp	r6, #0
 80009e0:	d092      	beq.n	8000908 <StartTask02+0x14>
 80009e2:	3301      	adds	r3, #1
 80009e4:	f013 0f01 	tst.w	r3, #1
 80009e8:	bf14      	ite	ne
 80009ea:	2752      	movne	r7, #82	; 0x52
 80009ec:	2718      	moveq	r7, #24
 80009ee:	f013 0f02 	tst.w	r3, #2
 80009f2:	bf0c      	ite	eq
 80009f4:	f04f 0b18 	moveq.w	fp, #24
 80009f8:	f04f 0b52 	movne.w	fp, #82	; 0x52
 80009fc:	f013 0f04 	tst.w	r3, #4
 8000a00:	bf0c      	ite	eq
 8000a02:	f04f 0a18 	moveq.w	sl, #24
 8000a06:	f04f 0a52 	movne.w	sl, #82	; 0x52
 8000a0a:	f013 0f08 	tst.w	r3, #8
 8000a0e:	bf0c      	ite	eq
 8000a10:	f04f 0918 	moveq.w	r9, #24
 8000a14:	f04f 0952 	movne.w	r9, #82	; 0x52
 8000a18:	180a      	adds	r2, r1, r0
 8000a1a:	f013 0f10 	tst.w	r3, #16
 8000a1e:	ea4f 02c2 	mov.w	r2, r2, lsl #3
 8000a22:	bf0c      	ite	eq
 8000a24:	f04f 0818 	moveq.w	r8, #24
 8000a28:	f04f 0852 	movne.w	r8, #82	; 0x52
 8000a2c:	f013 0f20 	tst.w	r3, #32
 8000a30:	bf0c      	ite	eq
 8000a32:	f04f 0c18 	moveq.w	ip, #24
 8000a36:	f04f 0c52 	movne.w	ip, #82	; 0x52
 8000a3a:	f013 0f40 	tst.w	r3, #64	; 0x40
 8000a3e:	f824 7012 	strh.w	r7, [r4, r2, lsl #1]
 8000a42:	bf14      	ite	ne
 8000a44:	f04f 0e52 	movne.w	lr, #82	; 0x52
 8000a48:	f04f 0e18 	moveq.w	lr, #24
 8000a4c:	b2df      	uxtb	r7, r3
 8000a4e:	f013 0f80 	tst.w	r3, #128	; 0x80
 8000a52:	f102 0301 	add.w	r3, r2, #1
 8000a56:	f101 0101 	add.w	r1, r1, #1
 8000a5a:	f824 b013 	strh.w	fp, [r4, r3, lsl #1]
 8000a5e:	f102 0302 	add.w	r3, r2, #2
 8000a62:	b2c9      	uxtb	r1, r1
 8000a64:	f824 a013 	strh.w	sl, [r4, r3, lsl #1]
 8000a68:	f102 0303 	add.w	r3, r2, #3
 8000a6c:	f824 9013 	strh.w	r9, [r4, r3, lsl #1]
 8000a70:	f102 0304 	add.w	r3, r2, #4
 8000a74:	f824 8013 	strh.w	r8, [r4, r3, lsl #1]
 8000a78:	f102 0305 	add.w	r3, r2, #5
 8000a7c:	f824 c013 	strh.w	ip, [r4, r3, lsl #1]
 8000a80:	f102 0c06 	add.w	ip, r2, #6
 8000a84:	f102 0207 	add.w	r2, r2, #7
 8000a88:	bf0c      	ite	eq
 8000a8a:	2318      	moveq	r3, #24
 8000a8c:	2352      	movne	r3, #82	; 0x52
 8000a8e:	f824 e01c 	strh.w	lr, [r4, ip, lsl #1]
 8000a92:	f824 3012 	strh.w	r3, [r4, r2, lsl #1]
 8000a96:	b368      	cbz	r0, 8000af4 <StartTask02+0x200>
 8000a98:	2801      	cmp	r0, #1
 8000a9a:	d027      	beq.n	8000aec <StartTask02+0x1f8>
 8000a9c:	1c42      	adds	r2, r0, #1
 8000a9e:	d022      	beq.n	8000ae6 <StartTask02+0x1f2>
 8000aa0:	4b22      	ldr	r3, [pc, #136]	; (8000b2c <StartTask02+0x238>)
 8000aa2:	429d      	cmp	r5, r3
 8000aa4:	f04f 0600 	mov.w	r6, #0
 8000aa8:	d192      	bne.n	80009d0 <StartTask02+0xdc>
 8000aaa:	4b1e      	ldr	r3, [pc, #120]	; (8000b24 <StartTask02+0x230>)
 8000aac:	2960      	cmp	r1, #96	; 0x60
 8000aae:	701f      	strb	r7, [r3, #0]
 8000ab0:	d024      	beq.n	8000afc <StartTask02+0x208>
 8000ab2:	f1c1 0560 	rsb	r5, r1, #96	; 0x60
 8000ab6:	eb04 1301 	add.w	r3, r4, r1, lsl #4
 8000aba:	b2ed      	uxtb	r5, r5
 8000abc:	2100      	movs	r1, #0
 8000abe:	f04f 1218 	mov.w	r2, #1572888	; 0x180018
 8000ac2:	3101      	adds	r1, #1
 8000ac4:	b2c8      	uxtb	r0, r1
 8000ac6:	42a8      	cmp	r0, r5
 8000ac8:	601a      	str	r2, [r3, #0]
 8000aca:	605a      	str	r2, [r3, #4]
 8000acc:	609a      	str	r2, [r3, #8]
 8000ace:	60da      	str	r2, [r3, #12]
 8000ad0:	f103 0310 	add.w	r3, r3, #16
 8000ad4:	d3f5      	bcc.n	8000ac2 <StartTask02+0x1ce>
 8000ad6:	e011      	b.n	8000afc <StartTask02+0x208>
 8000ad8:	2601      	movs	r6, #1
 8000ada:	e776      	b.n	80009ca <StartTask02+0xd6>
 8000adc:	f04f 30ff 	mov.w	r0, #4294967295
 8000ae0:	e773      	b.n	80009ca <StartTask02+0xd6>
 8000ae2:	2001      	movs	r0, #1
 8000ae4:	e771      	b.n	80009ca <StartTask02+0xd6>
 8000ae6:	2000      	movs	r0, #0
 8000ae8:	4606      	mov	r6, r0
 8000aea:	e76e      	b.n	80009ca <StartTask02+0xd6>
 8000aec:	f04f 30ff 	mov.w	r0, #4294967295
 8000af0:	2600      	movs	r6, #0
 8000af2:	e76a      	b.n	80009ca <StartTask02+0xd6>
 8000af4:	4630      	mov	r0, r6
 8000af6:	e7d3      	b.n	8000aa0 <StartTask02+0x1ac>
 8000af8:	4b0a      	ldr	r3, [pc, #40]	; (8000b24 <StartTask02+0x230>)
 8000afa:	701f      	strb	r7, [r3, #0]
 8000afc:	4a08      	ldr	r2, [pc, #32]	; (8000b20 <StartTask02+0x22c>)
 8000afe:	480c      	ldr	r0, [pc, #48]	; (8000b30 <StartTask02+0x23c>)
 8000b00:	f240 3301 	movw	r3, #769	; 0x301
 8000b04:	2100      	movs	r1, #0
 8000b06:	f003 fa1b 	bl	8003f40 <HAL_TIM_PWM_Start_DMA>
 8000b0a:	4a0a      	ldr	r2, [pc, #40]	; (8000b34 <StartTask02+0x240>)
 8000b0c:	4808      	ldr	r0, [pc, #32]	; (8000b30 <StartTask02+0x23c>)
 8000b0e:	23f0      	movs	r3, #240	; 0xf0
 8000b10:	2100      	movs	r1, #0
 8000b12:	f003 fa15 	bl	8003f40 <HAL_TIM_PWM_Start_DMA>
 8000b16:	2032      	movs	r0, #50	; 0x32
 8000b18:	f006 f956 	bl	8006dc8 <osDelay>
 8000b1c:	e6ed      	b.n	80008fa <StartTask02+0x6>
 8000b1e:	bf00      	nop
 8000b20:	2000047c 	.word	0x2000047c
 8000b24:	20000a7e 	.word	0x20000a7e
 8000b28:	20000002 	.word	0x20000002
 8000b2c:	200000c7 	.word	0x200000c7
 8000b30:	20001e50 	.word	0x20001e50
 8000b34:	20000a80 	.word	0x20000a80

08000b38 <StartTask03>:
 8000b38:	e92d 4ff8 	stmdb	sp!, {r3, r4, r5, r6, r7, r8, r9, sl, fp, lr}
 8000b3c:	f04f 0900 	mov.w	r9, #0
 8000b40:	4d71      	ldr	r5, [pc, #452]	; (8000d08 <StartTask03+0x1d0>)
 8000b42:	4c72      	ldr	r4, [pc, #456]	; (8000d0c <StartTask03+0x1d4>)
 8000b44:	f8df 81d8 	ldr.w	r8, [pc, #472]	; 8000d20 <StartTask03+0x1e8>
 8000b48:	f8df a1d8 	ldr.w	sl, [pc, #472]	; 8000d24 <StartTask03+0x1ec>
 8000b4c:	f8df b1d8 	ldr.w	fp, [pc, #472]	; 8000d28 <StartTask03+0x1f0>
 8000b50:	464f      	mov	r7, r9
 8000b52:	464e      	mov	r6, r9
 8000b54:	2001      	movs	r0, #1
 8000b56:	f006 f937 	bl	8006dc8 <osDelay>
 8000b5a:	6823      	ldr	r3, [r4, #0]
 8000b5c:	2b00      	cmp	r3, #0
 8000b5e:	d0f9      	beq.n	8000b54 <StartTask03+0x1c>
 8000b60:	782a      	ldrb	r2, [r5, #0]
 8000b62:	2aff      	cmp	r2, #255	; 0xff
 8000b64:	d004      	beq.n	8000b70 <StartTask03+0x38>
 8000b66:	2f00      	cmp	r7, #0
 8000b68:	f040 8084 	bne.w	8000c74 <StartTask03+0x13c>
 8000b6c:	6026      	str	r6, [r4, #0]
 8000b6e:	e7f1      	b.n	8000b54 <StartTask03+0x1c>
 8000b70:	786a      	ldrb	r2, [r5, #1]
 8000b72:	2a10      	cmp	r2, #16
 8000b74:	d878      	bhi.n	8000c68 <StartTask03+0x130>
 8000b76:	2a00      	cmp	r2, #0
 8000b78:	d0f8      	beq.n	8000b6c <StartTask03+0x34>
 8000b7a:	3a01      	subs	r2, #1
 8000b7c:	2a0f      	cmp	r2, #15
 8000b7e:	d8f5      	bhi.n	8000b6c <StartTask03+0x34>
 8000b80:	a101      	add	r1, pc, #4	; (adr r1, 8000b88 <StartTask03+0x50>)
 8000b82:	f851 f022 	ldr.w	pc, [r1, r2, lsl #2]
 8000b86:	bf00      	nop
 8000b88:	08000c61 	.word	0x08000c61
 8000b8c:	08000bfb 	.word	0x08000bfb
 8000b90:	08000be7 	.word	0x08000be7
 8000b94:	08000bd5 	.word	0x08000bd5
 8000b98:	08000b6d 	.word	0x08000b6d
 8000b9c:	08000b6d 	.word	0x08000b6d
 8000ba0:	08000b6d 	.word	0x08000b6d
 8000ba4:	08000b6d 	.word	0x08000b6d
 8000ba8:	08000b6d 	.word	0x08000b6d
 8000bac:	08000b6d 	.word	0x08000b6d
 8000bb0:	08000b6d 	.word	0x08000b6d
 8000bb4:	08000b6d 	.word	0x08000b6d
 8000bb8:	08000b6d 	.word	0x08000b6d
 8000bbc:	08000b6d 	.word	0x08000b6d
 8000bc0:	08000b6d 	.word	0x08000b6d
 8000bc4:	08000bc9 	.word	0x08000bc9
 8000bc8:	4951      	ldr	r1, [pc, #324]	; (8000d10 <StartTask03+0x1d8>)
 8000bca:	2204      	movs	r2, #4
 8000bcc:	2000      	movs	r0, #0
 8000bce:	f004 fd09 	bl	80055e4 <CDC_Transmit>
 8000bd2:	e7cb      	b.n	8000b6c <StartTask03+0x34>
 8000bd4:	2201      	movs	r2, #1
 8000bd6:	f44f 5100 	mov.w	r1, #8192	; 0x2000
 8000bda:	4658      	mov	r0, fp
 8000bdc:	f88a 6000 	strb.w	r6, [sl]
 8000be0:	f000 fff8 	bl	8001bd4 <HAL_GPIO_WritePin>
 8000be4:	e7c2      	b.n	8000b6c <StartTask03+0x34>
 8000be6:	2301      	movs	r3, #1
 8000be8:	2200      	movs	r2, #0
 8000bea:	f44f 5100 	mov.w	r1, #8192	; 0x2000
 8000bee:	4658      	mov	r0, fp
 8000bf0:	f88a 3000 	strb.w	r3, [sl]
 8000bf4:	f000 ffee 	bl	8001bd4 <HAL_GPIO_WritePin>
 8000bf8:	e7b8      	b.n	8000b6c <StartTask03+0x34>
 8000bfa:	22ff      	movs	r2, #255	; 0xff
 8000bfc:	2b01      	cmp	r3, #1
 8000bfe:	f888 2000 	strb.w	r2, [r8]
 8000c02:	fa5f f983 	uxtb.w	r9, r3
 8000c06:	d029      	beq.n	8000c5c <StartTask03+0x124>
 8000c08:	f1a3 020a 	sub.w	r2, r3, #10
 8000c0c:	2af5      	cmp	r2, #245	; 0xf5
 8000c0e:	d870      	bhi.n	8000cf2 <StartTask03+0x1ba>
 8000c10:	f103 3eff 	add.w	lr, r3, #4294967295
 8000c14:	483f      	ldr	r0, [pc, #252]	; (8000d14 <StartTask03+0x1dc>)
 8000c16:	4940      	ldr	r1, [pc, #256]	; (8000d18 <StartTask03+0x1e0>)
 8000c18:	ea4f 0c9e 	mov.w	ip, lr, lsr #2
 8000c1c:	2200      	movs	r2, #0
 8000c1e:	3201      	adds	r2, #1
 8000c20:	f850 7b04 	ldr.w	r7, [r0], #4
 8000c24:	f841 7b04 	str.w	r7, [r1], #4
 8000c28:	4562      	cmp	r2, ip
 8000c2a:	d3f8      	bcc.n	8000c1e <StartTask03+0xe6>
 8000c2c:	f00e 02fc 	and.w	r2, lr, #252	; 0xfc
 8000c30:	1c51      	adds	r1, r2, #1
 8000c32:	f01e 0f03 	tst.w	lr, #3
 8000c36:	b2c9      	uxtb	r1, r1
 8000c38:	d010      	beq.n	8000c5c <StartTask03+0x124>
 8000c3a:	1c90      	adds	r0, r2, #2
 8000c3c:	b2c0      	uxtb	r0, r0
 8000c3e:	5c6f      	ldrb	r7, [r5, r1]
 8000c40:	f808 7001 	strb.w	r7, [r8, r1]
 8000c44:	4283      	cmp	r3, r0
 8000c46:	d909      	bls.n	8000c5c <StartTask03+0x124>
 8000c48:	3203      	adds	r2, #3
 8000c4a:	b2d2      	uxtb	r2, r2
 8000c4c:	5c29      	ldrb	r1, [r5, r0]
 8000c4e:	f808 1000 	strb.w	r1, [r8, r0]
 8000c52:	4293      	cmp	r3, r2
 8000c54:	d902      	bls.n	8000c5c <StartTask03+0x124>
 8000c56:	5cab      	ldrb	r3, [r5, r2]
 8000c58:	f808 3002 	strb.w	r3, [r8, r2]
 8000c5c:	2701      	movs	r7, #1
 8000c5e:	e785      	b.n	8000b6c <StartTask03+0x34>
 8000c60:	2301      	movs	r3, #1
 8000c62:	f88a 3000 	strb.w	r3, [sl]
 8000c66:	e781      	b.n	8000b6c <StartTask03+0x34>
 8000c68:	2af0      	cmp	r2, #240	; 0xf0
 8000c6a:	f47f af7f 	bne.w	8000b6c <StartTask03+0x34>
 8000c6e:	f000 fa45 	bl	80010fc <slider_get_board_info>
 8000c72:	e77b      	b.n	8000b6c <StartTask03+0x34>
 8000c74:	2b01      	cmp	r3, #1
 8000c76:	f808 2009 	strb.w	r2, [r8, r9]
 8000c7a:	d02c      	beq.n	8000cd6 <StartTask03+0x19e>
 8000c7c:	f1a3 020a 	sub.w	r2, r3, #10
 8000c80:	2af5      	cmp	r2, #245	; 0xf5
 8000c82:	d82a      	bhi.n	8000cda <StartTask03+0x1a2>
 8000c84:	f103 3cff 	add.w	ip, r3, #4294967295
 8000c88:	f109 0101 	add.w	r1, r9, #1
 8000c8c:	4821      	ldr	r0, [pc, #132]	; (8000d14 <StartTask03+0x1dc>)
 8000c8e:	ea4f 079c 	mov.w	r7, ip, lsr #2
 8000c92:	4441      	add	r1, r8
 8000c94:	2200      	movs	r2, #0
 8000c96:	3201      	adds	r2, #1
 8000c98:	f850 eb04 	ldr.w	lr, [r0], #4
 8000c9c:	f841 eb04 	str.w	lr, [r1], #4
 8000ca0:	4297      	cmp	r7, r2
 8000ca2:	d8f8      	bhi.n	8000c96 <StartTask03+0x15e>
 8000ca4:	f00c 02fc 	and.w	r2, ip, #252	; 0xfc
 8000ca8:	1c51      	adds	r1, r2, #1
 8000caa:	f01c 0f03 	tst.w	ip, #3
 8000cae:	b2c9      	uxtb	r1, r1
 8000cb0:	d011      	beq.n	8000cd6 <StartTask03+0x19e>
 8000cb2:	1c90      	adds	r0, r2, #2
 8000cb4:	eb08 0709 	add.w	r7, r8, r9
 8000cb8:	b2c0      	uxtb	r0, r0
 8000cba:	f815 c001 	ldrb.w	ip, [r5, r1]
 8000cbe:	f807 c001 	strb.w	ip, [r7, r1]
 8000cc2:	4283      	cmp	r3, r0
 8000cc4:	d907      	bls.n	8000cd6 <StartTask03+0x19e>
 8000cc6:	3203      	adds	r2, #3
 8000cc8:	b2d2      	uxtb	r2, r2
 8000cca:	5c29      	ldrb	r1, [r5, r0]
 8000ccc:	5439      	strb	r1, [r7, r0]
 8000cce:	4293      	cmp	r3, r2
 8000cd0:	d901      	bls.n	8000cd6 <StartTask03+0x19e>
 8000cd2:	5cab      	ldrb	r3, [r5, r2]
 8000cd4:	54bb      	strb	r3, [r7, r2]
 8000cd6:	2700      	movs	r7, #0
 8000cd8:	e748      	b.n	8000b6c <StartTask03+0x34>
 8000cda:	4a10      	ldr	r2, [pc, #64]	; (8000d1c <StartTask03+0x1e4>)
 8000cdc:	eb08 0109 	add.w	r1, r8, r9
 8000ce0:	4413      	add	r3, r2
 8000ce2:	3201      	adds	r2, #1
 8000ce4:	f812 0f01 	ldrb.w	r0, [r2, #1]!
 8000ce8:	f801 0f01 	strb.w	r0, [r1, #1]!
 8000cec:	429a      	cmp	r2, r3
 8000cee:	d1f9      	bne.n	8000ce4 <StartTask03+0x1ac>
 8000cf0:	e7f1      	b.n	8000cd6 <StartTask03+0x19e>
 8000cf2:	4a0a      	ldr	r2, [pc, #40]	; (8000d1c <StartTask03+0x1e4>)
 8000cf4:	490a      	ldr	r1, [pc, #40]	; (8000d20 <StartTask03+0x1e8>)
 8000cf6:	4413      	add	r3, r2
 8000cf8:	3201      	adds	r2, #1
 8000cfa:	f812 0f01 	ldrb.w	r0, [r2, #1]!
 8000cfe:	f801 0f01 	strb.w	r0, [r1, #1]!
 8000d02:	4293      	cmp	r3, r2
 8000d04:	d1f9      	bne.n	8000cfa <StartTask03+0x1c2>
 8000d06:	e7a9      	b.n	8000c5c <StartTask03+0x124>
 8000d08:	20000cf4 	.word	0x20000cf4
 8000d0c:	20001cf4 	.word	0x20001cf4
 8000d10:	200000dc 	.word	0x200000dc
 8000d14:	20000cf5 	.word	0x20000cf5
 8000d18:	20000001 	.word	0x20000001
 8000d1c:	20000cf3 	.word	0x20000cf3
 8000d20:	20000000 	.word	0x20000000
 8000d24:	20001da0 	.word	0x20001da0
 8000d28:	40020800 	.word	0x40020800

08000d2c <MX_FREERTOS_Init>:
 8000d2c:	b510      	push	{r4, lr}
 8000d2e:	4a10      	ldr	r2, [pc, #64]	; (8000d70 <MX_FREERTOS_Init+0x44>)
 8000d30:	4810      	ldr	r0, [pc, #64]	; (8000d74 <MX_FREERTOS_Init+0x48>)
 8000d32:	2100      	movs	r1, #0
 8000d34:	f005 fffc 	bl	8006d30 <osThreadNew>
 8000d38:	4b0f      	ldr	r3, [pc, #60]	; (8000d78 <MX_FREERTOS_Init+0x4c>)
 8000d3a:	4a10      	ldr	r2, [pc, #64]	; (8000d7c <MX_FREERTOS_Init+0x50>)
 8000d3c:	4604      	mov	r4, r0
 8000d3e:	2100      	movs	r1, #0
 8000d40:	480f      	ldr	r0, [pc, #60]	; (8000d80 <MX_FREERTOS_Init+0x54>)
 8000d42:	601c      	str	r4, [r3, #0]
 8000d44:	f005 fff4 	bl	8006d30 <osThreadNew>
 8000d48:	4b0e      	ldr	r3, [pc, #56]	; (8000d84 <MX_FREERTOS_Init+0x58>)
 8000d4a:	4a0f      	ldr	r2, [pc, #60]	; (8000d88 <MX_FREERTOS_Init+0x5c>)
 8000d4c:	4604      	mov	r4, r0
 8000d4e:	2100      	movs	r1, #0
 8000d50:	480e      	ldr	r0, [pc, #56]	; (8000d8c <MX_FREERTOS_Init+0x60>)
 8000d52:	601c      	str	r4, [r3, #0]
 8000d54:	f005 ffec 	bl	8006d30 <osThreadNew>
 8000d58:	4b0d      	ldr	r3, [pc, #52]	; (8000d90 <MX_FREERTOS_Init+0x64>)
 8000d5a:	4a0e      	ldr	r2, [pc, #56]	; (8000d94 <MX_FREERTOS_Init+0x68>)
 8000d5c:	4604      	mov	r4, r0
 8000d5e:	2100      	movs	r1, #0
 8000d60:	480d      	ldr	r0, [pc, #52]	; (8000d98 <MX_FREERTOS_Init+0x6c>)
 8000d62:	601c      	str	r4, [r3, #0]
 8000d64:	f005 ffe4 	bl	8006d30 <osThreadNew>
 8000d68:	4b0c      	ldr	r3, [pc, #48]	; (8000d9c <MX_FREERTOS_Init+0x70>)
 8000d6a:	6018      	str	r0, [r3, #0]
 8000d6c:	bd10      	pop	{r4, pc}
 8000d6e:	bf00      	nop
 8000d70:	08009734 	.word	0x08009734
 8000d74:	0800082d 	.word	0x0800082d
 8000d78:	20000cf0 	.word	0x20000cf0
 8000d7c:	080096c8 	.word	0x080096c8
 8000d80:	080008f5 	.word	0x080008f5
 8000d84:	20000ce4 	.word	0x20000ce4
 8000d88:	080096ec 	.word	0x080096ec
 8000d8c:	08000b39 	.word	0x08000b39
 8000d90:	20000ce8 	.word	0x20000ce8
 8000d94:	08009710 	.word	0x08009710
 8000d98:	08000821 	.word	0x08000821
 8000d9c:	20000cec 	.word	0x20000cec

08000da0 <MX_GPIO_Init>:
 8000da0:	b510      	push	{r4, lr}
 8000da2:	2400      	movs	r4, #0
 8000da4:	b08a      	sub	sp, #40	; 0x28
 8000da6:	e9cd 4404 	strd	r4, r4, [sp, #16]
 8000daa:	e9cd 4406 	strd	r4, r4, [sp, #24]
 8000dae:	4b2d      	ldr	r3, [pc, #180]	; (8000e64 <MX_GPIO_Init+0xc4>)
 8000db0:	9400      	str	r4, [sp, #0]
 8000db2:	9408      	str	r4, [sp, #32]
 8000db4:	6b1a      	ldr	r2, [r3, #48]	; 0x30
 8000db6:	482c      	ldr	r0, [pc, #176]	; (8000e68 <MX_GPIO_Init+0xc8>)
 8000db8:	f042 0204 	orr.w	r2, r2, #4
 8000dbc:	631a      	str	r2, [r3, #48]	; 0x30
 8000dbe:	6b1a      	ldr	r2, [r3, #48]	; 0x30
 8000dc0:	f002 0204 	and.w	r2, r2, #4
 8000dc4:	9200      	str	r2, [sp, #0]
 8000dc6:	9a00      	ldr	r2, [sp, #0]
 8000dc8:	9401      	str	r4, [sp, #4]
 8000dca:	6b1a      	ldr	r2, [r3, #48]	; 0x30
 8000dcc:	f042 0280 	orr.w	r2, r2, #128	; 0x80
 8000dd0:	631a      	str	r2, [r3, #48]	; 0x30
 8000dd2:	6b1a      	ldr	r2, [r3, #48]	; 0x30
 8000dd4:	f002 0280 	and.w	r2, r2, #128	; 0x80
 8000dd8:	9201      	str	r2, [sp, #4]
 8000dda:	9a01      	ldr	r2, [sp, #4]
 8000ddc:	9402      	str	r4, [sp, #8]
 8000dde:	6b1a      	ldr	r2, [r3, #48]	; 0x30
 8000de0:	f042 0202 	orr.w	r2, r2, #2
 8000de4:	631a      	str	r2, [r3, #48]	; 0x30
 8000de6:	6b1a      	ldr	r2, [r3, #48]	; 0x30
 8000de8:	f002 0202 	and.w	r2, r2, #2
 8000dec:	9202      	str	r2, [sp, #8]
 8000dee:	9a02      	ldr	r2, [sp, #8]
 8000df0:	9403      	str	r4, [sp, #12]
 8000df2:	6b1a      	ldr	r2, [r3, #48]	; 0x30
 8000df4:	f042 0201 	orr.w	r2, r2, #1
 8000df8:	631a      	str	r2, [r3, #48]	; 0x30
 8000dfa:	6b1b      	ldr	r3, [r3, #48]	; 0x30
 8000dfc:	f003 0301 	and.w	r3, r3, #1
 8000e00:	9303      	str	r3, [sp, #12]
 8000e02:	4622      	mov	r2, r4
 8000e04:	f44f 5100 	mov.w	r1, #8192	; 0x2000
 8000e08:	9b03      	ldr	r3, [sp, #12]
 8000e0a:	f000 fee3 	bl	8001bd4 <HAL_GPIO_WritePin>
 8000e0e:	f44f 5200 	mov.w	r2, #8192	; 0x2000
 8000e12:	2301      	movs	r3, #1
 8000e14:	e9cd 2304 	strd	r2, r3, [sp, #16]
 8000e18:	a904      	add	r1, sp, #16
 8000e1a:	2201      	movs	r2, #1
 8000e1c:	2300      	movs	r3, #0
 8000e1e:	4812      	ldr	r0, [pc, #72]	; (8000e68 <MX_GPIO_Init+0xc8>)
 8000e20:	e9cd 2306 	strd	r2, r3, [sp, #24]
 8000e24:	f000 fde4 	bl	80019f0 <HAL_GPIO_Init>
 8000e28:	f248 0280 	movw	r2, #32896	; 0x8080
 8000e2c:	f44f 1304 	mov.w	r3, #2162688	; 0x210000
 8000e30:	e9cd 2304 	strd	r2, r3, [sp, #16]
 8000e34:	a904      	add	r1, sp, #16
 8000e36:	2301      	movs	r3, #1
 8000e38:	480c      	ldr	r0, [pc, #48]	; (8000e6c <MX_GPIO_Init+0xcc>)
 8000e3a:	9306      	str	r3, [sp, #24]
 8000e3c:	f000 fdd8 	bl	80019f0 <HAL_GPIO_Init>
 8000e40:	4622      	mov	r2, r4
 8000e42:	2105      	movs	r1, #5
 8000e44:	2017      	movs	r0, #23
 8000e46:	f000 fbad 	bl	80015a4 <HAL_NVIC_SetPriority>
 8000e4a:	2017      	movs	r0, #23
 8000e4c:	f000 fbe8 	bl	8001620 <HAL_NVIC_EnableIRQ>
 8000e50:	4622      	mov	r2, r4
 8000e52:	2105      	movs	r1, #5
 8000e54:	2028      	movs	r0, #40	; 0x28
 8000e56:	f000 fba5 	bl	80015a4 <HAL_NVIC_SetPriority>
 8000e5a:	2028      	movs	r0, #40	; 0x28
 8000e5c:	f000 fbe0 	bl	8001620 <HAL_NVIC_EnableIRQ>
 8000e60:	b00a      	add	sp, #40	; 0x28
 8000e62:	bd10      	pop	{r4, pc}
 8000e64:	40023800 	.word	0x40023800
 8000e68:	40020800 	.word	0x40020800
 8000e6c:	40020400 	.word	0x40020400

08000e70 <MX_I2C1_Init>:
 8000e70:	b510      	push	{r4, lr}
 8000e72:	480b      	ldr	r0, [pc, #44]	; (8000ea0 <MX_I2C1_Init+0x30>)
 8000e74:	4c0b      	ldr	r4, [pc, #44]	; (8000ea4 <MX_I2C1_Init+0x34>)
 8000e76:	490c      	ldr	r1, [pc, #48]	; (8000ea8 <MX_I2C1_Init+0x38>)
 8000e78:	2300      	movs	r3, #0
 8000e7a:	f44f 4280 	mov.w	r2, #16384	; 0x4000
 8000e7e:	e9c0 4100 	strd	r4, r1, [r0]
 8000e82:	e9c0 3302 	strd	r3, r3, [r0, #8]
 8000e86:	e9c0 2304 	strd	r2, r3, [r0, #16]
 8000e8a:	e9c0 3306 	strd	r3, r3, [r0, #24]
 8000e8e:	6203      	str	r3, [r0, #32]
 8000e90:	f001 f8fc 	bl	800208c <HAL_I2C_Init>
 8000e94:	b900      	cbnz	r0, 8000e98 <MX_I2C1_Init+0x28>
 8000e96:	bd10      	pop	{r4, pc}
 8000e98:	e8bd 4010 	ldmia.w	sp!, {r4, lr}
 8000e9c:	f000 b92c 	b.w	80010f8 <Error_Handler>
 8000ea0:	20001cf8 	.word	0x20001cf8
 8000ea4:	40005400 	.word	0x40005400
 8000ea8:	000186a0 	.word	0x000186a0

08000eac <MX_I2C3_Init>:
 8000eac:	b510      	push	{r4, lr}
 8000eae:	480b      	ldr	r0, [pc, #44]	; (8000edc <MX_I2C3_Init+0x30>)
 8000eb0:	4c0b      	ldr	r4, [pc, #44]	; (8000ee0 <MX_I2C3_Init+0x34>)
 8000eb2:	490c      	ldr	r1, [pc, #48]	; (8000ee4 <MX_I2C3_Init+0x38>)
 8000eb4:	2300      	movs	r3, #0
 8000eb6:	f44f 4280 	mov.w	r2, #16384	; 0x4000
 8000eba:	e9c0 4100 	strd	r4, r1, [r0]
 8000ebe:	e9c0 3302 	strd	r3, r3, [r0, #8]
 8000ec2:	e9c0 2304 	strd	r2, r3, [r0, #16]
 8000ec6:	e9c0 3306 	strd	r3, r3, [r0, #24]
 8000eca:	6203      	str	r3, [r0, #32]
 8000ecc:	f001 f8de 	bl	800208c <HAL_I2C_Init>
 8000ed0:	b900      	cbnz	r0, 8000ed4 <MX_I2C3_Init+0x28>
 8000ed2:	bd10      	pop	{r4, pc}
 8000ed4:	e8bd 4010 	ldmia.w	sp!, {r4, lr}
 8000ed8:	f000 b90e 	b.w	80010f8 <Error_Handler>
 8000edc:	20001d4c 	.word	0x20001d4c
 8000ee0:	40005c00 	.word	0x40005c00
 8000ee4:	000186a0 	.word	0x000186a0

08000ee8 <HAL_I2C_MspInit>:
 8000ee8:	b5f0      	push	{r4, r5, r6, r7, lr}
 8000eea:	6803      	ldr	r3, [r0, #0]
 8000eec:	4a38      	ldr	r2, [pc, #224]	; (8000fd0 <HAL_I2C_MspInit+0xe8>)
 8000eee:	b08d      	sub	sp, #52	; 0x34
 8000ef0:	2400      	movs	r4, #0
 8000ef2:	4293      	cmp	r3, r2
 8000ef4:	e9cd 4406 	strd	r4, r4, [sp, #24]
 8000ef8:	e9cd 4408 	strd	r4, r4, [sp, #32]
 8000efc:	940a      	str	r4, [sp, #40]	; 0x28
 8000efe:	d004      	beq.n	8000f0a <HAL_I2C_MspInit+0x22>
 8000f00:	4a34      	ldr	r2, [pc, #208]	; (8000fd4 <HAL_I2C_MspInit+0xec>)
 8000f02:	4293      	cmp	r3, r2
 8000f04:	d027      	beq.n	8000f56 <HAL_I2C_MspInit+0x6e>
 8000f06:	b00d      	add	sp, #52	; 0x34
 8000f08:	bdf0      	pop	{r4, r5, r6, r7, pc}
 8000f0a:	4d33      	ldr	r5, [pc, #204]	; (8000fd8 <HAL_I2C_MspInit+0xf0>)
 8000f0c:	9401      	str	r4, [sp, #4]
 8000f0e:	6b2b      	ldr	r3, [r5, #48]	; 0x30
 8000f10:	4832      	ldr	r0, [pc, #200]	; (8000fdc <HAL_I2C_MspInit+0xf4>)
 8000f12:	f043 0302 	orr.w	r3, r3, #2
 8000f16:	632b      	str	r3, [r5, #48]	; 0x30
 8000f18:	6b2b      	ldr	r3, [r5, #48]	; 0x30
 8000f1a:	f003 0302 	and.w	r3, r3, #2
 8000f1e:	9301      	str	r3, [sp, #4]
 8000f20:	f44f 7240 	mov.w	r2, #768	; 0x300
 8000f24:	2312      	movs	r3, #18
 8000f26:	e9cd 2306 	strd	r2, r3, [sp, #24]
 8000f2a:	2201      	movs	r2, #1
 8000f2c:	2303      	movs	r3, #3
 8000f2e:	e9cd 2308 	strd	r2, r3, [sp, #32]
 8000f32:	a906      	add	r1, sp, #24
 8000f34:	2304      	movs	r3, #4
 8000f36:	930a      	str	r3, [sp, #40]	; 0x28
 8000f38:	9a01      	ldr	r2, [sp, #4]
 8000f3a:	f000 fd59 	bl	80019f0 <HAL_GPIO_Init>
 8000f3e:	9402      	str	r4, [sp, #8]
 8000f40:	6c2b      	ldr	r3, [r5, #64]	; 0x40
 8000f42:	f443 1300 	orr.w	r3, r3, #2097152	; 0x200000
 8000f46:	642b      	str	r3, [r5, #64]	; 0x40
 8000f48:	6c2b      	ldr	r3, [r5, #64]	; 0x40
 8000f4a:	f403 1300 	and.w	r3, r3, #2097152	; 0x200000
 8000f4e:	9302      	str	r3, [sp, #8]
 8000f50:	9b02      	ldr	r3, [sp, #8]
 8000f52:	b00d      	add	sp, #52	; 0x34
 8000f54:	bdf0      	pop	{r4, r5, r6, r7, pc}
 8000f56:	4d20      	ldr	r5, [pc, #128]	; (8000fd8 <HAL_I2C_MspInit+0xf0>)
 8000f58:	9403      	str	r4, [sp, #12]
 8000f5a:	6b2b      	ldr	r3, [r5, #48]	; 0x30
 8000f5c:	4820      	ldr	r0, [pc, #128]	; (8000fe0 <HAL_I2C_MspInit+0xf8>)
 8000f5e:	f043 0301 	orr.w	r3, r3, #1
 8000f62:	632b      	str	r3, [r5, #48]	; 0x30
 8000f64:	6b2b      	ldr	r3, [r5, #48]	; 0x30
 8000f66:	f003 0301 	and.w	r3, r3, #1
 8000f6a:	9303      	str	r3, [sp, #12]
 8000f6c:	9b03      	ldr	r3, [sp, #12]
 8000f6e:	9404      	str	r4, [sp, #16]
 8000f70:	6b2b      	ldr	r3, [r5, #48]	; 0x30
 8000f72:	f043 0302 	orr.w	r3, r3, #2
 8000f76:	632b      	str	r3, [r5, #48]	; 0x30
 8000f78:	6b2b      	ldr	r3, [r5, #48]	; 0x30
 8000f7a:	f003 0302 	and.w	r3, r3, #2
 8000f7e:	9304      	str	r3, [sp, #16]
 8000f80:	f44f 7280 	mov.w	r2, #256	; 0x100
 8000f84:	2312      	movs	r3, #18
 8000f86:	e9cd 2306 	strd	r2, r3, [sp, #24]
 8000f8a:	2601      	movs	r6, #1
 8000f8c:	9b04      	ldr	r3, [sp, #16]
 8000f8e:	2703      	movs	r7, #3
 8000f90:	a906      	add	r1, sp, #24
 8000f92:	2304      	movs	r3, #4
 8000f94:	930a      	str	r3, [sp, #40]	; 0x28
 8000f96:	e9cd 6708 	strd	r6, r7, [sp, #32]
 8000f9a:	f000 fd29 	bl	80019f0 <HAL_GPIO_Init>
 8000f9e:	2309      	movs	r3, #9
 8000fa0:	930a      	str	r3, [sp, #40]	; 0x28
 8000fa2:	2210      	movs	r2, #16
 8000fa4:	2312      	movs	r3, #18
 8000fa6:	480d      	ldr	r0, [pc, #52]	; (8000fdc <HAL_I2C_MspInit+0xf4>)
 8000fa8:	a906      	add	r1, sp, #24
 8000faa:	e9cd 2306 	strd	r2, r3, [sp, #24]
 8000fae:	e9cd 6708 	strd	r6, r7, [sp, #32]
 8000fb2:	f000 fd1d 	bl	80019f0 <HAL_GPIO_Init>
 8000fb6:	9405      	str	r4, [sp, #20]
 8000fb8:	6c2b      	ldr	r3, [r5, #64]	; 0x40
 8000fba:	f443 0300 	orr.w	r3, r3, #8388608	; 0x800000
 8000fbe:	642b      	str	r3, [r5, #64]	; 0x40
 8000fc0:	6c2b      	ldr	r3, [r5, #64]	; 0x40
 8000fc2:	f403 0300 	and.w	r3, r3, #8388608	; 0x800000
 8000fc6:	9305      	str	r3, [sp, #20]
 8000fc8:	9b05      	ldr	r3, [sp, #20]
 8000fca:	b00d      	add	sp, #52	; 0x34
 8000fcc:	bdf0      	pop	{r4, r5, r6, r7, pc}
 8000fce:	bf00      	nop
 8000fd0:	40005400 	.word	0x40005400
 8000fd4:	40005c00 	.word	0x40005c00
 8000fd8:	40023800 	.word	0x40023800
 8000fdc:	40020400 	.word	0x40020400
 8000fe0:	40020000 	.word	0x40020000
 8000fe4:	00000000 	.word	0x00000000

08000fe8 <SystemClock_Config>:
 8000fe8:	b510      	push	{r4, lr}
 8000fea:	2300      	movs	r3, #0
 8000fec:	b094      	sub	sp, #80	; 0x50
 8000fee:	e9cd 330a 	strd	r3, r3, [sp, #40]	; 0x28
 8000ff2:	e9cd 330c 	strd	r3, r3, [sp, #48]	; 0x30
 8000ff6:	e9cd 3302 	strd	r3, r3, [sp, #8]
 8000ffa:	e9cd 3304 	strd	r3, r3, [sp, #16]
 8000ffe:	4926      	ldr	r1, [pc, #152]	; (8001098 <SystemClock_Config+0xb0>)
 8001000:	9300      	str	r3, [sp, #0]
 8001002:	9306      	str	r3, [sp, #24]
 8001004:	6c08      	ldr	r0, [r1, #64]	; 0x40
 8001006:	4a25      	ldr	r2, [pc, #148]	; (800109c <SystemClock_Config+0xb4>)
 8001008:	f040 5080 	orr.w	r0, r0, #268435456	; 0x10000000
 800100c:	6408      	str	r0, [r1, #64]	; 0x40
 800100e:	6c09      	ldr	r1, [r1, #64]	; 0x40
 8001010:	f001 5180 	and.w	r1, r1, #268435456	; 0x10000000
 8001014:	9100      	str	r1, [sp, #0]
 8001016:	9900      	ldr	r1, [sp, #0]
 8001018:	9301      	str	r3, [sp, #4]
 800101a:	6813      	ldr	r3, [r2, #0]
 800101c:	f443 4340 	orr.w	r3, r3, #49152	; 0xc000
 8001020:	6013      	str	r3, [r2, #0]
 8001022:	6813      	ldr	r3, [r2, #0]
 8001024:	ed9f 7b16 	vldr	d7, [pc, #88]	; 8001080 <SystemClock_Config+0x98>
 8001028:	f403 4340 	and.w	r3, r3, #49152	; 0xc000
 800102c:	2102      	movs	r1, #2
 800102e:	9301      	str	r3, [sp, #4]
 8001030:	f44f 0080 	mov.w	r0, #4194304	; 0x400000
 8001034:	2319      	movs	r3, #25
 8001036:	e9cd 100e 	strd	r1, r0, [sp, #56]	; 0x38
 800103a:	22c0      	movs	r2, #192	; 0xc0
 800103c:	9310      	str	r3, [sp, #64]	; 0x40
 800103e:	a808      	add	r0, sp, #32
 8001040:	2304      	movs	r3, #4
 8001042:	ed8d 7b08 	vstr	d7, [sp, #32]
 8001046:	e9cd 2111 	strd	r2, r1, [sp, #68]	; 0x44
 800104a:	9c01      	ldr	r4, [sp, #4]
 800104c:	9313      	str	r3, [sp, #76]	; 0x4c
 800104e:	f002 fb47 	bl	80036e0 <HAL_RCC_OscConfig>
 8001052:	b108      	cbz	r0, 8001058 <SystemClock_Config+0x70>
 8001054:	b672      	cpsid	i
 8001056:	e7fe      	b.n	8001056 <SystemClock_Config+0x6e>
 8001058:	ed9f 7b0b 	vldr	d7, [pc, #44]	; 8001088 <SystemClock_Config+0xa0>
 800105c:	ed8d 7b02 	vstr	d7, [sp, #8]
 8001060:	ed9f 7b0b 	vldr	d7, [pc, #44]	; 8001090 <SystemClock_Config+0xa8>
 8001064:	4603      	mov	r3, r0
 8001066:	2103      	movs	r1, #3
 8001068:	a802      	add	r0, sp, #8
 800106a:	ed8d 7b04 	vstr	d7, [sp, #16]
 800106e:	9306      	str	r3, [sp, #24]
 8001070:	f002 fd4e 	bl	8003b10 <HAL_RCC_ClockConfig>
 8001074:	b108      	cbz	r0, 800107a <SystemClock_Config+0x92>
 8001076:	b672      	cpsid	i
 8001078:	e7fe      	b.n	8001078 <SystemClock_Config+0x90>
 800107a:	b014      	add	sp, #80	; 0x50
 800107c:	bd10      	pop	{r4, pc}
 800107e:	bf00      	nop
 8001080:	00000001 	.word	0x00000001
 8001084:	00010000 	.word	0x00010000
 8001088:	0000000f 	.word	0x0000000f
 800108c:	00000002 	.word	0x00000002
 8001090:	00000000 	.word	0x00000000
 8001094:	00001000 	.word	0x00001000
 8001098:	40023800 	.word	0x40023800
 800109c:	40007000 	.word	0x40007000

080010a0 <main>:
 80010a0:	b508      	push	{r3, lr}
 80010a2:	f000 fa2f 	bl	8001504 <HAL_Init>
 80010a6:	f7ff ff9f 	bl	8000fe8 <SystemClock_Config>
 80010aa:	f7ff fe79 	bl	8000da0 <MX_GPIO_Init>
 80010ae:	f7ff fb71 	bl	8000794 <MX_DMA_Init>
 80010b2:	f7ff fedd 	bl	8000e70 <MX_I2C1_Init>
 80010b6:	f7ff fef9 	bl	8000eac <MX_I2C3_Init>
 80010ba:	f000 f98d 	bl	80013d8 <MX_USB_OTG_FS_PCD_Init>
 80010be:	f000 f8e3 	bl	8001288 <MX_TIM4_Init>
 80010c2:	f004 f9df 	bl	8005484 <MX_USB_DEVICE_Init>
 80010c6:	2201      	movs	r2, #1
 80010c8:	f44f 5100 	mov.w	r1, #8192	; 0x2000
 80010cc:	4804      	ldr	r0, [pc, #16]	; (80010e0 <main+0x40>)
 80010ce:	f000 fd81 	bl	8001bd4 <HAL_GPIO_WritePin>
 80010d2:	f005 fe01 	bl	8006cd8 <osKernelInitialize>
 80010d6:	f7ff fe29 	bl	8000d2c <MX_FREERTOS_Init>
 80010da:	f005 fe0f 	bl	8006cfc <osKernelStart>
 80010de:	e7fe      	b.n	80010de <main+0x3e>
 80010e0:	40020800 	.word	0x40020800

080010e4 <HAL_TIM_PeriodElapsedCallback>:
 80010e4:	4b03      	ldr	r3, [pc, #12]	; (80010f4 <HAL_TIM_PeriodElapsedCallback+0x10>)
 80010e6:	6802      	ldr	r2, [r0, #0]
 80010e8:	429a      	cmp	r2, r3
 80010ea:	d000      	beq.n	80010ee <HAL_TIM_PeriodElapsedCallback+0xa>
 80010ec:	4770      	bx	lr
 80010ee:	f000 ba23 	b.w	8001538 <HAL_IncTick>
 80010f2:	bf00      	nop
 80010f4:	40010000 	.word	0x40010000

080010f8 <Error_Handler>:
 80010f8:	b672      	cpsid	i
 80010fa:	e7fe      	b.n	80010fa <Error_Handler+0x2>

080010fc <slider_get_board_info>:
 80010fc:	4902      	ldr	r1, [pc, #8]	; (8001108 <slider_get_board_info+0xc>)
 80010fe:	2225      	movs	r2, #37	; 0x25
 8001100:	2000      	movs	r0, #0
 8001102:	f004 ba6f 	b.w	80055e4 <CDC_Transmit>
 8001106:	bf00      	nop
 8001108:	200000e0 	.word	0x200000e0

0800110c <HAL_MspInit>:
 800110c:	b082      	sub	sp, #8
 800110e:	4b0e      	ldr	r3, [pc, #56]	; (8001148 <HAL_MspInit+0x3c>)
 8001110:	2200      	movs	r2, #0
 8001112:	9200      	str	r2, [sp, #0]
 8001114:	6c59      	ldr	r1, [r3, #68]	; 0x44
 8001116:	f441 4180 	orr.w	r1, r1, #16384	; 0x4000
 800111a:	6459      	str	r1, [r3, #68]	; 0x44
 800111c:	6c58      	ldr	r0, [r3, #68]	; 0x44
 800111e:	f400 4080 	and.w	r0, r0, #16384	; 0x4000
 8001122:	9000      	str	r0, [sp, #0]
 8001124:	9800      	ldr	r0, [sp, #0]
 8001126:	9201      	str	r2, [sp, #4]
 8001128:	6c18      	ldr	r0, [r3, #64]	; 0x40
 800112a:	f040 5080 	orr.w	r0, r0, #268435456	; 0x10000000
 800112e:	6418      	str	r0, [r3, #64]	; 0x40
 8001130:	6c1b      	ldr	r3, [r3, #64]	; 0x40
 8001132:	f003 5380 	and.w	r3, r3, #268435456	; 0x10000000
 8001136:	9301      	str	r3, [sp, #4]
 8001138:	9b01      	ldr	r3, [sp, #4]
 800113a:	210f      	movs	r1, #15
 800113c:	f06f 0001 	mvn.w	r0, #1
 8001140:	b002      	add	sp, #8
 8001142:	f000 ba2f 	b.w	80015a4 <HAL_NVIC_SetPriority>
 8001146:	bf00      	nop
 8001148:	40023800 	.word	0x40023800

0800114c <HAL_InitTick>:
 800114c:	b570      	push	{r4, r5, r6, lr}
 800114e:	b088      	sub	sp, #32
 8001150:	2500      	movs	r5, #0
 8001152:	4b1f      	ldr	r3, [pc, #124]	; (80011d0 <HAL_InitTick+0x84>)
 8001154:	9502      	str	r5, [sp, #8]
 8001156:	6c5a      	ldr	r2, [r3, #68]	; 0x44
 8001158:	4c1e      	ldr	r4, [pc, #120]	; (80011d4 <HAL_InitTick+0x88>)
 800115a:	f042 0201 	orr.w	r2, r2, #1
 800115e:	645a      	str	r2, [r3, #68]	; 0x44
 8001160:	6c5b      	ldr	r3, [r3, #68]	; 0x44
 8001162:	f003 0301 	and.w	r3, r3, #1
 8001166:	a901      	add	r1, sp, #4
 8001168:	9302      	str	r3, [sp, #8]
 800116a:	4606      	mov	r6, r0
 800116c:	a803      	add	r0, sp, #12
 800116e:	9b02      	ldr	r3, [sp, #8]
 8001170:	f002 fd92 	bl	8003c98 <HAL_RCC_GetClockConfig>
 8001174:	f002 fd80 	bl	8003c78 <HAL_RCC_GetPCLK2Freq>
 8001178:	4a17      	ldr	r2, [pc, #92]	; (80011d8 <HAL_InitTick+0x8c>)
 800117a:	6022      	str	r2, [r4, #0]
 800117c:	4603      	mov	r3, r0
 800117e:	4817      	ldr	r0, [pc, #92]	; (80011dc <HAL_InitTick+0x90>)
 8001180:	6125      	str	r5, [r4, #16]
 8001182:	f240 32e7 	movw	r2, #999	; 0x3e7
 8001186:	60e2      	str	r2, [r4, #12]
 8001188:	fba0 2303 	umull	r2, r3, r0, r3
 800118c:	0c9b      	lsrs	r3, r3, #18
 800118e:	3b01      	subs	r3, #1
 8001190:	4620      	mov	r0, r4
 8001192:	e9c4 3501 	strd	r3, r5, [r4, #4]
 8001196:	61a5      	str	r5, [r4, #24]
 8001198:	f002 fda2 	bl	8003ce0 <HAL_TIM_Base_Init>
 800119c:	4605      	mov	r5, r0
 800119e:	b110      	cbz	r0, 80011a6 <HAL_InitTick+0x5a>
 80011a0:	4628      	mov	r0, r5
 80011a2:	b008      	add	sp, #32
 80011a4:	bd70      	pop	{r4, r5, r6, pc}
 80011a6:	4620      	mov	r0, r4
 80011a8:	f002 fe18 	bl	8003ddc <HAL_TIM_Base_Start_IT>
 80011ac:	4605      	mov	r5, r0
 80011ae:	2800      	cmp	r0, #0
 80011b0:	d1f6      	bne.n	80011a0 <HAL_InitTick+0x54>
 80011b2:	2019      	movs	r0, #25
 80011b4:	f000 fa34 	bl	8001620 <HAL_NVIC_EnableIRQ>
 80011b8:	2e0f      	cmp	r6, #15
 80011ba:	d901      	bls.n	80011c0 <HAL_InitTick+0x74>
 80011bc:	2501      	movs	r5, #1
 80011be:	e7ef      	b.n	80011a0 <HAL_InitTick+0x54>
 80011c0:	462a      	mov	r2, r5
 80011c2:	4631      	mov	r1, r6
 80011c4:	2019      	movs	r0, #25
 80011c6:	f000 f9ed 	bl	80015a4 <HAL_NVIC_SetPriority>
 80011ca:	4b05      	ldr	r3, [pc, #20]	; (80011e0 <HAL_InitTick+0x94>)
 80011cc:	601e      	str	r6, [r3, #0]
 80011ce:	e7e7      	b.n	80011a0 <HAL_InitTick+0x54>
 80011d0:	40023800 	.word	0x40023800
 80011d4:	20001da4 	.word	0x20001da4
 80011d8:	40010000 	.word	0x40010000
 80011dc:	431bde83 	.word	0x431bde83
 80011e0:	20000110 	.word	0x20000110

080011e4 <NMI_Handler>:
 80011e4:	e7fe      	b.n	80011e4 <NMI_Handler>
 80011e6:	bf00      	nop

080011e8 <HardFault_Handler>:
 80011e8:	e7fe      	b.n	80011e8 <HardFault_Handler>
 80011ea:	bf00      	nop

080011ec <MemManage_Handler>:
 80011ec:	e7fe      	b.n	80011ec <MemManage_Handler>
 80011ee:	bf00      	nop

080011f0 <BusFault_Handler>:
 80011f0:	e7fe      	b.n	80011f0 <BusFault_Handler>
 80011f2:	bf00      	nop

080011f4 <UsageFault_Handler>:
 80011f4:	e7fe      	b.n	80011f4 <UsageFault_Handler>
 80011f6:	bf00      	nop

080011f8 <DebugMon_Handler>:
 80011f8:	4770      	bx	lr
 80011fa:	bf00      	nop

080011fc <DMA1_Stream0_IRQHandler>:
 80011fc:	4801      	ldr	r0, [pc, #4]	; (8001204 <DMA1_Stream0_IRQHandler+0x8>)
 80011fe:	f000 bb07 	b.w	8001810 <HAL_DMA_IRQHandler>
 8001202:	bf00      	nop
 8001204:	20001df0 	.word	0x20001df0

08001208 <EXTI9_5_IRQHandler>:
 8001208:	2080      	movs	r0, #128	; 0x80
 800120a:	f000 bce9 	b.w	8001be0 <HAL_GPIO_EXTI_IRQHandler>
 800120e:	bf00      	nop

08001210 <TIM1_UP_TIM10_IRQHandler>:
 8001210:	4801      	ldr	r0, [pc, #4]	; (8001218 <TIM1_UP_TIM10_IRQHandler+0x8>)
 8001212:	f003 b997 	b.w	8004544 <HAL_TIM_IRQHandler>
 8001216:	bf00      	nop
 8001218:	20001da4 	.word	0x20001da4

0800121c <EXTI15_10_IRQHandler>:
 800121c:	f44f 4000 	mov.w	r0, #32768	; 0x8000
 8001220:	f000 bcde 	b.w	8001be0 <HAL_GPIO_EXTI_IRQHandler>

08001224 <OTG_FS_IRQHandler>:
 8001224:	4801      	ldr	r0, [pc, #4]	; (800122c <OTG_FS_IRQHandler+0x8>)
 8001226:	f001 bb49 	b.w	80028bc <HAL_PCD_IRQHandler>
 800122a:	bf00      	nop
 800122c:	20001e98 	.word	0x20001e98

08001230 <_sbrk>:
 8001230:	b510      	push	{r4, lr}
 8001232:	4c0c      	ldr	r4, [pc, #48]	; (8001264 <_sbrk+0x34>)
 8001234:	4b0c      	ldr	r3, [pc, #48]	; (8001268 <_sbrk+0x38>)
 8001236:	490d      	ldr	r1, [pc, #52]	; (800126c <_sbrk+0x3c>)
 8001238:	6822      	ldr	r2, [r4, #0]
 800123a:	1a59      	subs	r1, r3, r1
 800123c:	b12a      	cbz	r2, 800124a <_sbrk+0x1a>
 800123e:	4410      	add	r0, r2
 8001240:	4288      	cmp	r0, r1
 8001242:	d807      	bhi.n	8001254 <_sbrk+0x24>
 8001244:	6020      	str	r0, [r4, #0]
 8001246:	4610      	mov	r0, r2
 8001248:	bd10      	pop	{r4, pc}
 800124a:	4a09      	ldr	r2, [pc, #36]	; (8001270 <_sbrk+0x40>)
 800124c:	6022      	str	r2, [r4, #0]
 800124e:	4410      	add	r0, r2
 8001250:	4288      	cmp	r0, r1
 8001252:	d9f7      	bls.n	8001244 <_sbrk+0x14>
 8001254:	f007 fd02 	bl	8008c5c <__errno>
 8001258:	230c      	movs	r3, #12
 800125a:	f04f 32ff 	mov.w	r2, #4294967295
 800125e:	6003      	str	r3, [r0, #0]
 8001260:	4610      	mov	r0, r2
 8001262:	bd10      	pop	{r4, pc}
 8001264:	20001dec 	.word	0x20001dec
 8001268:	20020000 	.word	0x20020000
 800126c:	00004000 	.word	0x00004000
 8001270:	20007600 	.word	0x20007600

08001274 <SystemInit>:
 8001274:	4a03      	ldr	r2, [pc, #12]	; (8001284 <SystemInit+0x10>)
 8001276:	f8d2 3088 	ldr.w	r3, [r2, #136]	; 0x88
 800127a:	f443 0370 	orr.w	r3, r3, #15728640	; 0xf00000
 800127e:	f8c2 3088 	str.w	r3, [r2, #136]	; 0x88
 8001282:	4770      	bx	lr
 8001284:	e000ed00 	.word	0xe000ed00

08001288 <MX_TIM4_Init>:
 8001288:	b510      	push	{r4, lr}
 800128a:	4c31      	ldr	r4, [pc, #196]	; (8001350 <MX_TIM4_Init+0xc8>)
 800128c:	4a31      	ldr	r2, [pc, #196]	; (8001354 <MX_TIM4_Init+0xcc>)
 800128e:	6022      	str	r2, [r4, #0]
 8001290:	b092      	sub	sp, #72	; 0x48
 8001292:	2300      	movs	r3, #0
 8001294:	2277      	movs	r2, #119	; 0x77
 8001296:	4620      	mov	r0, r4
 8001298:	e9cd 3302 	strd	r3, r3, [sp, #8]
 800129c:	e9cd 330a 	strd	r3, r3, [sp, #40]	; 0x28
 80012a0:	e9cd 330c 	strd	r3, r3, [sp, #48]	; 0x30
 80012a4:	e9cd 330e 	strd	r3, r3, [sp, #56]	; 0x38
 80012a8:	e9c4 3301 	strd	r3, r3, [r4, #4]
 80012ac:	9310      	str	r3, [sp, #64]	; 0x40
 80012ae:	60e2      	str	r2, [r4, #12]
 80012b0:	6123      	str	r3, [r4, #16]
 80012b2:	61a3      	str	r3, [r4, #24]
 80012b4:	f002 fdc6 	bl	8003e44 <HAL_TIM_PWM_Init>
 80012b8:	bb00      	cbnz	r0, 80012fc <MX_TIM4_Init+0x74>
 80012ba:	2200      	movs	r2, #0
 80012bc:	2300      	movs	r3, #0
 80012be:	4824      	ldr	r0, [pc, #144]	; (8001350 <MX_TIM4_Init+0xc8>)
 80012c0:	a902      	add	r1, sp, #8
 80012c2:	e9cd 2302 	strd	r2, r3, [sp, #8]
 80012c6:	f003 fa2b 	bl	8004720 <HAL_TIMEx_MasterConfigSynchronization>
 80012ca:	b9e8      	cbnz	r0, 8001308 <MX_TIM4_Init+0x80>
 80012cc:	ed9f 7b1c 	vldr	d7, [pc, #112]	; 8001340 <MX_TIM4_Init+0xb8>
 80012d0:	2200      	movs	r2, #0
 80012d2:	481f      	ldr	r0, [pc, #124]	; (8001350 <MX_TIM4_Init+0xc8>)
 80012d4:	920c      	str	r2, [sp, #48]	; 0x30
 80012d6:	a90a      	add	r1, sp, #40	; 0x28
 80012d8:	ed8d 7b0a 	vstr	d7, [sp, #40]	; 0x28
 80012dc:	920e      	str	r2, [sp, #56]	; 0x38
 80012de:	f002 ffb3 	bl	8004248 <HAL_TIM_PWM_ConfigChannel>
 80012e2:	b970      	cbnz	r0, 8001302 <MX_TIM4_Init+0x7a>
 80012e4:	4a1b      	ldr	r2, [pc, #108]	; (8001354 <MX_TIM4_Init+0xcc>)
 80012e6:	6821      	ldr	r1, [r4, #0]
 80012e8:	2300      	movs	r3, #0
 80012ea:	4291      	cmp	r1, r2
 80012ec:	e9cd 3304 	strd	r3, r3, [sp, #16]
 80012f0:	e9cd 3306 	strd	r3, r3, [sp, #24]
 80012f4:	9308      	str	r3, [sp, #32]
 80012f6:	d00a      	beq.n	800130e <MX_TIM4_Init+0x86>
 80012f8:	b012      	add	sp, #72	; 0x48
 80012fa:	bd10      	pop	{r4, pc}
 80012fc:	f7ff fefc 	bl	80010f8 <Error_Handler>
 8001300:	e7db      	b.n	80012ba <MX_TIM4_Init+0x32>
 8001302:	f7ff fef9 	bl	80010f8 <Error_Handler>
 8001306:	e7ed      	b.n	80012e4 <MX_TIM4_Init+0x5c>
 8001308:	f7ff fef6 	bl	80010f8 <Error_Handler>
 800130c:	e7de      	b.n	80012cc <MX_TIM4_Init+0x44>
 800130e:	f502 320c 	add.w	r2, r2, #143360	; 0x23000
 8001312:	9301      	str	r3, [sp, #4]
 8001314:	6b13      	ldr	r3, [r2, #48]	; 0x30
 8001316:	4810      	ldr	r0, [pc, #64]	; (8001358 <MX_TIM4_Init+0xd0>)
 8001318:	f043 0302 	orr.w	r3, r3, #2
 800131c:	6313      	str	r3, [r2, #48]	; 0x30
 800131e:	6b13      	ldr	r3, [r2, #48]	; 0x30
 8001320:	ed9f 7b09 	vldr	d7, [pc, #36]	; 8001348 <MX_TIM4_Init+0xc0>
 8001324:	f003 0302 	and.w	r3, r3, #2
 8001328:	9301      	str	r3, [sp, #4]
 800132a:	a904      	add	r1, sp, #16
 800132c:	2302      	movs	r3, #2
 800132e:	ed8d 7b04 	vstr	d7, [sp, #16]
 8001332:	9a01      	ldr	r2, [sp, #4]
 8001334:	9308      	str	r3, [sp, #32]
 8001336:	f000 fb5b 	bl	80019f0 <HAL_GPIO_Init>
 800133a:	b012      	add	sp, #72	; 0x48
 800133c:	bd10      	pop	{r4, pc}
 800133e:	bf00      	nop
 8001340:	00000060 	.word	0x00000060
 8001344:	00000000 	.word	0x00000000
 8001348:	00000040 	.word	0x00000040
 800134c:	00000002 	.word	0x00000002
 8001350:	20001e50 	.word	0x20001e50
 8001354:	40000800 	.word	0x40000800
 8001358:	40020400 	.word	0x40020400

0800135c <HAL_TIM_PWM_MspInit>:
 800135c:	4b1a      	ldr	r3, [pc, #104]	; (80013c8 <HAL_TIM_PWM_MspInit+0x6c>)
 800135e:	6802      	ldr	r2, [r0, #0]
 8001360:	429a      	cmp	r2, r3
 8001362:	d000      	beq.n	8001366 <HAL_TIM_PWM_MspInit+0xa>
 8001364:	4770      	bx	lr
 8001366:	b530      	push	{r4, r5, lr}
 8001368:	b083      	sub	sp, #12
 800136a:	2300      	movs	r3, #0
 800136c:	4a17      	ldr	r2, [pc, #92]	; (80013cc <HAL_TIM_PWM_MspInit+0x70>)
 800136e:	9301      	str	r3, [sp, #4]
 8001370:	6c11      	ldr	r1, [r2, #64]	; 0x40
 8001372:	4d17      	ldr	r5, [pc, #92]	; (80013d0 <HAL_TIM_PWM_MspInit+0x74>)
 8001374:	f041 0104 	orr.w	r1, r1, #4
 8001378:	6411      	str	r1, [r2, #64]	; 0x40
 800137a:	6c12      	ldr	r2, [r2, #64]	; 0x40
 800137c:	4915      	ldr	r1, [pc, #84]	; (80013d4 <HAL_TIM_PWM_MspInit+0x78>)
 800137e:	60eb      	str	r3, [r5, #12]
 8001380:	f002 0204 	and.w	r2, r2, #4
 8001384:	9201      	str	r2, [sp, #4]
 8001386:	f04f 6280 	mov.w	r2, #67108864	; 0x4000000
 800138a:	e9c5 1200 	strd	r1, r2, [r5]
 800138e:	2140      	movs	r1, #64	; 0x40
 8001390:	f44f 6280 	mov.w	r2, #1024	; 0x400
 8001394:	60a9      	str	r1, [r5, #8]
 8001396:	612a      	str	r2, [r5, #16]
 8001398:	f44f 6100 	mov.w	r1, #2048	; 0x800
 800139c:	f44f 5200 	mov.w	r2, #8192	; 0x2000
 80013a0:	e9c5 1205 	strd	r1, r2, [r5, #20]
 80013a4:	4604      	mov	r4, r0
 80013a6:	f44f 3200 	mov.w	r2, #131072	; 0x20000
 80013aa:	9801      	ldr	r0, [sp, #4]
 80013ac:	626b      	str	r3, [r5, #36]	; 0x24
 80013ae:	4628      	mov	r0, r5
 80013b0:	e9c5 3207 	strd	r3, r2, [r5, #28]
 80013b4:	f000 f942 	bl	800163c <HAL_DMA_Init>
 80013b8:	b918      	cbnz	r0, 80013c2 <HAL_TIM_PWM_MspInit+0x66>
 80013ba:	6265      	str	r5, [r4, #36]	; 0x24
 80013bc:	63ac      	str	r4, [r5, #56]	; 0x38
 80013be:	b003      	add	sp, #12
 80013c0:	bd30      	pop	{r4, r5, pc}
 80013c2:	f7ff fe99 	bl	80010f8 <Error_Handler>
 80013c6:	e7f8      	b.n	80013ba <HAL_TIM_PWM_MspInit+0x5e>
 80013c8:	40000800 	.word	0x40000800
 80013cc:	40023800 	.word	0x40023800
 80013d0:	20001df0 	.word	0x20001df0
 80013d4:	40026010 	.word	0x40026010

080013d8 <MX_USB_OTG_FS_PCD_Init>:
 80013d8:	ed9f 7b0f 	vldr	d7, [pc, #60]	; 8001418 <MX_USB_OTG_FS_PCD_Init+0x40>
 80013dc:	4812      	ldr	r0, [pc, #72]	; (8001428 <MX_USB_OTG_FS_PCD_Init+0x50>)
 80013de:	b510      	push	{r4, lr}
 80013e0:	ed80 7b06 	vstr	d7, [r0, #24]
 80013e4:	ed9f 7b0e 	vldr	d7, [pc, #56]	; 8001420 <MX_USB_OTG_FS_PCD_Init+0x48>
 80013e8:	2300      	movs	r3, #0
 80013ea:	f04f 44a0 	mov.w	r4, #1342177280	; 0x50000000
 80013ee:	2104      	movs	r1, #4
 80013f0:	2202      	movs	r2, #2
 80013f2:	ed80 7b08 	vstr	d7, [r0, #32]
 80013f6:	e9c0 4100 	strd	r4, r1, [r0]
 80013fa:	e9c0 2303 	strd	r2, r3, [r0, #12]
 80013fe:	e9c0 330b 	strd	r3, r3, [r0, #44]	; 0x2c
 8001402:	f001 f9ad 	bl	8002760 <HAL_PCD_Init>
 8001406:	b900      	cbnz	r0, 800140a <MX_USB_OTG_FS_PCD_Init+0x32>
 8001408:	bd10      	pop	{r4, pc}
 800140a:	e8bd 4010 	ldmia.w	sp!, {r4, lr}
 800140e:	f7ff be73 	b.w	80010f8 <Error_Handler>
 8001412:	bf00      	nop
 8001414:	f3af 8000 	nop.w
 8001418:	00000002 	.word	0x00000002
	...
 8001428:	20001e98 	.word	0x20001e98

0800142c <HAL_PCD_MspInit>:
 800142c:	b530      	push	{r4, r5, lr}
 800142e:	6803      	ldr	r3, [r0, #0]
 8001430:	b089      	sub	sp, #36	; 0x24
 8001432:	2400      	movs	r4, #0
 8001434:	f1b3 4fa0 	cmp.w	r3, #1342177280	; 0x50000000
 8001438:	e9cd 4402 	strd	r4, r4, [sp, #8]
 800143c:	e9cd 4404 	strd	r4, r4, [sp, #16]
 8001440:	9406      	str	r4, [sp, #24]
 8001442:	d001      	beq.n	8001448 <HAL_PCD_MspInit+0x1c>
 8001444:	b009      	add	sp, #36	; 0x24
 8001446:	bd30      	pop	{r4, r5, pc}
 8001448:	4d17      	ldr	r5, [pc, #92]	; (80014a8 <HAL_PCD_MspInit+0x7c>)
 800144a:	9400      	str	r4, [sp, #0]
 800144c:	6b2b      	ldr	r3, [r5, #48]	; 0x30
 800144e:	4817      	ldr	r0, [pc, #92]	; (80014ac <HAL_PCD_MspInit+0x80>)
 8001450:	f043 0301 	orr.w	r3, r3, #1
 8001454:	632b      	str	r3, [r5, #48]	; 0x30
 8001456:	6b2b      	ldr	r3, [r5, #48]	; 0x30
 8001458:	f003 0301 	and.w	r3, r3, #1
 800145c:	9300      	str	r3, [sp, #0]
 800145e:	f44f 52c0 	mov.w	r2, #6144	; 0x1800
 8001462:	2302      	movs	r3, #2
 8001464:	e9cd 2302 	strd	r2, r3, [sp, #8]
 8001468:	2303      	movs	r3, #3
 800146a:	a902      	add	r1, sp, #8
 800146c:	9305      	str	r3, [sp, #20]
 800146e:	230a      	movs	r3, #10
 8001470:	9a00      	ldr	r2, [sp, #0]
 8001472:	9306      	str	r3, [sp, #24]
 8001474:	f000 fabc 	bl	80019f0 <HAL_GPIO_Init>
 8001478:	6b6b      	ldr	r3, [r5, #52]	; 0x34
 800147a:	f043 0380 	orr.w	r3, r3, #128	; 0x80
 800147e:	636b      	str	r3, [r5, #52]	; 0x34
 8001480:	9401      	str	r4, [sp, #4]
 8001482:	6c6b      	ldr	r3, [r5, #68]	; 0x44
 8001484:	f443 4380 	orr.w	r3, r3, #16384	; 0x4000
 8001488:	646b      	str	r3, [r5, #68]	; 0x44
 800148a:	6c6b      	ldr	r3, [r5, #68]	; 0x44
 800148c:	f403 4380 	and.w	r3, r3, #16384	; 0x4000
 8001490:	4622      	mov	r2, r4
 8001492:	2105      	movs	r1, #5
 8001494:	9301      	str	r3, [sp, #4]
 8001496:	2043      	movs	r0, #67	; 0x43
 8001498:	9b01      	ldr	r3, [sp, #4]
 800149a:	f000 f883 	bl	80015a4 <HAL_NVIC_SetPriority>
 800149e:	2043      	movs	r0, #67	; 0x43
 80014a0:	f000 f8be 	bl	8001620 <HAL_NVIC_EnableIRQ>
 80014a4:	b009      	add	sp, #36	; 0x24
 80014a6:	bd30      	pop	{r4, r5, pc}
 80014a8:	40023800 	.word	0x40023800
 80014ac:	40020000 	.word	0x40020000

080014b0 <Reset_Handler>:
 80014b0:	f8df d034 	ldr.w	sp, [pc, #52]	; 80014e8 <LoopFillZerobss+0x12>
 80014b4:	480d      	ldr	r0, [pc, #52]	; (80014ec <LoopFillZerobss+0x16>)
 80014b6:	490e      	ldr	r1, [pc, #56]	; (80014f0 <LoopFillZerobss+0x1a>)
 80014b8:	4a0e      	ldr	r2, [pc, #56]	; (80014f4 <LoopFillZerobss+0x1e>)
 80014ba:	2300      	movs	r3, #0
 80014bc:	e002      	b.n	80014c4 <LoopCopyDataInit>

080014be <CopyDataInit>:
 80014be:	58d4      	ldr	r4, [r2, r3]
 80014c0:	50c4      	str	r4, [r0, r3]
 80014c2:	3304      	adds	r3, #4

080014c4 <LoopCopyDataInit>:
 80014c4:	18c4      	adds	r4, r0, r3
 80014c6:	428c      	cmp	r4, r1
 80014c8:	d3f9      	bcc.n	80014be <CopyDataInit>
 80014ca:	4a0b      	ldr	r2, [pc, #44]	; (80014f8 <LoopFillZerobss+0x22>)
 80014cc:	4c0b      	ldr	r4, [pc, #44]	; (80014fc <LoopFillZerobss+0x26>)
 80014ce:	2300      	movs	r3, #0
 80014d0:	e001      	b.n	80014d6 <LoopFillZerobss>

080014d2 <FillZerobss>:
 80014d2:	6013      	str	r3, [r2, #0]
 80014d4:	3204      	adds	r2, #4

080014d6 <LoopFillZerobss>:
 80014d6:	42a2      	cmp	r2, r4
 80014d8:	d3fb      	bcc.n	80014d2 <FillZerobss>
 80014da:	f7ff fecb 	bl	8001274 <SystemInit>
 80014de:	f007 fbc3 	bl	8008c68 <__libc_init_array>
 80014e2:	f7ff fddd 	bl	80010a0 <main>
 80014e6:	4770      	bx	lr
 80014e8:	20020000 	.word	0x20020000
 80014ec:	20000000 	.word	0x20000000
 80014f0:	20000460 	.word	0x20000460
 80014f4:	08009844 	.word	0x08009844
 80014f8:	20000460 	.word	0x20000460
 80014fc:	20007600 	.word	0x20007600

08001500 <ADC_IRQHandler>:
 8001500:	e7fe      	b.n	8001500 <ADC_IRQHandler>
	...

08001504 <HAL_Init>:
 8001504:	b508      	push	{r3, lr}
 8001506:	4b0b      	ldr	r3, [pc, #44]	; (8001534 <HAL_Init+0x30>)
 8001508:	681a      	ldr	r2, [r3, #0]
 800150a:	f442 7200 	orr.w	r2, r2, #512	; 0x200
 800150e:	601a      	str	r2, [r3, #0]
 8001510:	681a      	ldr	r2, [r3, #0]
 8001512:	f442 6280 	orr.w	r2, r2, #1024	; 0x400
 8001516:	601a      	str	r2, [r3, #0]
 8001518:	681a      	ldr	r2, [r3, #0]
 800151a:	f442 7280 	orr.w	r2, r2, #256	; 0x100
 800151e:	601a      	str	r2, [r3, #0]
 8001520:	2003      	movs	r0, #3
 8001522:	f000 f82d 	bl	8001580 <HAL_NVIC_SetPriorityGrouping>
 8001526:	200f      	movs	r0, #15
 8001528:	f7ff fe10 	bl	800114c <HAL_InitTick>
 800152c:	f7ff fdee 	bl	800110c <HAL_MspInit>
 8001530:	2000      	movs	r0, #0
 8001532:	bd08      	pop	{r3, pc}
 8001534:	40023c00 	.word	0x40023c00

08001538 <HAL_IncTick>:
 8001538:	4a03      	ldr	r2, [pc, #12]	; (8001548 <HAL_IncTick+0x10>)
 800153a:	4b04      	ldr	r3, [pc, #16]	; (800154c <HAL_IncTick+0x14>)
 800153c:	6811      	ldr	r1, [r2, #0]
 800153e:	781b      	ldrb	r3, [r3, #0]
 8001540:	440b      	add	r3, r1
 8001542:	6013      	str	r3, [r2, #0]
 8001544:	4770      	bx	lr
 8001546:	bf00      	nop
 8001548:	200023a4 	.word	0x200023a4
 800154c:	2000010c 	.word	0x2000010c

08001550 <HAL_GetTick>:
 8001550:	4b01      	ldr	r3, [pc, #4]	; (8001558 <HAL_GetTick+0x8>)
 8001552:	6818      	ldr	r0, [r3, #0]
 8001554:	4770      	bx	lr
 8001556:	bf00      	nop
 8001558:	200023a4 	.word	0x200023a4

0800155c <HAL_Delay>:
 800155c:	b538      	push	{r3, r4, r5, lr}
 800155e:	4604      	mov	r4, r0
 8001560:	f7ff fff6 	bl	8001550 <HAL_GetTick>
 8001564:	1c63      	adds	r3, r4, #1
 8001566:	4605      	mov	r5, r0
 8001568:	d002      	beq.n	8001570 <HAL_Delay+0x14>
 800156a:	4b04      	ldr	r3, [pc, #16]	; (800157c <HAL_Delay+0x20>)
 800156c:	781b      	ldrb	r3, [r3, #0]
 800156e:	441c      	add	r4, r3
 8001570:	f7ff ffee 	bl	8001550 <HAL_GetTick>
 8001574:	1b43      	subs	r3, r0, r5
 8001576:	42a3      	cmp	r3, r4
 8001578:	d3fa      	bcc.n	8001570 <HAL_Delay+0x14>
 800157a:	bd38      	pop	{r3, r4, r5, pc}
 800157c:	2000010c 	.word	0x2000010c

08001580 <HAL_NVIC_SetPriorityGrouping>:
 8001580:	4907      	ldr	r1, [pc, #28]	; (80015a0 <HAL_NVIC_SetPriorityGrouping+0x20>)
 8001582:	68ca      	ldr	r2, [r1, #12]
 8001584:	0203      	lsls	r3, r0, #8
 8001586:	f64f 00ff 	movw	r0, #63743	; 0xf8ff
 800158a:	f403 63e0 	and.w	r3, r3, #1792	; 0x700
 800158e:	4002      	ands	r2, r0
 8001590:	4313      	orrs	r3, r2
 8001592:	f043 63bf 	orr.w	r3, r3, #100139008	; 0x5f80000
 8001596:	f443 3300 	orr.w	r3, r3, #131072	; 0x20000
 800159a:	60cb      	str	r3, [r1, #12]
 800159c:	4770      	bx	lr
 800159e:	bf00      	nop
 80015a0:	e000ed00 	.word	0xe000ed00

080015a4 <HAL_NVIC_SetPriority>:
 80015a4:	4b1c      	ldr	r3, [pc, #112]	; (8001618 <HAL_NVIC_SetPriority+0x74>)
 80015a6:	68db      	ldr	r3, [r3, #12]
 80015a8:	f3c3 2302 	ubfx	r3, r3, #8, #3
 80015ac:	b500      	push	{lr}
 80015ae:	f1c3 0e07 	rsb	lr, r3, #7
 80015b2:	f1be 0f04 	cmp.w	lr, #4
 80015b6:	f103 0c04 	add.w	ip, r3, #4
 80015ba:	bf28      	it	cs
 80015bc:	f04f 0e04 	movcs.w	lr, #4
 80015c0:	f1bc 0f06 	cmp.w	ip, #6
 80015c4:	d91b      	bls.n	80015fe <HAL_NVIC_SetPriority+0x5a>
 80015c6:	3b03      	subs	r3, #3
 80015c8:	f04f 3cff 	mov.w	ip, #4294967295
 80015cc:	fa0c fc03 	lsl.w	ip, ip, r3
 80015d0:	ea22 020c 	bic.w	r2, r2, ip
 80015d4:	f04f 3cff 	mov.w	ip, #4294967295
 80015d8:	fa0c fc0e 	lsl.w	ip, ip, lr
 80015dc:	ea21 010c 	bic.w	r1, r1, ip
 80015e0:	4099      	lsls	r1, r3
 80015e2:	2800      	cmp	r0, #0
 80015e4:	ea41 0102 	orr.w	r1, r1, r2
 80015e8:	db0c      	blt.n	8001604 <HAL_NVIC_SetPriority+0x60>
 80015ea:	f100 4060 	add.w	r0, r0, #3758096384	; 0xe0000000
 80015ee:	0109      	lsls	r1, r1, #4
 80015f0:	f500 4061 	add.w	r0, r0, #57600	; 0xe100
 80015f4:	b2c9      	uxtb	r1, r1
 80015f6:	f880 1300 	strb.w	r1, [r0, #768]	; 0x300
 80015fa:	f85d fb04 	ldr.w	pc, [sp], #4
 80015fe:	2200      	movs	r2, #0
 8001600:	4613      	mov	r3, r2
 8001602:	e7e7      	b.n	80015d4 <HAL_NVIC_SetPriority+0x30>
 8001604:	4b05      	ldr	r3, [pc, #20]	; (800161c <HAL_NVIC_SetPriority+0x78>)
 8001606:	f000 000f 	and.w	r0, r0, #15
 800160a:	0109      	lsls	r1, r1, #4
 800160c:	4403      	add	r3, r0
 800160e:	b2c9      	uxtb	r1, r1
 8001610:	7619      	strb	r1, [r3, #24]
 8001612:	f85d fb04 	ldr.w	pc, [sp], #4
 8001616:	bf00      	nop
 8001618:	e000ed00 	.word	0xe000ed00
 800161c:	e000ecfc 	.word	0xe000ecfc

08001620 <HAL_NVIC_EnableIRQ>:
 8001620:	2800      	cmp	r0, #0
 8001622:	db08      	blt.n	8001636 <HAL_NVIC_EnableIRQ+0x16>
 8001624:	0941      	lsrs	r1, r0, #5
 8001626:	4a04      	ldr	r2, [pc, #16]	; (8001638 <HAL_NVIC_EnableIRQ+0x18>)
 8001628:	f000 001f 	and.w	r0, r0, #31
 800162c:	2301      	movs	r3, #1
 800162e:	fa03 f000 	lsl.w	r0, r3, r0
 8001632:	f842 0021 	str.w	r0, [r2, r1, lsl #2]
 8001636:	4770      	bx	lr
 8001638:	e000e100 	.word	0xe000e100

0800163c <HAL_DMA_Init>:
 800163c:	b538      	push	{r3, r4, r5, lr}
 800163e:	4604      	mov	r4, r0
 8001640:	f7ff ff86 	bl	8001550 <HAL_GetTick>
 8001644:	2c00      	cmp	r4, #0
 8001646:	d052      	beq.n	80016ee <HAL_DMA_Init+0xb2>
 8001648:	6823      	ldr	r3, [r4, #0]
 800164a:	2200      	movs	r2, #0
 800164c:	2102      	movs	r1, #2
 800164e:	f884 1035 	strb.w	r1, [r4, #53]	; 0x35
 8001652:	f884 2034 	strb.w	r2, [r4, #52]	; 0x34
 8001656:	681a      	ldr	r2, [r3, #0]
 8001658:	f022 0201 	bic.w	r2, r2, #1
 800165c:	4605      	mov	r5, r0
 800165e:	601a      	str	r2, [r3, #0]
 8001660:	e005      	b.n	800166e <HAL_DMA_Init+0x32>
 8001662:	f7ff ff75 	bl	8001550 <HAL_GetTick>
 8001666:	1b43      	subs	r3, r0, r5
 8001668:	2b05      	cmp	r3, #5
 800166a:	d839      	bhi.n	80016e0 <HAL_DMA_Init+0xa4>
 800166c:	6823      	ldr	r3, [r4, #0]
 800166e:	681a      	ldr	r2, [r3, #0]
 8001670:	07d1      	lsls	r1, r2, #31
 8001672:	d4f6      	bmi.n	8001662 <HAL_DMA_Init+0x26>
 8001674:	e9d4 2001 	ldrd	r2, r0, [r4, #4]
 8001678:	68e1      	ldr	r1, [r4, #12]
 800167a:	4302      	orrs	r2, r0
 800167c:	430a      	orrs	r2, r1
 800167e:	e9d4 5104 	ldrd	r5, r1, [r4, #16]
 8001682:	69a0      	ldr	r0, [r4, #24]
 8001684:	432a      	orrs	r2, r5
 8001686:	430a      	orrs	r2, r1
 8001688:	69e1      	ldr	r1, [r4, #28]
 800168a:	681d      	ldr	r5, [r3, #0]
 800168c:	4302      	orrs	r2, r0
 800168e:	430a      	orrs	r2, r1
 8001690:	4933      	ldr	r1, [pc, #204]	; (8001760 <HAL_DMA_Init+0x124>)
 8001692:	4029      	ands	r1, r5
 8001694:	6a25      	ldr	r5, [r4, #32]
 8001696:	432a      	orrs	r2, r5
 8001698:	430a      	orrs	r2, r1
 800169a:	6a61      	ldr	r1, [r4, #36]	; 0x24
 800169c:	2904      	cmp	r1, #4
 800169e:	d028      	beq.n	80016f2 <HAL_DMA_Init+0xb6>
 80016a0:	601a      	str	r2, [r3, #0]
 80016a2:	695a      	ldr	r2, [r3, #20]
 80016a4:	f022 0207 	bic.w	r2, r2, #7
 80016a8:	4311      	orrs	r1, r2
 80016aa:	b2d8      	uxtb	r0, r3
 80016ac:	4a2d      	ldr	r2, [pc, #180]	; (8001764 <HAL_DMA_Init+0x128>)
 80016ae:	6159      	str	r1, [r3, #20]
 80016b0:	3810      	subs	r0, #16
 80016b2:	fba2 5200 	umull	r5, r2, r2, r0
 80016b6:	0912      	lsrs	r2, r2, #4
 80016b8:	492b      	ldr	r1, [pc, #172]	; (8001768 <HAL_DMA_Init+0x12c>)
 80016ba:	f423 737f 	bic.w	r3, r3, #1020	; 0x3fc
 80016be:	5c89      	ldrb	r1, [r1, r2]
 80016c0:	65e1      	str	r1, [r4, #92]	; 0x5c
 80016c2:	f023 0303 	bic.w	r3, r3, #3
 80016c6:	285f      	cmp	r0, #95	; 0x5f
 80016c8:	bf88      	it	hi
 80016ca:	3304      	addhi	r3, #4
 80016cc:	223f      	movs	r2, #63	; 0x3f
 80016ce:	408a      	lsls	r2, r1
 80016d0:	65a3      	str	r3, [r4, #88]	; 0x58
 80016d2:	2000      	movs	r0, #0
 80016d4:	609a      	str	r2, [r3, #8]
 80016d6:	2301      	movs	r3, #1
 80016d8:	6560      	str	r0, [r4, #84]	; 0x54
 80016da:	f884 3035 	strb.w	r3, [r4, #53]	; 0x35
 80016de:	bd38      	pop	{r3, r4, r5, pc}
 80016e0:	2303      	movs	r3, #3
 80016e2:	2220      	movs	r2, #32
 80016e4:	6562      	str	r2, [r4, #84]	; 0x54
 80016e6:	f884 3035 	strb.w	r3, [r4, #53]	; 0x35
 80016ea:	4618      	mov	r0, r3
 80016ec:	bd38      	pop	{r3, r4, r5, pc}
 80016ee:	2001      	movs	r0, #1
 80016f0:	bd38      	pop	{r3, r4, r5, pc}
 80016f2:	e9d4 510b 	ldrd	r5, r1, [r4, #44]	; 0x2c
 80016f6:	4329      	orrs	r1, r5
 80016f8:	430a      	orrs	r2, r1
 80016fa:	601a      	str	r2, [r3, #0]
 80016fc:	6959      	ldr	r1, [r3, #20]
 80016fe:	6aa2      	ldr	r2, [r4, #40]	; 0x28
 8001700:	f021 0107 	bic.w	r1, r1, #7
 8001704:	4311      	orrs	r1, r2
 8001706:	f041 0104 	orr.w	r1, r1, #4
 800170a:	2d00      	cmp	r5, #0
 800170c:	d0cd      	beq.n	80016aa <HAL_DMA_Init+0x6e>
 800170e:	b178      	cbz	r0, 8001730 <HAL_DMA_Init+0xf4>
 8001710:	f5b0 5f00 	cmp.w	r0, #8192	; 0x2000
 8001714:	d016      	beq.n	8001744 <HAL_DMA_Init+0x108>
 8001716:	2a02      	cmp	r2, #2
 8001718:	d903      	bls.n	8001722 <HAL_DMA_Init+0xe6>
 800171a:	2a03      	cmp	r2, #3
 800171c:	d1c5      	bne.n	80016aa <HAL_DMA_Init+0x6e>
 800171e:	01ea      	lsls	r2, r5, #7
 8001720:	d5c3      	bpl.n	80016aa <HAL_DMA_Init+0x6e>
 8001722:	2301      	movs	r3, #1
 8001724:	2240      	movs	r2, #64	; 0x40
 8001726:	6562      	str	r2, [r4, #84]	; 0x54
 8001728:	f884 3035 	strb.w	r3, [r4, #53]	; 0x35
 800172c:	4618      	mov	r0, r3
 800172e:	bd38      	pop	{r3, r4, r5, pc}
 8001730:	2a01      	cmp	r2, #1
 8001732:	d003      	beq.n	800173c <HAL_DMA_Init+0x100>
 8001734:	f032 0202 	bics.w	r2, r2, #2
 8001738:	d1b7      	bne.n	80016aa <HAL_DMA_Init+0x6e>
 800173a:	e7f0      	b.n	800171e <HAL_DMA_Init+0xe2>
 800173c:	f1b5 7fc0 	cmp.w	r5, #25165824	; 0x1800000
 8001740:	d1b3      	bne.n	80016aa <HAL_DMA_Init+0x6e>
 8001742:	e7ee      	b.n	8001722 <HAL_DMA_Init+0xe6>
 8001744:	2a03      	cmp	r2, #3
 8001746:	d8b0      	bhi.n	80016aa <HAL_DMA_Init+0x6e>
 8001748:	a001      	add	r0, pc, #4	; (adr r0, 8001750 <HAL_DMA_Init+0x114>)
 800174a:	f850 f022 	ldr.w	pc, [r0, r2, lsl #2]
 800174e:	bf00      	nop
 8001750:	08001723 	.word	0x08001723
 8001754:	0800171f 	.word	0x0800171f
 8001758:	08001723 	.word	0x08001723
 800175c:	0800173d 	.word	0x0800173d
 8001760:	f010803f 	.word	0xf010803f
 8001764:	aaaaaaab 	.word	0xaaaaaaab
 8001768:	08009770 	.word	0x08009770

0800176c <HAL_DMA_Start_IT>:
 800176c:	b470      	push	{r4, r5, r6}
 800176e:	f890 4034 	ldrb.w	r4, [r0, #52]	; 0x34
 8001772:	6d85      	ldr	r5, [r0, #88]	; 0x58
 8001774:	2c01      	cmp	r4, #1
 8001776:	d035      	beq.n	80017e4 <HAL_DMA_Start_IT+0x78>
 8001778:	f890 4035 	ldrb.w	r4, [r0, #53]	; 0x35
 800177c:	f04f 0c01 	mov.w	ip, #1
 8001780:	4564      	cmp	r4, ip
 8001782:	f880 c034 	strb.w	ip, [r0, #52]	; 0x34
 8001786:	d005      	beq.n	8001794 <HAL_DMA_Start_IT+0x28>
 8001788:	2300      	movs	r3, #0
 800178a:	f880 3034 	strb.w	r3, [r0, #52]	; 0x34
 800178e:	bc70      	pop	{r4, r5, r6}
 8001790:	2002      	movs	r0, #2
 8001792:	4770      	bx	lr
 8001794:	2602      	movs	r6, #2
 8001796:	f880 6035 	strb.w	r6, [r0, #53]	; 0x35
 800179a:	6804      	ldr	r4, [r0, #0]
 800179c:	2600      	movs	r6, #0
 800179e:	6546      	str	r6, [r0, #84]	; 0x54
 80017a0:	6826      	ldr	r6, [r4, #0]
 80017a2:	f426 2680 	bic.w	r6, r6, #262144	; 0x40000
 80017a6:	6026      	str	r6, [r4, #0]
 80017a8:	6063      	str	r3, [r4, #4]
 80017aa:	6883      	ldr	r3, [r0, #8]
 80017ac:	2b40      	cmp	r3, #64	; 0x40
 80017ae:	bf0e      	itee	eq
 80017b0:	60a2      	streq	r2, [r4, #8]
 80017b2:	60a1      	strne	r1, [r4, #8]
 80017b4:	60e2      	strne	r2, [r4, #12]
 80017b6:	6dc2      	ldr	r2, [r0, #92]	; 0x5c
 80017b8:	bf08      	it	eq
 80017ba:	60e1      	streq	r1, [r4, #12]
 80017bc:	233f      	movs	r3, #63	; 0x3f
 80017be:	4093      	lsls	r3, r2
 80017c0:	60ab      	str	r3, [r5, #8]
 80017c2:	6823      	ldr	r3, [r4, #0]
 80017c4:	6c02      	ldr	r2, [r0, #64]	; 0x40
 80017c6:	f043 0316 	orr.w	r3, r3, #22
 80017ca:	6023      	str	r3, [r4, #0]
 80017cc:	b11a      	cbz	r2, 80017d6 <HAL_DMA_Start_IT+0x6a>
 80017ce:	6823      	ldr	r3, [r4, #0]
 80017d0:	f043 0308 	orr.w	r3, r3, #8
 80017d4:	6023      	str	r3, [r4, #0]
 80017d6:	6823      	ldr	r3, [r4, #0]
 80017d8:	f043 0301 	orr.w	r3, r3, #1
 80017dc:	2000      	movs	r0, #0
 80017de:	6023      	str	r3, [r4, #0]
 80017e0:	bc70      	pop	{r4, r5, r6}
 80017e2:	4770      	bx	lr
 80017e4:	2002      	movs	r0, #2
 80017e6:	bc70      	pop	{r4, r5, r6}
 80017e8:	4770      	bx	lr
 80017ea:	bf00      	nop

080017ec <HAL_DMA_Abort_IT>:
 80017ec:	f890 3035 	ldrb.w	r3, [r0, #53]	; 0x35
 80017f0:	2b02      	cmp	r3, #2
 80017f2:	d003      	beq.n	80017fc <HAL_DMA_Abort_IT+0x10>
 80017f4:	2380      	movs	r3, #128	; 0x80
 80017f6:	6543      	str	r3, [r0, #84]	; 0x54
 80017f8:	2001      	movs	r0, #1
 80017fa:	4770      	bx	lr
 80017fc:	6802      	ldr	r2, [r0, #0]
 80017fe:	2305      	movs	r3, #5
 8001800:	f880 3035 	strb.w	r3, [r0, #53]	; 0x35
 8001804:	6813      	ldr	r3, [r2, #0]
 8001806:	f023 0301 	bic.w	r3, r3, #1
 800180a:	2000      	movs	r0, #0
 800180c:	6013      	str	r3, [r2, #0]
 800180e:	4770      	bx	lr

08001810 <HAL_DMA_IRQHandler>:
 8001810:	e92d 41f0 	stmdb	sp!, {r4, r5, r6, r7, r8, lr}
 8001814:	b082      	sub	sp, #8
 8001816:	4a74      	ldr	r2, [pc, #464]	; (80019e8 <HAL_DMA_IRQHandler+0x1d8>)
 8001818:	6d86      	ldr	r6, [r0, #88]	; 0x58
 800181a:	6815      	ldr	r5, [r2, #0]
 800181c:	2300      	movs	r3, #0
 800181e:	9301      	str	r3, [sp, #4]
 8001820:	6dc3      	ldr	r3, [r0, #92]	; 0x5c
 8001822:	6834      	ldr	r4, [r6, #0]
 8001824:	2208      	movs	r2, #8
 8001826:	409a      	lsls	r2, r3
 8001828:	4222      	tst	r2, r4
 800182a:	4680      	mov	r8, r0
 800182c:	d004      	beq.n	8001838 <HAL_DMA_IRQHandler+0x28>
 800182e:	6801      	ldr	r1, [r0, #0]
 8001830:	680f      	ldr	r7, [r1, #0]
 8001832:	0778      	lsls	r0, r7, #29
 8001834:	f100 808a 	bmi.w	800194c <HAL_DMA_IRQHandler+0x13c>
 8001838:	2201      	movs	r2, #1
 800183a:	409a      	lsls	r2, r3
 800183c:	4222      	tst	r2, r4
 800183e:	d004      	beq.n	800184a <HAL_DMA_IRQHandler+0x3a>
 8001840:	f8d8 1000 	ldr.w	r1, [r8]
 8001844:	6949      	ldr	r1, [r1, #20]
 8001846:	0609      	lsls	r1, r1, #24
 8001848:	d478      	bmi.n	800193c <HAL_DMA_IRQHandler+0x12c>
 800184a:	2204      	movs	r2, #4
 800184c:	409a      	lsls	r2, r3
 800184e:	4222      	tst	r2, r4
 8001850:	d004      	beq.n	800185c <HAL_DMA_IRQHandler+0x4c>
 8001852:	f8d8 1000 	ldr.w	r1, [r8]
 8001856:	6809      	ldr	r1, [r1, #0]
 8001858:	078f      	lsls	r7, r1, #30
 800185a:	d467      	bmi.n	800192c <HAL_DMA_IRQHandler+0x11c>
 800185c:	2210      	movs	r2, #16
 800185e:	409a      	lsls	r2, r3
 8001860:	4222      	tst	r2, r4
 8001862:	d004      	beq.n	800186e <HAL_DMA_IRQHandler+0x5e>
 8001864:	f8d8 1000 	ldr.w	r1, [r8]
 8001868:	680f      	ldr	r7, [r1, #0]
 800186a:	0738      	lsls	r0, r7, #28
 800186c:	d449      	bmi.n	8001902 <HAL_DMA_IRQHandler+0xf2>
 800186e:	2220      	movs	r2, #32
 8001870:	409a      	lsls	r2, r3
 8001872:	4222      	tst	r2, r4
 8001874:	d017      	beq.n	80018a6 <HAL_DMA_IRQHandler+0x96>
 8001876:	f8d8 1000 	ldr.w	r1, [r8]
 800187a:	680c      	ldr	r4, [r1, #0]
 800187c:	06e0      	lsls	r0, r4, #27
 800187e:	d512      	bpl.n	80018a6 <HAL_DMA_IRQHandler+0x96>
 8001880:	60b2      	str	r2, [r6, #8]
 8001882:	f898 2035 	ldrb.w	r2, [r8, #53]	; 0x35
 8001886:	2a05      	cmp	r2, #5
 8001888:	d073      	beq.n	8001972 <HAL_DMA_IRQHandler+0x162>
 800188a:	680b      	ldr	r3, [r1, #0]
 800188c:	f413 2f80 	tst.w	r3, #262144	; 0x40000
 8001890:	680b      	ldr	r3, [r1, #0]
 8001892:	f000 8090 	beq.w	80019b6 <HAL_DMA_IRQHandler+0x1a6>
 8001896:	0319      	lsls	r1, r3, #12
 8001898:	f140 809b 	bpl.w	80019d2 <HAL_DMA_IRQHandler+0x1c2>
 800189c:	f8d8 303c 	ldr.w	r3, [r8, #60]	; 0x3c
 80018a0:	b10b      	cbz	r3, 80018a6 <HAL_DMA_IRQHandler+0x96>
 80018a2:	4640      	mov	r0, r8
 80018a4:	4798      	blx	r3
 80018a6:	f8d8 3054 	ldr.w	r3, [r8, #84]	; 0x54
 80018aa:	b33b      	cbz	r3, 80018fc <HAL_DMA_IRQHandler+0xec>
 80018ac:	f8d8 3054 	ldr.w	r3, [r8, #84]	; 0x54
 80018b0:	07da      	lsls	r2, r3, #31
 80018b2:	d51b      	bpl.n	80018ec <HAL_DMA_IRQHandler+0xdc>
 80018b4:	f8d8 2000 	ldr.w	r2, [r8]
 80018b8:	494c      	ldr	r1, [pc, #304]	; (80019ec <HAL_DMA_IRQHandler+0x1dc>)
 80018ba:	2305      	movs	r3, #5
 80018bc:	f888 3035 	strb.w	r3, [r8, #53]	; 0x35
 80018c0:	6813      	ldr	r3, [r2, #0]
 80018c2:	fba1 1505 	umull	r1, r5, r1, r5
 80018c6:	f023 0301 	bic.w	r3, r3, #1
 80018ca:	0aad      	lsrs	r5, r5, #10
 80018cc:	6013      	str	r3, [r2, #0]
 80018ce:	e002      	b.n	80018d6 <HAL_DMA_IRQHandler+0xc6>
 80018d0:	6813      	ldr	r3, [r2, #0]
 80018d2:	07db      	lsls	r3, r3, #31
 80018d4:	d504      	bpl.n	80018e0 <HAL_DMA_IRQHandler+0xd0>
 80018d6:	9b01      	ldr	r3, [sp, #4]
 80018d8:	3301      	adds	r3, #1
 80018da:	42ab      	cmp	r3, r5
 80018dc:	9301      	str	r3, [sp, #4]
 80018de:	d9f7      	bls.n	80018d0 <HAL_DMA_IRQHandler+0xc0>
 80018e0:	2201      	movs	r2, #1
 80018e2:	2300      	movs	r3, #0
 80018e4:	f888 2035 	strb.w	r2, [r8, #53]	; 0x35
 80018e8:	f888 3034 	strb.w	r3, [r8, #52]	; 0x34
 80018ec:	f8d8 304c 	ldr.w	r3, [r8, #76]	; 0x4c
 80018f0:	b123      	cbz	r3, 80018fc <HAL_DMA_IRQHandler+0xec>
 80018f2:	4640      	mov	r0, r8
 80018f4:	b002      	add	sp, #8
 80018f6:	e8bd 41f0 	ldmia.w	sp!, {r4, r5, r6, r7, r8, lr}
 80018fa:	4718      	bx	r3
 80018fc:	b002      	add	sp, #8
 80018fe:	e8bd 81f0 	ldmia.w	sp!, {r4, r5, r6, r7, r8, pc}
 8001902:	60b2      	str	r2, [r6, #8]
 8001904:	680a      	ldr	r2, [r1, #0]
 8001906:	f412 2f80 	tst.w	r2, #262144	; 0x40000
 800190a:	680a      	ldr	r2, [r1, #0]
 800190c:	d12a      	bne.n	8001964 <HAL_DMA_IRQHandler+0x154>
 800190e:	05d7      	lsls	r7, r2, #23
 8001910:	d403      	bmi.n	800191a <HAL_DMA_IRQHandler+0x10a>
 8001912:	680a      	ldr	r2, [r1, #0]
 8001914:	f022 0208 	bic.w	r2, r2, #8
 8001918:	600a      	str	r2, [r1, #0]
 800191a:	f8d8 2040 	ldr.w	r2, [r8, #64]	; 0x40
 800191e:	2a00      	cmp	r2, #0
 8001920:	d0a5      	beq.n	800186e <HAL_DMA_IRQHandler+0x5e>
 8001922:	4640      	mov	r0, r8
 8001924:	4790      	blx	r2
 8001926:	f8d8 305c 	ldr.w	r3, [r8, #92]	; 0x5c
 800192a:	e7a0      	b.n	800186e <HAL_DMA_IRQHandler+0x5e>
 800192c:	60b2      	str	r2, [r6, #8]
 800192e:	f8d8 2054 	ldr.w	r2, [r8, #84]	; 0x54
 8001932:	f042 0204 	orr.w	r2, r2, #4
 8001936:	f8c8 2054 	str.w	r2, [r8, #84]	; 0x54
 800193a:	e78f      	b.n	800185c <HAL_DMA_IRQHandler+0x4c>
 800193c:	60b2      	str	r2, [r6, #8]
 800193e:	f8d8 2054 	ldr.w	r2, [r8, #84]	; 0x54
 8001942:	f042 0202 	orr.w	r2, r2, #2
 8001946:	f8c8 2054 	str.w	r2, [r8, #84]	; 0x54
 800194a:	e77e      	b.n	800184a <HAL_DMA_IRQHandler+0x3a>
 800194c:	680f      	ldr	r7, [r1, #0]
 800194e:	f027 0704 	bic.w	r7, r7, #4
 8001952:	600f      	str	r7, [r1, #0]
 8001954:	60b2      	str	r2, [r6, #8]
 8001956:	f8d8 2054 	ldr.w	r2, [r8, #84]	; 0x54
 800195a:	f042 0201 	orr.w	r2, r2, #1
 800195e:	f8c8 2054 	str.w	r2, [r8, #84]	; 0x54
 8001962:	e769      	b.n	8001838 <HAL_DMA_IRQHandler+0x28>
 8001964:	0312      	lsls	r2, r2, #12
 8001966:	d5d8      	bpl.n	800191a <HAL_DMA_IRQHandler+0x10a>
 8001968:	f8d8 2048 	ldr.w	r2, [r8, #72]	; 0x48
 800196c:	2a00      	cmp	r2, #0
 800196e:	d1d8      	bne.n	8001922 <HAL_DMA_IRQHandler+0x112>
 8001970:	e77d      	b.n	800186e <HAL_DMA_IRQHandler+0x5e>
 8001972:	680a      	ldr	r2, [r1, #0]
 8001974:	f022 0216 	bic.w	r2, r2, #22
 8001978:	600a      	str	r2, [r1, #0]
 800197a:	694a      	ldr	r2, [r1, #20]
 800197c:	f022 0280 	bic.w	r2, r2, #128	; 0x80
 8001980:	614a      	str	r2, [r1, #20]
 8001982:	f8d8 2040 	ldr.w	r2, [r8, #64]	; 0x40
 8001986:	b352      	cbz	r2, 80019de <HAL_DMA_IRQHandler+0x1ce>
 8001988:	680a      	ldr	r2, [r1, #0]
 800198a:	f022 0208 	bic.w	r2, r2, #8
 800198e:	600a      	str	r2, [r1, #0]
 8001990:	223f      	movs	r2, #63	; 0x3f
 8001992:	fa02 f303 	lsl.w	r3, r2, r3
 8001996:	f8d8 1050 	ldr.w	r1, [r8, #80]	; 0x50
 800199a:	60b3      	str	r3, [r6, #8]
 800199c:	2201      	movs	r2, #1
 800199e:	2300      	movs	r3, #0
 80019a0:	f888 2035 	strb.w	r2, [r8, #53]	; 0x35
 80019a4:	f888 3034 	strb.w	r3, [r8, #52]	; 0x34
 80019a8:	2900      	cmp	r1, #0
 80019aa:	d0a7      	beq.n	80018fc <HAL_DMA_IRQHandler+0xec>
 80019ac:	4640      	mov	r0, r8
 80019ae:	b002      	add	sp, #8
 80019b0:	e8bd 41f0 	ldmia.w	sp!, {r4, r5, r6, r7, r8, lr}
 80019b4:	4708      	bx	r1
 80019b6:	f413 7380 	ands.w	r3, r3, #256	; 0x100
 80019ba:	f47f af6f 	bne.w	800189c <HAL_DMA_IRQHandler+0x8c>
 80019be:	680a      	ldr	r2, [r1, #0]
 80019c0:	f022 0210 	bic.w	r2, r2, #16
 80019c4:	600a      	str	r2, [r1, #0]
 80019c6:	2201      	movs	r2, #1
 80019c8:	f888 2035 	strb.w	r2, [r8, #53]	; 0x35
 80019cc:	f888 3034 	strb.w	r3, [r8, #52]	; 0x34
 80019d0:	e764      	b.n	800189c <HAL_DMA_IRQHandler+0x8c>
 80019d2:	f8d8 3044 	ldr.w	r3, [r8, #68]	; 0x44
 80019d6:	2b00      	cmp	r3, #0
 80019d8:	f47f af63 	bne.w	80018a2 <HAL_DMA_IRQHandler+0x92>
 80019dc:	e763      	b.n	80018a6 <HAL_DMA_IRQHandler+0x96>
 80019de:	f8d8 2048 	ldr.w	r2, [r8, #72]	; 0x48
 80019e2:	2a00      	cmp	r2, #0
 80019e4:	d1d0      	bne.n	8001988 <HAL_DMA_IRQHandler+0x178>
 80019e6:	e7d3      	b.n	8001990 <HAL_DMA_IRQHandler+0x180>
 80019e8:	20000108 	.word	0x20000108
 80019ec:	1b4e81b5 	.word	0x1b4e81b5

080019f0 <HAL_GPIO_Init>:
 80019f0:	e92d 4ff0 	stmdb	sp!, {r4, r5, r6, r7, r8, r9, sl, fp, lr}
 80019f4:	2200      	movs	r2, #0
 80019f6:	680c      	ldr	r4, [r1, #0]
 80019f8:	4e70      	ldr	r6, [pc, #448]	; (8001bbc <HAL_GPIO_Init+0x1cc>)
 80019fa:	b085      	sub	sp, #20
 80019fc:	4613      	mov	r3, r2
 80019fe:	f04f 0a01 	mov.w	sl, #1
 8001a02:	4689      	mov	r9, r1
 8001a04:	e004      	b.n	8001a10 <HAL_GPIO_Init+0x20>
 8001a06:	3301      	adds	r3, #1
 8001a08:	2b10      	cmp	r3, #16
 8001a0a:	f102 0202 	add.w	r2, r2, #2
 8001a0e:	d078      	beq.n	8001b02 <HAL_GPIO_Init+0x112>
 8001a10:	fa0a f103 	lsl.w	r1, sl, r3
 8001a14:	ea01 0b04 	and.w	fp, r1, r4
 8001a18:	43a1      	bics	r1, r4
 8001a1a:	d1f4      	bne.n	8001a06 <HAL_GPIO_Init+0x16>
 8001a1c:	f8d9 c004 	ldr.w	ip, [r9, #4]
 8001a20:	f00c 0103 	and.w	r1, ip, #3
 8001a24:	1e4d      	subs	r5, r1, #1
 8001a26:	2d01      	cmp	r5, #1
 8001a28:	d96e      	bls.n	8001b08 <HAL_GPIO_Init+0x118>
 8001a2a:	2903      	cmp	r1, #3
 8001a2c:	f040 80ae 	bne.w	8001b8c <HAL_GPIO_Init+0x19c>
 8001a30:	4091      	lsls	r1, r2
 8001a32:	43cd      	mvns	r5, r1
 8001a34:	6807      	ldr	r7, [r0, #0]
 8001a36:	403d      	ands	r5, r7
 8001a38:	4329      	orrs	r1, r5
 8001a3a:	f41c 3f40 	tst.w	ip, #196608	; 0x30000
 8001a3e:	6001      	str	r1, [r0, #0]
 8001a40:	d0e1      	beq.n	8001a06 <HAL_GPIO_Init+0x16>
 8001a42:	4d5f      	ldr	r5, [pc, #380]	; (8001bc0 <HAL_GPIO_Init+0x1d0>)
 8001a44:	2100      	movs	r1, #0
 8001a46:	9103      	str	r1, [sp, #12]
 8001a48:	6c69      	ldr	r1, [r5, #68]	; 0x44
 8001a4a:	f441 4180 	orr.w	r1, r1, #16384	; 0x4000
 8001a4e:	6469      	str	r1, [r5, #68]	; 0x44
 8001a50:	6c69      	ldr	r1, [r5, #68]	; 0x44
 8001a52:	f401 4180 	and.w	r1, r1, #16384	; 0x4000
 8001a56:	9103      	str	r1, [sp, #12]
 8001a58:	9903      	ldr	r1, [sp, #12]
 8001a5a:	f023 0103 	bic.w	r1, r3, #3
 8001a5e:	f101 4180 	add.w	r1, r1, #1073741824	; 0x40000000
 8001a62:	f501 319c 	add.w	r1, r1, #79872	; 0x13800
 8001a66:	f003 0703 	and.w	r7, r3, #3
 8001a6a:	f8d1 e008 	ldr.w	lr, [r1, #8]
 8001a6e:	00bf      	lsls	r7, r7, #2
 8001a70:	250f      	movs	r5, #15
 8001a72:	40bd      	lsls	r5, r7
 8001a74:	ea2e 0805 	bic.w	r8, lr, r5
 8001a78:	4d52      	ldr	r5, [pc, #328]	; (8001bc4 <HAL_GPIO_Init+0x1d4>)
 8001a7a:	42a8      	cmp	r0, r5
 8001a7c:	d017      	beq.n	8001aae <HAL_GPIO_Init+0xbe>
 8001a7e:	f505 6580 	add.w	r5, r5, #1024	; 0x400
 8001a82:	42a8      	cmp	r0, r5
 8001a84:	f000 8086 	beq.w	8001b94 <HAL_GPIO_Init+0x1a4>
 8001a88:	4d4f      	ldr	r5, [pc, #316]	; (8001bc8 <HAL_GPIO_Init+0x1d8>)
 8001a8a:	42a8      	cmp	r0, r5
 8001a8c:	f000 8087 	beq.w	8001b9e <HAL_GPIO_Init+0x1ae>
 8001a90:	4d4e      	ldr	r5, [pc, #312]	; (8001bcc <HAL_GPIO_Init+0x1dc>)
 8001a92:	42a8      	cmp	r0, r5
 8001a94:	f000 808a 	beq.w	8001bac <HAL_GPIO_Init+0x1bc>
 8001a98:	4d4d      	ldr	r5, [pc, #308]	; (8001bd0 <HAL_GPIO_Init+0x1e0>)
 8001a9a:	42a8      	cmp	r0, r5
 8001a9c:	bf0c      	ite	eq
 8001a9e:	f04f 0e04 	moveq.w	lr, #4
 8001aa2:	f04f 0e07 	movne.w	lr, #7
 8001aa6:	fa0e f707 	lsl.w	r7, lr, r7
 8001aaa:	ea48 0807 	orr.w	r8, r8, r7
 8001aae:	f8c1 8008 	str.w	r8, [r1, #8]
 8001ab2:	68b1      	ldr	r1, [r6, #8]
 8001ab4:	ea6f 070b 	mvn.w	r7, fp
 8001ab8:	f41c 1f80 	tst.w	ip, #1048576	; 0x100000
 8001abc:	bf0c      	ite	eq
 8001abe:	4039      	andeq	r1, r7
 8001ac0:	ea4b 0101 	orrne.w	r1, fp, r1
 8001ac4:	60b1      	str	r1, [r6, #8]
 8001ac6:	68f5      	ldr	r5, [r6, #12]
 8001ac8:	f41c 1f00 	tst.w	ip, #2097152	; 0x200000
 8001acc:	bf0c      	ite	eq
 8001ace:	403d      	andeq	r5, r7
 8001ad0:	ea4b 0505 	orrne.w	r5, fp, r5
 8001ad4:	60f5      	str	r5, [r6, #12]
 8001ad6:	6875      	ldr	r5, [r6, #4]
 8001ad8:	f41c 3f00 	tst.w	ip, #131072	; 0x20000
 8001adc:	bf0c      	ite	eq
 8001ade:	403d      	andeq	r5, r7
 8001ae0:	ea4b 0505 	orrne.w	r5, fp, r5
 8001ae4:	6075      	str	r5, [r6, #4]
 8001ae6:	6831      	ldr	r1, [r6, #0]
 8001ae8:	f41c 3f80 	tst.w	ip, #65536	; 0x10000
 8001aec:	f103 0301 	add.w	r3, r3, #1
 8001af0:	bf0c      	ite	eq
 8001af2:	4039      	andeq	r1, r7
 8001af4:	ea4b 0101 	orrne.w	r1, fp, r1
 8001af8:	2b10      	cmp	r3, #16
 8001afa:	6031      	str	r1, [r6, #0]
 8001afc:	f102 0202 	add.w	r2, r2, #2
 8001b00:	d186      	bne.n	8001a10 <HAL_GPIO_Init+0x20>
 8001b02:	b005      	add	sp, #20
 8001b04:	e8bd 8ff0 	ldmia.w	sp!, {r4, r5, r6, r7, r8, r9, sl, fp, pc}
 8001b08:	f8d9 500c 	ldr.w	r5, [r9, #12]
 8001b0c:	6887      	ldr	r7, [r0, #8]
 8001b0e:	fa05 f802 	lsl.w	r8, r5, r2
 8001b12:	2503      	movs	r5, #3
 8001b14:	fa05 fe02 	lsl.w	lr, r5, r2
 8001b18:	ea27 070e 	bic.w	r7, r7, lr
 8001b1c:	ea48 0707 	orr.w	r7, r8, r7
 8001b20:	6087      	str	r7, [r0, #8]
 8001b22:	6847      	ldr	r7, [r0, #4]
 8001b24:	ea6f 050e 	mvn.w	r5, lr
 8001b28:	ea27 0e0b 	bic.w	lr, r7, fp
 8001b2c:	f3cc 1700 	ubfx	r7, ip, #4, #1
 8001b30:	409f      	lsls	r7, r3
 8001b32:	ea47 070e 	orr.w	r7, r7, lr
 8001b36:	6047      	str	r7, [r0, #4]
 8001b38:	68c7      	ldr	r7, [r0, #12]
 8001b3a:	ea07 0e05 	and.w	lr, r7, r5
 8001b3e:	f8d9 7008 	ldr.w	r7, [r9, #8]
 8001b42:	4097      	lsls	r7, r2
 8001b44:	ea47 070e 	orr.w	r7, r7, lr
 8001b48:	2902      	cmp	r1, #2
 8001b4a:	60c7      	str	r7, [r0, #12]
 8001b4c:	fa01 f102 	lsl.w	r1, r1, r2
 8001b50:	f47f af70 	bne.w	8001a34 <HAL_GPIO_Init+0x44>
 8001b54:	ea4f 0ed3 	mov.w	lr, r3, lsr #3
 8001b58:	eb00 0e8e 	add.w	lr, r0, lr, lsl #2
 8001b5c:	f003 0807 	and.w	r8, r3, #7
 8001b60:	f8de 7020 	ldr.w	r7, [lr, #32]
 8001b64:	9700      	str	r7, [sp, #0]
 8001b66:	f8d9 7010 	ldr.w	r7, [r9, #16]
 8001b6a:	ea4f 0888 	mov.w	r8, r8, lsl #2
 8001b6e:	fa07 f708 	lsl.w	r7, r7, r8
 8001b72:	9701      	str	r7, [sp, #4]
 8001b74:	270f      	movs	r7, #15
 8001b76:	fa07 f808 	lsl.w	r8, r7, r8
 8001b7a:	9f00      	ldr	r7, [sp, #0]
 8001b7c:	ea27 0808 	bic.w	r8, r7, r8
 8001b80:	9f01      	ldr	r7, [sp, #4]
 8001b82:	ea47 0708 	orr.w	r7, r7, r8
 8001b86:	f8ce 7020 	str.w	r7, [lr, #32]
 8001b8a:	e753      	b.n	8001a34 <HAL_GPIO_Init+0x44>
 8001b8c:	2503      	movs	r5, #3
 8001b8e:	4095      	lsls	r5, r2
 8001b90:	43ed      	mvns	r5, r5
 8001b92:	e7d1      	b.n	8001b38 <HAL_GPIO_Init+0x148>
 8001b94:	fa0a f707 	lsl.w	r7, sl, r7
 8001b98:	ea48 0807 	orr.w	r8, r8, r7
 8001b9c:	e787      	b.n	8001aae <HAL_GPIO_Init+0xbe>
 8001b9e:	f04f 0e02 	mov.w	lr, #2
 8001ba2:	fa0e f707 	lsl.w	r7, lr, r7
 8001ba6:	ea48 0807 	orr.w	r8, r8, r7
 8001baa:	e780      	b.n	8001aae <HAL_GPIO_Init+0xbe>
 8001bac:	f04f 0e03 	mov.w	lr, #3
 8001bb0:	fa0e f707 	lsl.w	r7, lr, r7
 8001bb4:	ea48 0807 	orr.w	r8, r8, r7
 8001bb8:	e779      	b.n	8001aae <HAL_GPIO_Init+0xbe>
 8001bba:	bf00      	nop
 8001bbc:	40013c00 	.word	0x40013c00
 8001bc0:	40023800 	.word	0x40023800
 8001bc4:	40020000 	.word	0x40020000
 8001bc8:	40020800 	.word	0x40020800
 8001bcc:	40020c00 	.word	0x40020c00
 8001bd0:	40021000 	.word	0x40021000

08001bd4 <HAL_GPIO_WritePin>:
 8001bd4:	b902      	cbnz	r2, 8001bd8 <HAL_GPIO_WritePin+0x4>
 8001bd6:	0409      	lsls	r1, r1, #16
 8001bd8:	6181      	str	r1, [r0, #24]
 8001bda:	4770      	bx	lr

08001bdc <HAL_GPIO_EXTI_Callback>:
 8001bdc:	4770      	bx	lr
 8001bde:	bf00      	nop

08001be0 <HAL_GPIO_EXTI_IRQHandler>:
 8001be0:	4a04      	ldr	r2, [pc, #16]	; (8001bf4 <HAL_GPIO_EXTI_IRQHandler+0x14>)
 8001be2:	6951      	ldr	r1, [r2, #20]
 8001be4:	4201      	tst	r1, r0
 8001be6:	d100      	bne.n	8001bea <HAL_GPIO_EXTI_IRQHandler+0xa>
 8001be8:	4770      	bx	lr
 8001bea:	b508      	push	{r3, lr}
 8001bec:	6150      	str	r0, [r2, #20]
 8001bee:	f7ff fff5 	bl	8001bdc <HAL_GPIO_EXTI_Callback>
 8001bf2:	bd08      	pop	{r3, pc}
 8001bf4:	40013c00 	.word	0x40013c00

08001bf8 <I2C_RequestMemoryWrite>:
 8001bf8:	e92d 4ff0 	stmdb	sp!, {r4, r5, r6, r7, r8, r9, sl, fp, lr}
 8001bfc:	6804      	ldr	r4, [r0, #0]
 8001bfe:	b083      	sub	sp, #12
 8001c00:	4698      	mov	r8, r3
 8001c02:	6823      	ldr	r3, [r4, #0]
 8001c04:	f8dd 9030 	ldr.w	r9, [sp, #48]	; 0x30
 8001c08:	f8dd b034 	ldr.w	fp, [sp, #52]	; 0x34
 8001c0c:	f443 7380 	orr.w	r3, r3, #256	; 0x100
 8001c10:	4606      	mov	r6, r0
 8001c12:	468a      	mov	sl, r1
 8001c14:	4617      	mov	r7, r2
 8001c16:	6023      	str	r3, [r4, #0]
 8001c18:	f1b9 3fff 	cmp.w	r9, #4294967295
 8001c1c:	d135      	bne.n	8001c8a <I2C_RequestMemoryWrite+0x92>
 8001c1e:	6965      	ldr	r5, [r4, #20]
 8001c20:	07e8      	lsls	r0, r5, #31
 8001c22:	d5fc      	bpl.n	8001c1e <I2C_RequestMemoryWrite+0x26>
 8001c24:	f00a 01fe 	and.w	r1, sl, #254	; 0xfe
 8001c28:	6121      	str	r1, [r4, #16]
 8001c2a:	f1b9 3fff 	cmp.w	r9, #4294967295
 8001c2e:	d003      	beq.n	8001c38 <I2C_RequestMemoryWrite+0x40>
 8001c30:	e04e      	b.n	8001cd0 <I2C_RequestMemoryWrite+0xd8>
 8001c32:	6961      	ldr	r1, [r4, #20]
 8001c34:	054d      	lsls	r5, r1, #21
 8001c36:	d45c      	bmi.n	8001cf2 <I2C_RequestMemoryWrite+0xfa>
 8001c38:	6961      	ldr	r1, [r4, #20]
 8001c3a:	078b      	lsls	r3, r1, #30
 8001c3c:	d5f9      	bpl.n	8001c32 <I2C_RequestMemoryWrite+0x3a>
 8001c3e:	2300      	movs	r3, #0
 8001c40:	9301      	str	r3, [sp, #4]
 8001c42:	6963      	ldr	r3, [r4, #20]
 8001c44:	9301      	str	r3, [sp, #4]
 8001c46:	69a3      	ldr	r3, [r4, #24]
 8001c48:	9301      	str	r3, [sp, #4]
 8001c4a:	9b01      	ldr	r3, [sp, #4]
 8001c4c:	f1b9 3fff 	cmp.w	r9, #4294967295
 8001c50:	f040 8087 	bne.w	8001d62 <I2C_RequestMemoryWrite+0x16a>
 8001c54:	6963      	ldr	r3, [r4, #20]
 8001c56:	061a      	lsls	r2, r3, #24
 8001c58:	d463      	bmi.n	8001d22 <I2C_RequestMemoryWrite+0x12a>
 8001c5a:	6963      	ldr	r3, [r4, #20]
 8001c5c:	055b      	lsls	r3, r3, #21
 8001c5e:	d5f9      	bpl.n	8001c54 <I2C_RequestMemoryWrite+0x5c>
 8001c60:	2200      	movs	r2, #0
 8001c62:	2320      	movs	r3, #32
 8001c64:	f46f 6180 	mvn.w	r1, #1024	; 0x400
 8001c68:	6161      	str	r1, [r4, #20]
 8001c6a:	6332      	str	r2, [r6, #48]	; 0x30
 8001c6c:	f886 303d 	strb.w	r3, [r6, #61]	; 0x3d
 8001c70:	f886 203e 	strb.w	r2, [r6, #62]	; 0x3e
 8001c74:	6c33      	ldr	r3, [r6, #64]	; 0x40
 8001c76:	f886 203c 	strb.w	r2, [r6, #60]	; 0x3c
 8001c7a:	f043 0304 	orr.w	r3, r3, #4
 8001c7e:	6433      	str	r3, [r6, #64]	; 0x40
 8001c80:	6c33      	ldr	r3, [r6, #64]	; 0x40
 8001c82:	2b04      	cmp	r3, #4
 8001c84:	d066      	beq.n	8001d54 <I2C_RequestMemoryWrite+0x15c>
 8001c86:	2001      	movs	r0, #1
 8001c88:	e01f      	b.n	8001cca <I2C_RequestMemoryWrite+0xd2>
 8001c8a:	6963      	ldr	r3, [r4, #20]
 8001c8c:	07d9      	lsls	r1, r3, #31
 8001c8e:	d4c9      	bmi.n	8001c24 <I2C_RequestMemoryWrite+0x2c>
 8001c90:	f7ff fc5e 	bl	8001550 <HAL_GetTick>
 8001c94:	eba0 000b 	sub.w	r0, r0, fp
 8001c98:	4581      	cmp	r9, r0
 8001c9a:	d304      	bcc.n	8001ca6 <I2C_RequestMemoryWrite+0xae>
 8001c9c:	f1b9 0f00 	cmp.w	r9, #0
 8001ca0:	d001      	beq.n	8001ca6 <I2C_RequestMemoryWrite+0xae>
 8001ca2:	6834      	ldr	r4, [r6, #0]
 8001ca4:	e7b8      	b.n	8001c18 <I2C_RequestMemoryWrite+0x20>
 8001ca6:	2300      	movs	r3, #0
 8001ca8:	2220      	movs	r2, #32
 8001caa:	6333      	str	r3, [r6, #48]	; 0x30
 8001cac:	f886 203d 	strb.w	r2, [r6, #61]	; 0x3d
 8001cb0:	f886 303e 	strb.w	r3, [r6, #62]	; 0x3e
 8001cb4:	6c32      	ldr	r2, [r6, #64]	; 0x40
 8001cb6:	6831      	ldr	r1, [r6, #0]
 8001cb8:	f886 303c 	strb.w	r3, [r6, #60]	; 0x3c
 8001cbc:	f042 0220 	orr.w	r2, r2, #32
 8001cc0:	6432      	str	r2, [r6, #64]	; 0x40
 8001cc2:	680b      	ldr	r3, [r1, #0]
 8001cc4:	05dc      	lsls	r4, r3, #23
 8001cc6:	d435      	bmi.n	8001d34 <I2C_RequestMemoryWrite+0x13c>
 8001cc8:	2003      	movs	r0, #3
 8001cca:	b003      	add	sp, #12
 8001ccc:	e8bd 8ff0 	ldmia.w	sp!, {r4, r5, r6, r7, r8, r9, sl, fp, pc}
 8001cd0:	6963      	ldr	r3, [r4, #20]
 8001cd2:	0798      	lsls	r0, r3, #30
 8001cd4:	d4b3      	bmi.n	8001c3e <I2C_RequestMemoryWrite+0x46>
 8001cd6:	6963      	ldr	r3, [r4, #20]
 8001cd8:	055a      	lsls	r2, r3, #21
 8001cda:	d40a      	bmi.n	8001cf2 <I2C_RequestMemoryWrite+0xfa>
 8001cdc:	f7ff fc38 	bl	8001550 <HAL_GetTick>
 8001ce0:	eba0 000b 	sub.w	r0, r0, fp
 8001ce4:	4581      	cmp	r9, r0
 8001ce6:	d34e      	bcc.n	8001d86 <I2C_RequestMemoryWrite+0x18e>
 8001ce8:	f1b9 0f00 	cmp.w	r9, #0
 8001cec:	d04b      	beq.n	8001d86 <I2C_RequestMemoryWrite+0x18e>
 8001cee:	6834      	ldr	r4, [r6, #0]
 8001cf0:	e79b      	b.n	8001c2a <I2C_RequestMemoryWrite+0x32>
 8001cf2:	6823      	ldr	r3, [r4, #0]
 8001cf4:	f443 7300 	orr.w	r3, r3, #512	; 0x200
 8001cf8:	6023      	str	r3, [r4, #0]
 8001cfa:	2200      	movs	r2, #0
 8001cfc:	f46f 6180 	mvn.w	r1, #1024	; 0x400
 8001d00:	2320      	movs	r3, #32
 8001d02:	6161      	str	r1, [r4, #20]
 8001d04:	6332      	str	r2, [r6, #48]	; 0x30
 8001d06:	f886 303d 	strb.w	r3, [r6, #61]	; 0x3d
 8001d0a:	f886 203e 	strb.w	r2, [r6, #62]	; 0x3e
 8001d0e:	6c33      	ldr	r3, [r6, #64]	; 0x40
 8001d10:	f886 203c 	strb.w	r2, [r6, #60]	; 0x3c
 8001d14:	f043 0304 	orr.w	r3, r3, #4
 8001d18:	2001      	movs	r0, #1
 8001d1a:	6433      	str	r3, [r6, #64]	; 0x40
 8001d1c:	b003      	add	sp, #12
 8001d1e:	e8bd 8ff0 	ldmia.w	sp!, {r4, r5, r6, r7, r8, r9, sl, fp, pc}
 8001d22:	f1b8 0f01 	cmp.w	r8, #1
 8001d26:	d109      	bne.n	8001d3c <I2C_RequestMemoryWrite+0x144>
 8001d28:	b2ff      	uxtb	r7, r7
 8001d2a:	2000      	movs	r0, #0
 8001d2c:	6127      	str	r7, [r4, #16]
 8001d2e:	b003      	add	sp, #12
 8001d30:	e8bd 8ff0 	ldmia.w	sp!, {r4, r5, r6, r7, r8, r9, sl, fp, pc}
 8001d34:	f44f 7300 	mov.w	r3, #512	; 0x200
 8001d38:	6433      	str	r3, [r6, #64]	; 0x40
 8001d3a:	e7c5      	b.n	8001cc8 <I2C_RequestMemoryWrite+0xd0>
 8001d3c:	0a3b      	lsrs	r3, r7, #8
 8001d3e:	6123      	str	r3, [r4, #16]
 8001d40:	f1b9 3fff 	cmp.w	r9, #4294967295
 8001d44:	d12e      	bne.n	8001da4 <I2C_RequestMemoryWrite+0x1ac>
 8001d46:	6963      	ldr	r3, [r4, #20]
 8001d48:	0619      	lsls	r1, r3, #24
 8001d4a:	d4ed      	bmi.n	8001d28 <I2C_RequestMemoryWrite+0x130>
 8001d4c:	6963      	ldr	r3, [r4, #20]
 8001d4e:	055a      	lsls	r2, r3, #21
 8001d50:	d5f9      	bpl.n	8001d46 <I2C_RequestMemoryWrite+0x14e>
 8001d52:	e785      	b.n	8001c60 <I2C_RequestMemoryWrite+0x68>
 8001d54:	6832      	ldr	r2, [r6, #0]
 8001d56:	6813      	ldr	r3, [r2, #0]
 8001d58:	f443 7300 	orr.w	r3, r3, #512	; 0x200
 8001d5c:	2001      	movs	r0, #1
 8001d5e:	6013      	str	r3, [r2, #0]
 8001d60:	e7b3      	b.n	8001cca <I2C_RequestMemoryWrite+0xd2>
 8001d62:	6963      	ldr	r3, [r4, #20]
 8001d64:	061d      	lsls	r5, r3, #24
 8001d66:	d4dc      	bmi.n	8001d22 <I2C_RequestMemoryWrite+0x12a>
 8001d68:	6963      	ldr	r3, [r4, #20]
 8001d6a:	0559      	lsls	r1, r3, #21
 8001d6c:	f53f af78 	bmi.w	8001c60 <I2C_RequestMemoryWrite+0x68>
 8001d70:	f7ff fbee 	bl	8001550 <HAL_GetTick>
 8001d74:	eba0 000b 	sub.w	r0, r0, fp
 8001d78:	4581      	cmp	r9, r0
 8001d7a:	d325      	bcc.n	8001dc8 <I2C_RequestMemoryWrite+0x1d0>
 8001d7c:	f1b9 0f00 	cmp.w	r9, #0
 8001d80:	d022      	beq.n	8001dc8 <I2C_RequestMemoryWrite+0x1d0>
 8001d82:	6834      	ldr	r4, [r6, #0]
 8001d84:	e762      	b.n	8001c4c <I2C_RequestMemoryWrite+0x54>
 8001d86:	2200      	movs	r2, #0
 8001d88:	2320      	movs	r3, #32
 8001d8a:	6332      	str	r2, [r6, #48]	; 0x30
 8001d8c:	f886 303d 	strb.w	r3, [r6, #61]	; 0x3d
 8001d90:	f886 203e 	strb.w	r2, [r6, #62]	; 0x3e
 8001d94:	6c33      	ldr	r3, [r6, #64]	; 0x40
 8001d96:	f886 203c 	strb.w	r2, [r6, #60]	; 0x3c
 8001d9a:	f043 0320 	orr.w	r3, r3, #32
 8001d9e:	6433      	str	r3, [r6, #64]	; 0x40
 8001da0:	2001      	movs	r0, #1
 8001da2:	e792      	b.n	8001cca <I2C_RequestMemoryWrite+0xd2>
 8001da4:	6963      	ldr	r3, [r4, #20]
 8001da6:	061b      	lsls	r3, r3, #24
 8001da8:	d4be      	bmi.n	8001d28 <I2C_RequestMemoryWrite+0x130>
 8001daa:	6963      	ldr	r3, [r4, #20]
 8001dac:	0558      	lsls	r0, r3, #21
 8001dae:	f53f af57 	bmi.w	8001c60 <I2C_RequestMemoryWrite+0x68>
 8001db2:	f7ff fbcd 	bl	8001550 <HAL_GetTick>
 8001db6:	eba0 000b 	sub.w	r0, r0, fp
 8001dba:	4581      	cmp	r9, r0
 8001dbc:	d304      	bcc.n	8001dc8 <I2C_RequestMemoryWrite+0x1d0>
 8001dbe:	f1b9 0f00 	cmp.w	r9, #0
 8001dc2:	d001      	beq.n	8001dc8 <I2C_RequestMemoryWrite+0x1d0>
 8001dc4:	6834      	ldr	r4, [r6, #0]
 8001dc6:	e7bb      	b.n	8001d40 <I2C_RequestMemoryWrite+0x148>
 8001dc8:	2200      	movs	r2, #0
 8001dca:	2320      	movs	r3, #32
 8001dcc:	6332      	str	r2, [r6, #48]	; 0x30
 8001dce:	f886 303d 	strb.w	r3, [r6, #61]	; 0x3d
 8001dd2:	f886 203e 	strb.w	r2, [r6, #62]	; 0x3e
 8001dd6:	6c33      	ldr	r3, [r6, #64]	; 0x40
 8001dd8:	f886 203c 	strb.w	r2, [r6, #60]	; 0x3c
 8001ddc:	f043 0320 	orr.w	r3, r3, #32
 8001de0:	6433      	str	r3, [r6, #64]	; 0x40
 8001de2:	e74d      	b.n	8001c80 <I2C_RequestMemoryWrite+0x88>

08001de4 <I2C_RequestMemoryRead>:
 8001de4:	e92d 4ff0 	stmdb	sp!, {r4, r5, r6, r7, r8, r9, sl, fp, lr}
 8001de8:	6804      	ldr	r4, [r0, #0]
 8001dea:	4698      	mov	r8, r3
 8001dec:	6823      	ldr	r3, [r4, #0]
 8001dee:	f443 6380 	orr.w	r3, r3, #1024	; 0x400
 8001df2:	6023      	str	r3, [r4, #0]
 8001df4:	6823      	ldr	r3, [r4, #0]
 8001df6:	b083      	sub	sp, #12
 8001df8:	f443 7380 	orr.w	r3, r3, #256	; 0x100
 8001dfc:	f8dd a030 	ldr.w	sl, [sp, #48]	; 0x30
 8001e00:	f8dd 9034 	ldr.w	r9, [sp, #52]	; 0x34
 8001e04:	6023      	str	r3, [r4, #0]
 8001e06:	4606      	mov	r6, r0
 8001e08:	468b      	mov	fp, r1
 8001e0a:	4617      	mov	r7, r2
 8001e0c:	f1ba 3fff 	cmp.w	sl, #4294967295
 8001e10:	d139      	bne.n	8001e86 <I2C_RequestMemoryRead+0xa2>
 8001e12:	6965      	ldr	r5, [r4, #20]
 8001e14:	07eb      	lsls	r3, r5, #31
 8001e16:	d5fc      	bpl.n	8001e12 <I2C_RequestMemoryRead+0x2e>
 8001e18:	f00b 03fe 	and.w	r3, fp, #254	; 0xfe
 8001e1c:	6123      	str	r3, [r4, #16]
 8001e1e:	fa5f fb8b 	uxtb.w	fp, fp
 8001e22:	f1ba 3fff 	cmp.w	sl, #4294967295
 8001e26:	d003      	beq.n	8001e30 <I2C_RequestMemoryRead+0x4c>
 8001e28:	e068      	b.n	8001efc <I2C_RequestMemoryRead+0x118>
 8001e2a:	6961      	ldr	r1, [r4, #20]
 8001e2c:	054a      	lsls	r2, r1, #21
 8001e2e:	d450      	bmi.n	8001ed2 <I2C_RequestMemoryRead+0xee>
 8001e30:	6961      	ldr	r1, [r4, #20]
 8001e32:	0789      	lsls	r1, r1, #30
 8001e34:	d5f9      	bpl.n	8001e2a <I2C_RequestMemoryRead+0x46>
 8001e36:	2300      	movs	r3, #0
 8001e38:	9301      	str	r3, [sp, #4]
 8001e3a:	6963      	ldr	r3, [r4, #20]
 8001e3c:	9301      	str	r3, [sp, #4]
 8001e3e:	69a3      	ldr	r3, [r4, #24]
 8001e40:	9301      	str	r3, [sp, #4]
 8001e42:	9b01      	ldr	r3, [sp, #4]
 8001e44:	f1ba 3fff 	cmp.w	sl, #4294967295
 8001e48:	f040 80b8 	bne.w	8001fbc <I2C_RequestMemoryRead+0x1d8>
 8001e4c:	6963      	ldr	r3, [r4, #20]
 8001e4e:	0618      	lsls	r0, r3, #24
 8001e50:	d467      	bmi.n	8001f22 <I2C_RequestMemoryRead+0x13e>
 8001e52:	6963      	ldr	r3, [r4, #20]
 8001e54:	0559      	lsls	r1, r3, #21
 8001e56:	d5f9      	bpl.n	8001e4c <I2C_RequestMemoryRead+0x68>
 8001e58:	2200      	movs	r2, #0
 8001e5a:	2320      	movs	r3, #32
 8001e5c:	f46f 6180 	mvn.w	r1, #1024	; 0x400
 8001e60:	6161      	str	r1, [r4, #20]
 8001e62:	6332      	str	r2, [r6, #48]	; 0x30
 8001e64:	f886 303d 	strb.w	r3, [r6, #61]	; 0x3d
 8001e68:	f886 203e 	strb.w	r2, [r6, #62]	; 0x3e
 8001e6c:	6c33      	ldr	r3, [r6, #64]	; 0x40
 8001e6e:	f886 203c 	strb.w	r2, [r6, #60]	; 0x3c
 8001e72:	f043 0304 	orr.w	r3, r3, #4
 8001e76:	6433      	str	r3, [r6, #64]	; 0x40
 8001e78:	6c33      	ldr	r3, [r6, #64]	; 0x40
 8001e7a:	2b04      	cmp	r3, #4
 8001e7c:	d06c      	beq.n	8001f58 <I2C_RequestMemoryRead+0x174>
 8001e7e:	2001      	movs	r0, #1
 8001e80:	b003      	add	sp, #12
 8001e82:	e8bd 8ff0 	ldmia.w	sp!, {r4, r5, r6, r7, r8, r9, sl, fp, pc}
 8001e86:	6963      	ldr	r3, [r4, #20]
 8001e88:	07dd      	lsls	r5, r3, #31
 8001e8a:	d4c5      	bmi.n	8001e18 <I2C_RequestMemoryRead+0x34>
 8001e8c:	f7ff fb60 	bl	8001550 <HAL_GetTick>
 8001e90:	eba0 0009 	sub.w	r0, r0, r9
 8001e94:	4582      	cmp	sl, r0
 8001e96:	d304      	bcc.n	8001ea2 <I2C_RequestMemoryRead+0xbe>
 8001e98:	f1ba 0f00 	cmp.w	sl, #0
 8001e9c:	d001      	beq.n	8001ea2 <I2C_RequestMemoryRead+0xbe>
 8001e9e:	6834      	ldr	r4, [r6, #0]
 8001ea0:	e7b4      	b.n	8001e0c <I2C_RequestMemoryRead+0x28>
 8001ea2:	2300      	movs	r3, #0
 8001ea4:	2220      	movs	r2, #32
 8001ea6:	6333      	str	r3, [r6, #48]	; 0x30
 8001ea8:	f886 203d 	strb.w	r2, [r6, #61]	; 0x3d
 8001eac:	f886 303e 	strb.w	r3, [r6, #62]	; 0x3e
 8001eb0:	6c32      	ldr	r2, [r6, #64]	; 0x40
 8001eb2:	6831      	ldr	r1, [r6, #0]
 8001eb4:	f886 303c 	strb.w	r3, [r6, #60]	; 0x3c
 8001eb8:	f042 0220 	orr.w	r2, r2, #32
 8001ebc:	6432      	str	r2, [r6, #64]	; 0x40
 8001ebe:	680b      	ldr	r3, [r1, #0]
 8001ec0:	05dc      	lsls	r4, r3, #23
 8001ec2:	d502      	bpl.n	8001eca <I2C_RequestMemoryRead+0xe6>
 8001ec4:	f44f 7300 	mov.w	r3, #512	; 0x200
 8001ec8:	6433      	str	r3, [r6, #64]	; 0x40
 8001eca:	2003      	movs	r0, #3
 8001ecc:	b003      	add	sp, #12
 8001ece:	e8bd 8ff0 	ldmia.w	sp!, {r4, r5, r6, r7, r8, r9, sl, fp, pc}
 8001ed2:	6823      	ldr	r3, [r4, #0]
 8001ed4:	f443 7300 	orr.w	r3, r3, #512	; 0x200
 8001ed8:	6023      	str	r3, [r4, #0]
 8001eda:	2200      	movs	r2, #0
 8001edc:	2320      	movs	r3, #32
 8001ede:	f46f 6180 	mvn.w	r1, #1024	; 0x400
 8001ee2:	6161      	str	r1, [r4, #20]
 8001ee4:	6332      	str	r2, [r6, #48]	; 0x30
 8001ee6:	f886 303d 	strb.w	r3, [r6, #61]	; 0x3d
 8001eea:	f886 203e 	strb.w	r2, [r6, #62]	; 0x3e
 8001eee:	6c33      	ldr	r3, [r6, #64]	; 0x40
 8001ef0:	f886 203c 	strb.w	r2, [r6, #60]	; 0x3c
 8001ef4:	f043 0304 	orr.w	r3, r3, #4
 8001ef8:	6433      	str	r3, [r6, #64]	; 0x40
 8001efa:	e7c0      	b.n	8001e7e <I2C_RequestMemoryRead+0x9a>
 8001efc:	6963      	ldr	r3, [r4, #20]
 8001efe:	079b      	lsls	r3, r3, #30
 8001f00:	d499      	bmi.n	8001e36 <I2C_RequestMemoryRead+0x52>
 8001f02:	6963      	ldr	r3, [r4, #20]
 8001f04:	0558      	lsls	r0, r3, #21
 8001f06:	d4e4      	bmi.n	8001ed2 <I2C_RequestMemoryRead+0xee>
 8001f08:	f7ff fb22 	bl	8001550 <HAL_GetTick>
 8001f0c:	eba0 0009 	sub.w	r0, r0, r9
 8001f10:	4582      	cmp	sl, r0
 8001f12:	f0c0 808b 	bcc.w	800202c <I2C_RequestMemoryRead+0x248>
 8001f16:	f1ba 0f00 	cmp.w	sl, #0
 8001f1a:	f000 8087 	beq.w	800202c <I2C_RequestMemoryRead+0x248>
 8001f1e:	6834      	ldr	r4, [r6, #0]
 8001f20:	e77f      	b.n	8001e22 <I2C_RequestMemoryRead+0x3e>
 8001f22:	f1b8 0f01 	cmp.w	r8, #1
 8001f26:	d10b      	bne.n	8001f40 <I2C_RequestMemoryRead+0x15c>
 8001f28:	b2ff      	uxtb	r7, r7
 8001f2a:	6127      	str	r7, [r4, #16]
 8001f2c:	f1ba 3fff 	cmp.w	sl, #4294967295
 8001f30:	d16a      	bne.n	8002008 <I2C_RequestMemoryRead+0x224>
 8001f32:	6963      	ldr	r3, [r4, #20]
 8001f34:	061b      	lsls	r3, r3, #24
 8001f36:	d416      	bmi.n	8001f66 <I2C_RequestMemoryRead+0x182>
 8001f38:	6963      	ldr	r3, [r4, #20]
 8001f3a:	055f      	lsls	r7, r3, #21
 8001f3c:	d5f9      	bpl.n	8001f32 <I2C_RequestMemoryRead+0x14e>
 8001f3e:	e78b      	b.n	8001e58 <I2C_RequestMemoryRead+0x74>
 8001f40:	0a3b      	lsrs	r3, r7, #8
 8001f42:	6123      	str	r3, [r4, #16]
 8001f44:	f1ba 3fff 	cmp.w	sl, #4294967295
 8001f48:	d17f      	bne.n	800204a <I2C_RequestMemoryRead+0x266>
 8001f4a:	6963      	ldr	r3, [r4, #20]
 8001f4c:	061d      	lsls	r5, r3, #24
 8001f4e:	d4eb      	bmi.n	8001f28 <I2C_RequestMemoryRead+0x144>
 8001f50:	6963      	ldr	r3, [r4, #20]
 8001f52:	0558      	lsls	r0, r3, #21
 8001f54:	d5f9      	bpl.n	8001f4a <I2C_RequestMemoryRead+0x166>
 8001f56:	e77f      	b.n	8001e58 <I2C_RequestMemoryRead+0x74>
 8001f58:	6832      	ldr	r2, [r6, #0]
 8001f5a:	6813      	ldr	r3, [r2, #0]
 8001f5c:	f443 7300 	orr.w	r3, r3, #512	; 0x200
 8001f60:	2001      	movs	r0, #1
 8001f62:	6013      	str	r3, [r2, #0]
 8001f64:	e78c      	b.n	8001e80 <I2C_RequestMemoryRead+0x9c>
 8001f66:	6823      	ldr	r3, [r4, #0]
 8001f68:	f443 7380 	orr.w	r3, r3, #256	; 0x100
 8001f6c:	6023      	str	r3, [r4, #0]
 8001f6e:	f1ba 3fff 	cmp.w	sl, #4294967295
 8001f72:	d113      	bne.n	8001f9c <I2C_RequestMemoryRead+0x1b8>
 8001f74:	6963      	ldr	r3, [r4, #20]
 8001f76:	07d8      	lsls	r0, r3, #31
 8001f78:	d5fc      	bpl.n	8001f74 <I2C_RequestMemoryRead+0x190>
 8001f7a:	f04b 0301 	orr.w	r3, fp, #1
 8001f7e:	6123      	str	r3, [r4, #16]
 8001f80:	f1ba 3fff 	cmp.w	sl, #4294967295
 8001f84:	d003      	beq.n	8001f8e <I2C_RequestMemoryRead+0x1aa>
 8001f86:	e02b      	b.n	8001fe0 <I2C_RequestMemoryRead+0x1fc>
 8001f88:	6963      	ldr	r3, [r4, #20]
 8001f8a:	055b      	lsls	r3, r3, #21
 8001f8c:	d4a1      	bmi.n	8001ed2 <I2C_RequestMemoryRead+0xee>
 8001f8e:	6963      	ldr	r3, [r4, #20]
 8001f90:	43db      	mvns	r3, r3
 8001f92:	f013 0302 	ands.w	r3, r3, #2
 8001f96:	d1f7      	bne.n	8001f88 <I2C_RequestMemoryRead+0x1a4>
 8001f98:	4618      	mov	r0, r3
 8001f9a:	e771      	b.n	8001e80 <I2C_RequestMemoryRead+0x9c>
 8001f9c:	6963      	ldr	r3, [r4, #20]
 8001f9e:	07d9      	lsls	r1, r3, #31
 8001fa0:	d4eb      	bmi.n	8001f7a <I2C_RequestMemoryRead+0x196>
 8001fa2:	f7ff fad5 	bl	8001550 <HAL_GetTick>
 8001fa6:	eba0 0009 	sub.w	r0, r0, r9
 8001faa:	4582      	cmp	sl, r0
 8001fac:	f4ff af79 	bcc.w	8001ea2 <I2C_RequestMemoryRead+0xbe>
 8001fb0:	f1ba 0f00 	cmp.w	sl, #0
 8001fb4:	f43f af75 	beq.w	8001ea2 <I2C_RequestMemoryRead+0xbe>
 8001fb8:	6834      	ldr	r4, [r6, #0]
 8001fba:	e7d8      	b.n	8001f6e <I2C_RequestMemoryRead+0x18a>
 8001fbc:	6963      	ldr	r3, [r4, #20]
 8001fbe:	061a      	lsls	r2, r3, #24
 8001fc0:	d4af      	bmi.n	8001f22 <I2C_RequestMemoryRead+0x13e>
 8001fc2:	6963      	ldr	r3, [r4, #20]
 8001fc4:	055d      	lsls	r5, r3, #21
 8001fc6:	f53f af47 	bmi.w	8001e58 <I2C_RequestMemoryRead+0x74>
 8001fca:	f7ff fac1 	bl	8001550 <HAL_GetTick>
 8001fce:	eba0 0009 	sub.w	r0, r0, r9
 8001fd2:	4582      	cmp	sl, r0
 8001fd4:	d34c      	bcc.n	8002070 <I2C_RequestMemoryRead+0x28c>
 8001fd6:	f1ba 0f00 	cmp.w	sl, #0
 8001fda:	d049      	beq.n	8002070 <I2C_RequestMemoryRead+0x28c>
 8001fdc:	6834      	ldr	r4, [r6, #0]
 8001fde:	e731      	b.n	8001e44 <I2C_RequestMemoryRead+0x60>
 8001fe0:	6963      	ldr	r3, [r4, #20]
 8001fe2:	43db      	mvns	r3, r3
 8001fe4:	f013 0302 	ands.w	r3, r3, #2
 8001fe8:	d0d6      	beq.n	8001f98 <I2C_RequestMemoryRead+0x1b4>
 8001fea:	6963      	ldr	r3, [r4, #20]
 8001fec:	055a      	lsls	r2, r3, #21
 8001fee:	f53f af70 	bmi.w	8001ed2 <I2C_RequestMemoryRead+0xee>
 8001ff2:	f7ff faad 	bl	8001550 <HAL_GetTick>
 8001ff6:	eba0 0009 	sub.w	r0, r0, r9
 8001ffa:	4582      	cmp	sl, r0
 8001ffc:	d316      	bcc.n	800202c <I2C_RequestMemoryRead+0x248>
 8001ffe:	f1ba 0f00 	cmp.w	sl, #0
 8002002:	d013      	beq.n	800202c <I2C_RequestMemoryRead+0x248>
 8002004:	6834      	ldr	r4, [r6, #0]
 8002006:	e7bb      	b.n	8001f80 <I2C_RequestMemoryRead+0x19c>
 8002008:	6963      	ldr	r3, [r4, #20]
 800200a:	061d      	lsls	r5, r3, #24
 800200c:	d4ab      	bmi.n	8001f66 <I2C_RequestMemoryRead+0x182>
 800200e:	6963      	ldr	r3, [r4, #20]
 8002010:	055a      	lsls	r2, r3, #21
 8002012:	f53f af21 	bmi.w	8001e58 <I2C_RequestMemoryRead+0x74>
 8002016:	f7ff fa9b 	bl	8001550 <HAL_GetTick>
 800201a:	eba0 0009 	sub.w	r0, r0, r9
 800201e:	4582      	cmp	sl, r0
 8002020:	d326      	bcc.n	8002070 <I2C_RequestMemoryRead+0x28c>
 8002022:	f1ba 0f00 	cmp.w	sl, #0
 8002026:	d023      	beq.n	8002070 <I2C_RequestMemoryRead+0x28c>
 8002028:	6834      	ldr	r4, [r6, #0]
 800202a:	e77f      	b.n	8001f2c <I2C_RequestMemoryRead+0x148>
 800202c:	2200      	movs	r2, #0
 800202e:	2320      	movs	r3, #32
 8002030:	6332      	str	r2, [r6, #48]	; 0x30
 8002032:	f886 303d 	strb.w	r3, [r6, #61]	; 0x3d
 8002036:	f886 203e 	strb.w	r2, [r6, #62]	; 0x3e
 800203a:	6c33      	ldr	r3, [r6, #64]	; 0x40
 800203c:	f886 203c 	strb.w	r2, [r6, #60]	; 0x3c
 8002040:	f043 0320 	orr.w	r3, r3, #32
 8002044:	6433      	str	r3, [r6, #64]	; 0x40
 8002046:	2001      	movs	r0, #1
 8002048:	e71a      	b.n	8001e80 <I2C_RequestMemoryRead+0x9c>
 800204a:	6963      	ldr	r3, [r4, #20]
 800204c:	0619      	lsls	r1, r3, #24
 800204e:	f53f af6b 	bmi.w	8001f28 <I2C_RequestMemoryRead+0x144>
 8002052:	6963      	ldr	r3, [r4, #20]
 8002054:	055b      	lsls	r3, r3, #21
 8002056:	f53f aeff 	bmi.w	8001e58 <I2C_RequestMemoryRead+0x74>
 800205a:	f7ff fa79 	bl	8001550 <HAL_GetTick>
 800205e:	eba0 0009 	sub.w	r0, r0, r9
 8002062:	4582      	cmp	sl, r0
 8002064:	d304      	bcc.n	8002070 <I2C_RequestMemoryRead+0x28c>
 8002066:	f1ba 0f00 	cmp.w	sl, #0
 800206a:	d001      	beq.n	8002070 <I2C_RequestMemoryRead+0x28c>
 800206c:	6834      	ldr	r4, [r6, #0]
 800206e:	e769      	b.n	8001f44 <I2C_RequestMemoryRead+0x160>
 8002070:	2200      	movs	r2, #0
 8002072:	2320      	movs	r3, #32
 8002074:	6332      	str	r2, [r6, #48]	; 0x30
 8002076:	f886 303d 	strb.w	r3, [r6, #61]	; 0x3d
 800207a:	f886 203e 	strb.w	r2, [r6, #62]	; 0x3e
 800207e:	6c33      	ldr	r3, [r6, #64]	; 0x40
 8002080:	f886 203c 	strb.w	r2, [r6, #60]	; 0x3c
 8002084:	f043 0320 	orr.w	r3, r3, #32
 8002088:	6433      	str	r3, [r6, #64]	; 0x40
 800208a:	e6f5      	b.n	8001e78 <I2C_RequestMemoryRead+0x94>

0800208c <HAL_I2C_Init>:
 800208c:	2800      	cmp	r0, #0
 800208e:	f000 80b9 	beq.w	8002204 <HAL_I2C_Init+0x178>
 8002092:	b570      	push	{r4, r5, r6, lr}
 8002094:	f890 303d 	ldrb.w	r3, [r0, #61]	; 0x3d
 8002098:	4604      	mov	r4, r0
 800209a:	f003 02ff 	and.w	r2, r3, #255	; 0xff
 800209e:	2b00      	cmp	r3, #0
 80020a0:	f000 8098 	beq.w	80021d4 <HAL_I2C_Init+0x148>
 80020a4:	6823      	ldr	r3, [r4, #0]
 80020a6:	2224      	movs	r2, #36	; 0x24
 80020a8:	f884 203d 	strb.w	r2, [r4, #61]	; 0x3d
 80020ac:	681a      	ldr	r2, [r3, #0]
 80020ae:	f022 0201 	bic.w	r2, r2, #1
 80020b2:	601a      	str	r2, [r3, #0]
 80020b4:	681a      	ldr	r2, [r3, #0]
 80020b6:	f442 4200 	orr.w	r2, r2, #32768	; 0x8000
 80020ba:	601a      	str	r2, [r3, #0]
 80020bc:	681a      	ldr	r2, [r3, #0]
 80020be:	f422 4200 	bic.w	r2, r2, #32768	; 0x8000
 80020c2:	601a      	str	r2, [r3, #0]
 80020c4:	f001 fdc8 	bl	8003c58 <HAL_RCC_GetPCLK1Freq>
 80020c8:	6863      	ldr	r3, [r4, #4]
 80020ca:	494f      	ldr	r1, [pc, #316]	; (8002208 <HAL_I2C_Init+0x17c>)
 80020cc:	428b      	cmp	r3, r1
 80020ce:	d84f      	bhi.n	8002170 <HAL_I2C_Init+0xe4>
 80020d0:	4a4e      	ldr	r2, [pc, #312]	; (800220c <HAL_I2C_Init+0x180>)
 80020d2:	4290      	cmp	r0, r2
 80020d4:	d97c      	bls.n	80021d0 <HAL_I2C_Init+0x144>
 80020d6:	4d4e      	ldr	r5, [pc, #312]	; (8002210 <HAL_I2C_Init+0x184>)
 80020d8:	005a      	lsls	r2, r3, #1
 80020da:	fba5 3500 	umull	r3, r5, r5, r0
 80020de:	1e43      	subs	r3, r0, #1
 80020e0:	fbb3 f3f2 	udiv	r3, r3, r2
 80020e4:	6822      	ldr	r2, [r4, #0]
 80020e6:	6850      	ldr	r0, [r2, #4]
 80020e8:	f020 003f 	bic.w	r0, r0, #63	; 0x3f
 80020ec:	ea40 4095 	orr.w	r0, r0, r5, lsr #18
 80020f0:	6050      	str	r0, [r2, #4]
 80020f2:	0ca9      	lsrs	r1, r5, #18
 80020f4:	f101 0c01 	add.w	ip, r1, #1
 80020f8:	6a11      	ldr	r1, [r2, #32]
 80020fa:	f021 013f 	bic.w	r1, r1, #63	; 0x3f
 80020fe:	ea41 010c 	orr.w	r1, r1, ip
 8002102:	6211      	str	r1, [r2, #32]
 8002104:	69d1      	ldr	r1, [r2, #28]
 8002106:	f640 7efc 	movw	lr, #4092	; 0xffc
 800210a:	3301      	adds	r3, #1
 800210c:	f421 414f 	bic.w	r1, r1, #52992	; 0xcf00
 8002110:	ea13 0f0e 	tst.w	r3, lr
 8002114:	f021 01ff 	bic.w	r1, r1, #255	; 0xff
 8002118:	d161      	bne.n	80021de <HAL_I2C_Init+0x152>
 800211a:	2304      	movs	r3, #4
 800211c:	430b      	orrs	r3, r1
 800211e:	61d3      	str	r3, [r2, #28]
 8002120:	e9d4 3007 	ldrd	r3, r0, [r4, #28]
 8002124:	6811      	ldr	r1, [r2, #0]
 8002126:	4303      	orrs	r3, r0
 8002128:	f021 01c0 	bic.w	r1, r1, #192	; 0xc0
 800212c:	430b      	orrs	r3, r1
 800212e:	6013      	str	r3, [r2, #0]
 8002130:	6891      	ldr	r1, [r2, #8]
 8002132:	e9d4 0303 	ldrd	r0, r3, [r4, #12]
 8002136:	f421 4103 	bic.w	r1, r1, #33536	; 0x8300
 800213a:	4303      	orrs	r3, r0
 800213c:	f021 01ff 	bic.w	r1, r1, #255	; 0xff
 8002140:	430b      	orrs	r3, r1
 8002142:	6093      	str	r3, [r2, #8]
 8002144:	e9d4 3005 	ldrd	r3, r0, [r4, #20]
 8002148:	68d1      	ldr	r1, [r2, #12]
 800214a:	4303      	orrs	r3, r0
 800214c:	f021 01ff 	bic.w	r1, r1, #255	; 0xff
 8002150:	430b      	orrs	r3, r1
 8002152:	60d3      	str	r3, [r2, #12]
 8002154:	6811      	ldr	r1, [r2, #0]
 8002156:	2300      	movs	r3, #0
 8002158:	f041 0101 	orr.w	r1, r1, #1
 800215c:	2020      	movs	r0, #32
 800215e:	6011      	str	r1, [r2, #0]
 8002160:	6423      	str	r3, [r4, #64]	; 0x40
 8002162:	f884 003d 	strb.w	r0, [r4, #61]	; 0x3d
 8002166:	6323      	str	r3, [r4, #48]	; 0x30
 8002168:	f884 303e 	strb.w	r3, [r4, #62]	; 0x3e
 800216c:	4618      	mov	r0, r3
 800216e:	bd70      	pop	{r4, r5, r6, pc}
 8002170:	4a28      	ldr	r2, [pc, #160]	; (8002214 <HAL_I2C_Init+0x188>)
 8002172:	4290      	cmp	r0, r2
 8002174:	d92c      	bls.n	80021d0 <HAL_I2C_Init+0x144>
 8002176:	4d26      	ldr	r5, [pc, #152]	; (8002210 <HAL_I2C_Init+0x184>)
 8002178:	4e27      	ldr	r6, [pc, #156]	; (8002218 <HAL_I2C_Init+0x18c>)
 800217a:	fba5 2c00 	umull	r2, ip, r5, r0
 800217e:	6822      	ldr	r2, [r4, #0]
 8002180:	6855      	ldr	r5, [r2, #4]
 8002182:	f025 053f 	bic.w	r5, r5, #63	; 0x3f
 8002186:	ea45 459c 	orr.w	r5, r5, ip, lsr #18
 800218a:	6055      	str	r5, [r2, #4]
 800218c:	ea4f 419c 	mov.w	r1, ip, lsr #18
 8002190:	f44f 7596 	mov.w	r5, #300	; 0x12c
 8002194:	fb05 f101 	mul.w	r1, r5, r1
 8002198:	fba6 5101 	umull	r5, r1, r6, r1
 800219c:	6a15      	ldr	r5, [r2, #32]
 800219e:	0989      	lsrs	r1, r1, #6
 80021a0:	f025 053f 	bic.w	r5, r5, #63	; 0x3f
 80021a4:	3101      	adds	r1, #1
 80021a6:	4329      	orrs	r1, r5
 80021a8:	6211      	str	r1, [r2, #32]
 80021aa:	69d1      	ldr	r1, [r2, #28]
 80021ac:	68a5      	ldr	r5, [r4, #8]
 80021ae:	f421 414f 	bic.w	r1, r1, #52992	; 0xcf00
 80021b2:	f021 01ff 	bic.w	r1, r1, #255	; 0xff
 80021b6:	b9ad      	cbnz	r5, 80021e4 <HAL_I2C_Init+0x158>
 80021b8:	3801      	subs	r0, #1
 80021ba:	eb03 0343 	add.w	r3, r3, r3, lsl #1
 80021be:	fbb0 f3f3 	udiv	r3, r0, r3
 80021c2:	3301      	adds	r3, #1
 80021c4:	f3c3 030b 	ubfx	r3, r3, #0, #12
 80021c8:	b1d3      	cbz	r3, 8002200 <HAL_I2C_Init+0x174>
 80021ca:	f443 4300 	orr.w	r3, r3, #32768	; 0x8000
 80021ce:	e7a5      	b.n	800211c <HAL_I2C_Init+0x90>
 80021d0:	2001      	movs	r0, #1
 80021d2:	bd70      	pop	{r4, r5, r6, pc}
 80021d4:	f880 203c 	strb.w	r2, [r0, #60]	; 0x3c
 80021d8:	f7fe fe86 	bl	8000ee8 <HAL_I2C_MspInit>
 80021dc:	e762      	b.n	80020a4 <HAL_I2C_Init+0x18>
 80021de:	f3c3 030b 	ubfx	r3, r3, #0, #12
 80021e2:	e79b      	b.n	800211c <HAL_I2C_Init+0x90>
 80021e4:	eb03 0383 	add.w	r3, r3, r3, lsl #2
 80021e8:	3801      	subs	r0, #1
 80021ea:	eb03 0383 	add.w	r3, r3, r3, lsl #2
 80021ee:	fbb0 f3f3 	udiv	r3, r0, r3
 80021f2:	3301      	adds	r3, #1
 80021f4:	f3c3 030b 	ubfx	r3, r3, #0, #12
 80021f8:	b113      	cbz	r3, 8002200 <HAL_I2C_Init+0x174>
 80021fa:	f443 4340 	orr.w	r3, r3, #49152	; 0xc000
 80021fe:	e78d      	b.n	800211c <HAL_I2C_Init+0x90>
 8002200:	2301      	movs	r3, #1
 8002202:	e78b      	b.n	800211c <HAL_I2C_Init+0x90>
 8002204:	2001      	movs	r0, #1
 8002206:	4770      	bx	lr
 8002208:	000186a0 	.word	0x000186a0
 800220c:	001e847f 	.word	0x001e847f
 8002210:	431bde83 	.word	0x431bde83
 8002214:	003d08ff 	.word	0x003d08ff
 8002218:	10624dd3 	.word	0x10624dd3

0800221c <HAL_I2C_Mem_Write>:
 800221c:	e92d 4ff0 	stmdb	sp!, {r4, r5, r6, r7, r8, r9, sl, fp, lr}
 8002220:	4604      	mov	r4, r0
 8002222:	b083      	sub	sp, #12
 8002224:	4699      	mov	r9, r3
 8002226:	f8bd a034 	ldrh.w	sl, [sp, #52]	; 0x34
 800222a:	9e0e      	ldr	r6, [sp, #56]	; 0x38
 800222c:	460f      	mov	r7, r1
 800222e:	4690      	mov	r8, r2
 8002230:	f7ff f98e 	bl	8001550 <HAL_GetTick>
 8002234:	f894 303d 	ldrb.w	r3, [r4, #61]	; 0x3d
 8002238:	2b20      	cmp	r3, #32
 800223a:	d004      	beq.n	8002246 <HAL_I2C_Mem_Write+0x2a>
 800223c:	2702      	movs	r7, #2
 800223e:	4638      	mov	r0, r7
 8002240:	b003      	add	sp, #12
 8002242:	e8bd 8ff0 	ldmia.w	sp!, {r4, r5, r6, r7, r8, r9, sl, fp, pc}
 8002246:	4605      	mov	r5, r0
 8002248:	e005      	b.n	8002256 <HAL_I2C_Mem_Write+0x3a>
 800224a:	f7ff f981 	bl	8001550 <HAL_GetTick>
 800224e:	1b40      	subs	r0, r0, r5
 8002250:	2819      	cmp	r0, #25
 8002252:	f200 80aa 	bhi.w	80023aa <HAL_I2C_Mem_Write+0x18e>
 8002256:	6820      	ldr	r0, [r4, #0]
 8002258:	6983      	ldr	r3, [r0, #24]
 800225a:	ea6f 0c03 	mvn.w	ip, r3
 800225e:	f01c 0b02 	ands.w	fp, ip, #2
 8002262:	d0f2      	beq.n	800224a <HAL_I2C_Mem_Write+0x2e>
 8002264:	f894 303c 	ldrb.w	r3, [r4, #60]	; 0x3c
 8002268:	2b01      	cmp	r3, #1
 800226a:	d0e7      	beq.n	800223c <HAL_I2C_Mem_Write+0x20>
 800226c:	2301      	movs	r3, #1
 800226e:	f884 303c 	strb.w	r3, [r4, #60]	; 0x3c
 8002272:	6803      	ldr	r3, [r0, #0]
 8002274:	07db      	lsls	r3, r3, #31
 8002276:	d571      	bpl.n	800235c <HAL_I2C_Mem_Write+0x140>
 8002278:	4639      	mov	r1, r7
 800227a:	6807      	ldr	r7, [r0, #0]
 800227c:	f427 6700 	bic.w	r7, r7, #2048	; 0x800
 8002280:	6007      	str	r7, [r0, #0]
 8002282:	980c      	ldr	r0, [sp, #48]	; 0x30
 8002284:	6260      	str	r0, [r4, #36]	; 0x24
 8002286:	2021      	movs	r0, #33	; 0x21
 8002288:	e9cd 6500 	strd	r6, r5, [sp]
 800228c:	f884 003d 	strb.w	r0, [r4, #61]	; 0x3d
 8002290:	2040      	movs	r0, #64	; 0x40
 8002292:	f884 003e 	strb.w	r0, [r4, #62]	; 0x3e
 8002296:	2000      	movs	r0, #0
 8002298:	6420      	str	r0, [r4, #64]	; 0x40
 800229a:	f8a4 a02a 	strh.w	sl, [r4, #42]	; 0x2a
 800229e:	8d60      	ldrh	r0, [r4, #42]	; 0x2a
 80022a0:	8520      	strh	r0, [r4, #40]	; 0x28
 80022a2:	4857      	ldr	r0, [pc, #348]	; (8002400 <HAL_I2C_Mem_Write+0x1e4>)
 80022a4:	62e0      	str	r0, [r4, #44]	; 0x2c
 80022a6:	464b      	mov	r3, r9
 80022a8:	4642      	mov	r2, r8
 80022aa:	4620      	mov	r0, r4
 80022ac:	f7ff fca4 	bl	8001bf8 <I2C_RequestMemoryWrite>
 80022b0:	4607      	mov	r7, r0
 80022b2:	b9f8      	cbnz	r0, 80022f4 <HAL_I2C_Mem_Write+0xd8>
 80022b4:	8d23      	ldrh	r3, [r4, #40]	; 0x28
 80022b6:	2b00      	cmp	r3, #0
 80022b8:	f000 80a0 	beq.w	80023fc <HAL_I2C_Mem_Write+0x1e0>
 80022bc:	6823      	ldr	r3, [r4, #0]
 80022be:	1c72      	adds	r2, r6, #1
 80022c0:	d158      	bne.n	8002374 <HAL_I2C_Mem_Write+0x158>
 80022c2:	695a      	ldr	r2, [r3, #20]
 80022c4:	0610      	lsls	r0, r2, #24
 80022c6:	d41a      	bmi.n	80022fe <HAL_I2C_Mem_Write+0xe2>
 80022c8:	695a      	ldr	r2, [r3, #20]
 80022ca:	0551      	lsls	r1, r2, #21
 80022cc:	d5f9      	bpl.n	80022c2 <HAL_I2C_Mem_Write+0xa6>
 80022ce:	2200      	movs	r2, #0
 80022d0:	f46f 6080 	mvn.w	r0, #1024	; 0x400
 80022d4:	2120      	movs	r1, #32
 80022d6:	6158      	str	r0, [r3, #20]
 80022d8:	6322      	str	r2, [r4, #48]	; 0x30
 80022da:	f884 103d 	strb.w	r1, [r4, #61]	; 0x3d
 80022de:	f884 203e 	strb.w	r2, [r4, #62]	; 0x3e
 80022e2:	6c23      	ldr	r3, [r4, #64]	; 0x40
 80022e4:	f884 203c 	strb.w	r2, [r4, #60]	; 0x3c
 80022e8:	f043 0304 	orr.w	r3, r3, #4
 80022ec:	6423      	str	r3, [r4, #64]	; 0x40
 80022ee:	6c23      	ldr	r3, [r4, #64]	; 0x40
 80022f0:	2b04      	cmp	r3, #4
 80022f2:	d038      	beq.n	8002366 <HAL_I2C_Mem_Write+0x14a>
 80022f4:	2701      	movs	r7, #1
 80022f6:	4638      	mov	r0, r7
 80022f8:	b003      	add	sp, #12
 80022fa:	e8bd 8ff0 	ldmia.w	sp!, {r4, r5, r6, r7, r8, r9, sl, fp, pc}
 80022fe:	f8d4 c024 	ldr.w	ip, [r4, #36]	; 0x24
 8002302:	f8b4 e028 	ldrh.w	lr, [r4, #40]	; 0x28
 8002306:	4661      	mov	r1, ip
 8002308:	f10e 30ff 	add.w	r0, lr, #4294967295
 800230c:	f811 2b01 	ldrb.w	r2, [r1], #1
 8002310:	611a      	str	r2, [r3, #16]
 8002312:	8d62      	ldrh	r2, [r4, #42]	; 0x2a
 8002314:	6261      	str	r1, [r4, #36]	; 0x24
 8002316:	3a01      	subs	r2, #1
 8002318:	b292      	uxth	r2, r2
 800231a:	8562      	strh	r2, [r4, #42]	; 0x2a
 800231c:	b282      	uxth	r2, r0
 800231e:	6958      	ldr	r0, [r3, #20]
 8002320:	8522      	strh	r2, [r4, #40]	; 0x28
 8002322:	0740      	lsls	r0, r0, #29
 8002324:	d517      	bpl.n	8002356 <HAL_I2C_Mem_Write+0x13a>
 8002326:	b942      	cbnz	r2, 800233a <HAL_I2C_Mem_Write+0x11e>
 8002328:	1c72      	adds	r2, r6, #1
 800232a:	d159      	bne.n	80023e0 <HAL_I2C_Mem_Write+0x1c4>
 800232c:	695a      	ldr	r2, [r3, #20]
 800232e:	0750      	lsls	r0, r2, #29
 8002330:	d449      	bmi.n	80023c6 <HAL_I2C_Mem_Write+0x1aa>
 8002332:	695a      	ldr	r2, [r3, #20]
 8002334:	0551      	lsls	r1, r2, #21
 8002336:	d5f9      	bpl.n	800232c <HAL_I2C_Mem_Write+0x110>
 8002338:	e7c9      	b.n	80022ce <HAL_I2C_Mem_Write+0xb2>
 800233a:	f89c 1001 	ldrb.w	r1, [ip, #1]
 800233e:	6119      	str	r1, [r3, #16]
 8002340:	f10c 0102 	add.w	r1, ip, #2
 8002344:	6261      	str	r1, [r4, #36]	; 0x24
 8002346:	8d61      	ldrh	r1, [r4, #42]	; 0x2a
 8002348:	f1ae 0202 	sub.w	r2, lr, #2
 800234c:	3901      	subs	r1, #1
 800234e:	b292      	uxth	r2, r2
 8002350:	b289      	uxth	r1, r1
 8002352:	8522      	strh	r2, [r4, #40]	; 0x28
 8002354:	8561      	strh	r1, [r4, #42]	; 0x2a
 8002356:	2a00      	cmp	r2, #0
 8002358:	d1b1      	bne.n	80022be <HAL_I2C_Mem_Write+0xa2>
 800235a:	e7e5      	b.n	8002328 <HAL_I2C_Mem_Write+0x10c>
 800235c:	6803      	ldr	r3, [r0, #0]
 800235e:	f043 0301 	orr.w	r3, r3, #1
 8002362:	6003      	str	r3, [r0, #0]
 8002364:	e788      	b.n	8002278 <HAL_I2C_Mem_Write+0x5c>
 8002366:	6822      	ldr	r2, [r4, #0]
 8002368:	6813      	ldr	r3, [r2, #0]
 800236a:	f443 7300 	orr.w	r3, r3, #512	; 0x200
 800236e:	2701      	movs	r7, #1
 8002370:	6013      	str	r3, [r2, #0]
 8002372:	e764      	b.n	800223e <HAL_I2C_Mem_Write+0x22>
 8002374:	695a      	ldr	r2, [r3, #20]
 8002376:	0612      	lsls	r2, r2, #24
 8002378:	d4c1      	bmi.n	80022fe <HAL_I2C_Mem_Write+0xe2>
 800237a:	695a      	ldr	r2, [r3, #20]
 800237c:	0551      	lsls	r1, r2, #21
 800237e:	d4a6      	bmi.n	80022ce <HAL_I2C_Mem_Write+0xb2>
 8002380:	f7ff f8e6 	bl	8001550 <HAL_GetTick>
 8002384:	1b40      	subs	r0, r0, r5
 8002386:	4286      	cmp	r6, r0
 8002388:	d301      	bcc.n	800238e <HAL_I2C_Mem_Write+0x172>
 800238a:	2e00      	cmp	r6, #0
 800238c:	d196      	bne.n	80022bc <HAL_I2C_Mem_Write+0xa0>
 800238e:	2200      	movs	r2, #0
 8002390:	2320      	movs	r3, #32
 8002392:	6322      	str	r2, [r4, #48]	; 0x30
 8002394:	f884 303d 	strb.w	r3, [r4, #61]	; 0x3d
 8002398:	f884 203e 	strb.w	r2, [r4, #62]	; 0x3e
 800239c:	6c23      	ldr	r3, [r4, #64]	; 0x40
 800239e:	f884 203c 	strb.w	r2, [r4, #60]	; 0x3c
 80023a2:	f043 0320 	orr.w	r3, r3, #32
 80023a6:	6423      	str	r3, [r4, #64]	; 0x40
 80023a8:	e7a1      	b.n	80022ee <HAL_I2C_Mem_Write+0xd2>
 80023aa:	2320      	movs	r3, #32
 80023ac:	f8c4 b030 	str.w	fp, [r4, #48]	; 0x30
 80023b0:	f884 303d 	strb.w	r3, [r4, #61]	; 0x3d
 80023b4:	f884 b03e 	strb.w	fp, [r4, #62]	; 0x3e
 80023b8:	6c23      	ldr	r3, [r4, #64]	; 0x40
 80023ba:	f884 b03c 	strb.w	fp, [r4, #60]	; 0x3c
 80023be:	f043 0320 	orr.w	r3, r3, #32
 80023c2:	6423      	str	r3, [r4, #64]	; 0x40
 80023c4:	e73a      	b.n	800223c <HAL_I2C_Mem_Write+0x20>
 80023c6:	681a      	ldr	r2, [r3, #0]
 80023c8:	2100      	movs	r1, #0
 80023ca:	f442 7200 	orr.w	r2, r2, #512	; 0x200
 80023ce:	2020      	movs	r0, #32
 80023d0:	601a      	str	r2, [r3, #0]
 80023d2:	f884 003d 	strb.w	r0, [r4, #61]	; 0x3d
 80023d6:	f884 103c 	strb.w	r1, [r4, #60]	; 0x3c
 80023da:	f884 103e 	strb.w	r1, [r4, #62]	; 0x3e
 80023de:	e72e      	b.n	800223e <HAL_I2C_Mem_Write+0x22>
 80023e0:	695a      	ldr	r2, [r3, #20]
 80023e2:	0752      	lsls	r2, r2, #29
 80023e4:	d4ef      	bmi.n	80023c6 <HAL_I2C_Mem_Write+0x1aa>
 80023e6:	695a      	ldr	r2, [r3, #20]
 80023e8:	0551      	lsls	r1, r2, #21
 80023ea:	f53f af70 	bmi.w	80022ce <HAL_I2C_Mem_Write+0xb2>
 80023ee:	f7ff f8af 	bl	8001550 <HAL_GetTick>
 80023f2:	1b40      	subs	r0, r0, r5
 80023f4:	4286      	cmp	r6, r0
 80023f6:	d3ca      	bcc.n	800238e <HAL_I2C_Mem_Write+0x172>
 80023f8:	2e00      	cmp	r6, #0
 80023fa:	d0c8      	beq.n	800238e <HAL_I2C_Mem_Write+0x172>
 80023fc:	6823      	ldr	r3, [r4, #0]
 80023fe:	e793      	b.n	8002328 <HAL_I2C_Mem_Write+0x10c>
 8002400:	ffff0000 	.word	0xffff0000

08002404 <HAL_I2C_Mem_Read>:
 8002404:	e92d 4ff0 	stmdb	sp!, {r4, r5, r6, r7, r8, r9, sl, fp, lr}
 8002408:	4604      	mov	r4, r0
 800240a:	b087      	sub	sp, #28
 800240c:	4699      	mov	r9, r3
 800240e:	f8bd a044 	ldrh.w	sl, [sp, #68]	; 0x44
 8002412:	9d12      	ldr	r5, [sp, #72]	; 0x48
 8002414:	460f      	mov	r7, r1
 8002416:	4690      	mov	r8, r2
 8002418:	f7ff f89a 	bl	8001550 <HAL_GetTick>
 800241c:	f894 303d 	ldrb.w	r3, [r4, #61]	; 0x3d
 8002420:	2b20      	cmp	r3, #32
 8002422:	d004      	beq.n	800242e <HAL_I2C_Mem_Read+0x2a>
 8002424:	2702      	movs	r7, #2
 8002426:	4638      	mov	r0, r7
 8002428:	b007      	add	sp, #28
 800242a:	e8bd 8ff0 	ldmia.w	sp!, {r4, r5, r6, r7, r8, r9, sl, fp, pc}
 800242e:	4606      	mov	r6, r0
 8002430:	e005      	b.n	800243e <HAL_I2C_Mem_Read+0x3a>
 8002432:	f7ff f88d 	bl	8001550 <HAL_GetTick>
 8002436:	1b80      	subs	r0, r0, r6
 8002438:	2819      	cmp	r0, #25
 800243a:	f200 80d2 	bhi.w	80025e2 <HAL_I2C_Mem_Read+0x1de>
 800243e:	f8d4 c000 	ldr.w	ip, [r4]
 8002442:	f8dc 0018 	ldr.w	r0, [ip, #24]
 8002446:	43c0      	mvns	r0, r0
 8002448:	f010 0b02 	ands.w	fp, r0, #2
 800244c:	d0f1      	beq.n	8002432 <HAL_I2C_Mem_Read+0x2e>
 800244e:	f894 303c 	ldrb.w	r3, [r4, #60]	; 0x3c
 8002452:	2b01      	cmp	r3, #1
 8002454:	d0e6      	beq.n	8002424 <HAL_I2C_Mem_Read+0x20>
 8002456:	2301      	movs	r3, #1
 8002458:	f884 303c 	strb.w	r3, [r4, #60]	; 0x3c
 800245c:	f8dc 3000 	ldr.w	r3, [ip]
 8002460:	07d9      	lsls	r1, r3, #31
 8002462:	d537      	bpl.n	80024d4 <HAL_I2C_Mem_Read+0xd0>
 8002464:	f8dc 0000 	ldr.w	r0, [ip]
 8002468:	f420 6000 	bic.w	r0, r0, #2048	; 0x800
 800246c:	f8cc 0000 	str.w	r0, [ip]
 8002470:	9810      	ldr	r0, [sp, #64]	; 0x40
 8002472:	6260      	str	r0, [r4, #36]	; 0x24
 8002474:	2022      	movs	r0, #34	; 0x22
 8002476:	e9cd 5600 	strd	r5, r6, [sp]
 800247a:	f884 003d 	strb.w	r0, [r4, #61]	; 0x3d
 800247e:	2040      	movs	r0, #64	; 0x40
 8002480:	f884 003e 	strb.w	r0, [r4, #62]	; 0x3e
 8002484:	2000      	movs	r0, #0
 8002486:	6420      	str	r0, [r4, #64]	; 0x40
 8002488:	f8a4 a02a 	strh.w	sl, [r4, #42]	; 0x2a
 800248c:	8d60      	ldrh	r0, [r4, #42]	; 0x2a
 800248e:	8520      	strh	r0, [r4, #40]	; 0x28
 8002490:	4893      	ldr	r0, [pc, #588]	; (80026e0 <HAL_I2C_Mem_Read+0x2dc>)
 8002492:	62e0      	str	r0, [r4, #44]	; 0x2c
 8002494:	4639      	mov	r1, r7
 8002496:	464b      	mov	r3, r9
 8002498:	4642      	mov	r2, r8
 800249a:	4620      	mov	r0, r4
 800249c:	f7ff fca2 	bl	8001de4 <I2C_RequestMemoryRead>
 80024a0:	4607      	mov	r7, r0
 80024a2:	2800      	cmp	r0, #0
 80024a4:	f040 80ab 	bne.w	80025fe <HAL_I2C_Mem_Read+0x1fa>
 80024a8:	8d22      	ldrh	r2, [r4, #40]	; 0x28
 80024aa:	b9d2      	cbnz	r2, 80024e2 <HAL_I2C_Mem_Read+0xde>
 80024ac:	6823      	ldr	r3, [r4, #0]
 80024ae:	9002      	str	r0, [sp, #8]
 80024b0:	695a      	ldr	r2, [r3, #20]
 80024b2:	9202      	str	r2, [sp, #8]
 80024b4:	699a      	ldr	r2, [r3, #24]
 80024b6:	9202      	str	r2, [sp, #8]
 80024b8:	9a02      	ldr	r2, [sp, #8]
 80024ba:	681a      	ldr	r2, [r3, #0]
 80024bc:	f442 7200 	orr.w	r2, r2, #512	; 0x200
 80024c0:	601a      	str	r2, [r3, #0]
 80024c2:	2300      	movs	r3, #0
 80024c4:	2220      	movs	r2, #32
 80024c6:	f884 203d 	strb.w	r2, [r4, #61]	; 0x3d
 80024ca:	f884 303c 	strb.w	r3, [r4, #60]	; 0x3c
 80024ce:	f884 303e 	strb.w	r3, [r4, #62]	; 0x3e
 80024d2:	e7a8      	b.n	8002426 <HAL_I2C_Mem_Read+0x22>
 80024d4:	f8dc 3000 	ldr.w	r3, [ip]
 80024d8:	f043 0301 	orr.w	r3, r3, #1
 80024dc:	f8cc 3000 	str.w	r3, [ip]
 80024e0:	e7c0      	b.n	8002464 <HAL_I2C_Mem_Read+0x60>
 80024e2:	2a01      	cmp	r2, #1
 80024e4:	f000 812c 	beq.w	8002740 <HAL_I2C_Mem_Read+0x33c>
 80024e8:	2a02      	cmp	r2, #2
 80024ea:	f000 80bd 	beq.w	8002668 <HAL_I2C_Mem_Read+0x264>
 80024ee:	6823      	ldr	r3, [r4, #0]
 80024f0:	9005      	str	r0, [sp, #20]
 80024f2:	6959      	ldr	r1, [r3, #20]
 80024f4:	9105      	str	r1, [sp, #20]
 80024f6:	6999      	ldr	r1, [r3, #24]
 80024f8:	9105      	str	r1, [sp, #20]
 80024fa:	9905      	ldr	r1, [sp, #20]
 80024fc:	2a03      	cmp	r2, #3
 80024fe:	d849      	bhi.n	8002594 <HAL_I2C_Mem_Read+0x190>
 8002500:	2a01      	cmp	r2, #1
 8002502:	f000 80eb 	beq.w	80026dc <HAL_I2C_Mem_Read+0x2d8>
 8002506:	2a02      	cmp	r2, #2
 8002508:	f000 8089 	beq.w	800261e <HAL_I2C_Mem_Read+0x21a>
 800250c:	1c69      	adds	r1, r5, #1
 800250e:	f040 80bb 	bne.w	8002688 <HAL_I2C_Mem_Read+0x284>
 8002512:	695a      	ldr	r2, [r3, #20]
 8002514:	0752      	lsls	r2, r2, #29
 8002516:	d5fc      	bpl.n	8002512 <HAL_I2C_Mem_Read+0x10e>
 8002518:	681a      	ldr	r2, [r3, #0]
 800251a:	6a61      	ldr	r1, [r4, #36]	; 0x24
 800251c:	f422 6280 	bic.w	r2, r2, #1024	; 0x400
 8002520:	601a      	str	r2, [r3, #0]
 8002522:	691b      	ldr	r3, [r3, #16]
 8002524:	700b      	strb	r3, [r1, #0]
 8002526:	8d63      	ldrh	r3, [r4, #42]	; 0x2a
 8002528:	6a61      	ldr	r1, [r4, #36]	; 0x24
 800252a:	8d22      	ldrh	r2, [r4, #40]	; 0x28
 800252c:	3b01      	subs	r3, #1
 800252e:	3101      	adds	r1, #1
 8002530:	3a01      	subs	r2, #1
 8002532:	b29b      	uxth	r3, r3
 8002534:	6261      	str	r1, [r4, #36]	; 0x24
 8002536:	8522      	strh	r2, [r4, #40]	; 0x28
 8002538:	8563      	strh	r3, [r4, #42]	; 0x2a
 800253a:	1c69      	adds	r1, r5, #1
 800253c:	6822      	ldr	r2, [r4, #0]
 800253e:	f040 80af 	bne.w	80026a0 <HAL_I2C_Mem_Read+0x29c>
 8002542:	6953      	ldr	r3, [r2, #20]
 8002544:	075b      	lsls	r3, r3, #29
 8002546:	d5fc      	bpl.n	8002542 <HAL_I2C_Mem_Read+0x13e>
 8002548:	6813      	ldr	r3, [r2, #0]
 800254a:	6a61      	ldr	r1, [r4, #36]	; 0x24
 800254c:	f443 7300 	orr.w	r3, r3, #512	; 0x200
 8002550:	6013      	str	r3, [r2, #0]
 8002552:	6913      	ldr	r3, [r2, #16]
 8002554:	700b      	strb	r3, [r1, #0]
 8002556:	8d63      	ldrh	r3, [r4, #42]	; 0x2a
 8002558:	8d22      	ldrh	r2, [r4, #40]	; 0x28
 800255a:	6a60      	ldr	r0, [r4, #36]	; 0x24
 800255c:	6821      	ldr	r1, [r4, #0]
 800255e:	3b01      	subs	r3, #1
 8002560:	b29b      	uxth	r3, r3
 8002562:	8563      	strh	r3, [r4, #42]	; 0x2a
 8002564:	6909      	ldr	r1, [r1, #16]
 8002566:	1e53      	subs	r3, r2, #1
 8002568:	f100 0c01 	add.w	ip, r0, #1
 800256c:	8523      	strh	r3, [r4, #40]	; 0x28
 800256e:	f8c4 c024 	str.w	ip, [r4, #36]	; 0x24
 8002572:	7041      	strb	r1, [r0, #1]
 8002574:	8d22      	ldrh	r2, [r4, #40]	; 0x28
 8002576:	8d63      	ldrh	r3, [r4, #42]	; 0x2a
 8002578:	6a61      	ldr	r1, [r4, #36]	; 0x24
 800257a:	3a01      	subs	r2, #1
 800257c:	3b01      	subs	r3, #1
 800257e:	3101      	adds	r1, #1
 8002580:	b292      	uxth	r2, r2
 8002582:	b29b      	uxth	r3, r3
 8002584:	6261      	str	r1, [r4, #36]	; 0x24
 8002586:	8522      	strh	r2, [r4, #40]	; 0x28
 8002588:	8563      	strh	r3, [r4, #42]	; 0x2a
 800258a:	2a00      	cmp	r2, #0
 800258c:	d099      	beq.n	80024c2 <HAL_I2C_Mem_Read+0xbe>
 800258e:	2a03      	cmp	r2, #3
 8002590:	6823      	ldr	r3, [r4, #0]
 8002592:	d9b5      	bls.n	8002500 <HAL_I2C_Mem_Read+0xfc>
 8002594:	b95d      	cbnz	r5, 80025ae <HAL_I2C_Mem_Read+0x1aa>
 8002596:	e0c5      	b.n	8002724 <HAL_I2C_Mem_Read+0x320>
 8002598:	695a      	ldr	r2, [r3, #20]
 800259a:	06d0      	lsls	r0, r2, #27
 800259c:	f100 80b2 	bmi.w	8002704 <HAL_I2C_Mem_Read+0x300>
 80025a0:	f7fe ffd6 	bl	8001550 <HAL_GetTick>
 80025a4:	1b80      	subs	r0, r0, r6
 80025a6:	4285      	cmp	r5, r0
 80025a8:	f0c0 8086 	bcc.w	80026b8 <HAL_I2C_Mem_Read+0x2b4>
 80025ac:	6823      	ldr	r3, [r4, #0]
 80025ae:	695a      	ldr	r2, [r3, #20]
 80025b0:	0652      	lsls	r2, r2, #25
 80025b2:	d5f1      	bpl.n	8002598 <HAL_I2C_Mem_Read+0x194>
 80025b4:	6a62      	ldr	r2, [r4, #36]	; 0x24
 80025b6:	691b      	ldr	r3, [r3, #16]
 80025b8:	7013      	strb	r3, [r2, #0]
 80025ba:	8d63      	ldrh	r3, [r4, #42]	; 0x2a
 80025bc:	6820      	ldr	r0, [r4, #0]
 80025be:	8d22      	ldrh	r2, [r4, #40]	; 0x28
 80025c0:	6a61      	ldr	r1, [r4, #36]	; 0x24
 80025c2:	3b01      	subs	r3, #1
 80025c4:	b29b      	uxth	r3, r3
 80025c6:	8563      	strh	r3, [r4, #42]	; 0x2a
 80025c8:	6943      	ldr	r3, [r0, #20]
 80025ca:	3a01      	subs	r2, #1
 80025cc:	b292      	uxth	r2, r2
 80025ce:	f101 0c01 	add.w	ip, r1, #1
 80025d2:	075b      	lsls	r3, r3, #29
 80025d4:	8522      	strh	r2, [r4, #40]	; 0x28
 80025d6:	f8c4 c024 	str.w	ip, [r4, #36]	; 0x24
 80025da:	d5d6      	bpl.n	800258a <HAL_I2C_Mem_Read+0x186>
 80025dc:	6903      	ldr	r3, [r0, #16]
 80025de:	704b      	strb	r3, [r1, #1]
 80025e0:	e036      	b.n	8002650 <HAL_I2C_Mem_Read+0x24c>
 80025e2:	2320      	movs	r3, #32
 80025e4:	f8c4 b030 	str.w	fp, [r4, #48]	; 0x30
 80025e8:	f884 303d 	strb.w	r3, [r4, #61]	; 0x3d
 80025ec:	f884 b03e 	strb.w	fp, [r4, #62]	; 0x3e
 80025f0:	6c23      	ldr	r3, [r4, #64]	; 0x40
 80025f2:	f884 b03c 	strb.w	fp, [r4, #60]	; 0x3c
 80025f6:	f043 0320 	orr.w	r3, r3, #32
 80025fa:	6423      	str	r3, [r4, #64]	; 0x40
 80025fc:	e712      	b.n	8002424 <HAL_I2C_Mem_Read+0x20>
 80025fe:	2701      	movs	r7, #1
 8002600:	4638      	mov	r0, r7
 8002602:	b007      	add	sp, #28
 8002604:	e8bd 8ff0 	ldmia.w	sp!, {r4, r5, r6, r7, r8, r9, sl, fp, pc}
 8002608:	695a      	ldr	r2, [r3, #20]
 800260a:	0750      	lsls	r0, r2, #29
 800260c:	d40c      	bmi.n	8002628 <HAL_I2C_Mem_Read+0x224>
 800260e:	f7fe ff9f 	bl	8001550 <HAL_GetTick>
 8002612:	1b80      	subs	r0, r0, r6
 8002614:	4285      	cmp	r5, r0
 8002616:	d34f      	bcc.n	80026b8 <HAL_I2C_Mem_Read+0x2b4>
 8002618:	2d00      	cmp	r5, #0
 800261a:	d04d      	beq.n	80026b8 <HAL_I2C_Mem_Read+0x2b4>
 800261c:	6823      	ldr	r3, [r4, #0]
 800261e:	1c69      	adds	r1, r5, #1
 8002620:	d1f2      	bne.n	8002608 <HAL_I2C_Mem_Read+0x204>
 8002622:	695a      	ldr	r2, [r3, #20]
 8002624:	0752      	lsls	r2, r2, #29
 8002626:	d5fc      	bpl.n	8002622 <HAL_I2C_Mem_Read+0x21e>
 8002628:	681a      	ldr	r2, [r3, #0]
 800262a:	f442 7200 	orr.w	r2, r2, #512	; 0x200
 800262e:	601a      	str	r2, [r3, #0]
 8002630:	691a      	ldr	r2, [r3, #16]
 8002632:	6a63      	ldr	r3, [r4, #36]	; 0x24
 8002634:	701a      	strb	r2, [r3, #0]
 8002636:	8d63      	ldrh	r3, [r4, #42]	; 0x2a
 8002638:	6a62      	ldr	r2, [r4, #36]	; 0x24
 800263a:	3b01      	subs	r3, #1
 800263c:	b29b      	uxth	r3, r3
 800263e:	8563      	strh	r3, [r4, #42]	; 0x2a
 8002640:	8d23      	ldrh	r3, [r4, #40]	; 0x28
 8002642:	3b01      	subs	r3, #1
 8002644:	8523      	strh	r3, [r4, #40]	; 0x28
 8002646:	6823      	ldr	r3, [r4, #0]
 8002648:	1c51      	adds	r1, r2, #1
 800264a:	691b      	ldr	r3, [r3, #16]
 800264c:	6261      	str	r1, [r4, #36]	; 0x24
 800264e:	7053      	strb	r3, [r2, #1]
 8002650:	6a63      	ldr	r3, [r4, #36]	; 0x24
 8002652:	8d22      	ldrh	r2, [r4, #40]	; 0x28
 8002654:	3301      	adds	r3, #1
 8002656:	6263      	str	r3, [r4, #36]	; 0x24
 8002658:	8d63      	ldrh	r3, [r4, #42]	; 0x2a
 800265a:	3a01      	subs	r2, #1
 800265c:	3b01      	subs	r3, #1
 800265e:	b292      	uxth	r2, r2
 8002660:	b29b      	uxth	r3, r3
 8002662:	8522      	strh	r2, [r4, #40]	; 0x28
 8002664:	8563      	strh	r3, [r4, #42]	; 0x2a
 8002666:	e790      	b.n	800258a <HAL_I2C_Mem_Read+0x186>
 8002668:	6823      	ldr	r3, [r4, #0]
 800266a:	6819      	ldr	r1, [r3, #0]
 800266c:	f421 6180 	bic.w	r1, r1, #1024	; 0x400
 8002670:	6019      	str	r1, [r3, #0]
 8002672:	6819      	ldr	r1, [r3, #0]
 8002674:	f441 6100 	orr.w	r1, r1, #2048	; 0x800
 8002678:	6019      	str	r1, [r3, #0]
 800267a:	9004      	str	r0, [sp, #16]
 800267c:	6959      	ldr	r1, [r3, #20]
 800267e:	9104      	str	r1, [sp, #16]
 8002680:	6999      	ldr	r1, [r3, #24]
 8002682:	9104      	str	r1, [sp, #16]
 8002684:	9904      	ldr	r1, [sp, #16]
 8002686:	e739      	b.n	80024fc <HAL_I2C_Mem_Read+0xf8>
 8002688:	695a      	ldr	r2, [r3, #20]
 800268a:	0750      	lsls	r0, r2, #29
 800268c:	f53f af44 	bmi.w	8002518 <HAL_I2C_Mem_Read+0x114>
 8002690:	f7fe ff5e 	bl	8001550 <HAL_GetTick>
 8002694:	1b80      	subs	r0, r0, r6
 8002696:	4285      	cmp	r5, r0
 8002698:	d30e      	bcc.n	80026b8 <HAL_I2C_Mem_Read+0x2b4>
 800269a:	b16d      	cbz	r5, 80026b8 <HAL_I2C_Mem_Read+0x2b4>
 800269c:	6823      	ldr	r3, [r4, #0]
 800269e:	e735      	b.n	800250c <HAL_I2C_Mem_Read+0x108>
 80026a0:	6953      	ldr	r3, [r2, #20]
 80026a2:	0758      	lsls	r0, r3, #29
 80026a4:	f53f af50 	bmi.w	8002548 <HAL_I2C_Mem_Read+0x144>
 80026a8:	f7fe ff52 	bl	8001550 <HAL_GetTick>
 80026ac:	1b80      	subs	r0, r0, r6
 80026ae:	4285      	cmp	r5, r0
 80026b0:	d302      	bcc.n	80026b8 <HAL_I2C_Mem_Read+0x2b4>
 80026b2:	2d00      	cmp	r5, #0
 80026b4:	f47f af41 	bne.w	800253a <HAL_I2C_Mem_Read+0x136>
 80026b8:	2200      	movs	r2, #0
 80026ba:	2320      	movs	r3, #32
 80026bc:	6322      	str	r2, [r4, #48]	; 0x30
 80026be:	f884 303d 	strb.w	r3, [r4, #61]	; 0x3d
 80026c2:	f884 203e 	strb.w	r2, [r4, #62]	; 0x3e
 80026c6:	6c23      	ldr	r3, [r4, #64]	; 0x40
 80026c8:	f884 203c 	strb.w	r2, [r4, #60]	; 0x3c
 80026cc:	2701      	movs	r7, #1
 80026ce:	f043 0320 	orr.w	r3, r3, #32
 80026d2:	4638      	mov	r0, r7
 80026d4:	6423      	str	r3, [r4, #64]	; 0x40
 80026d6:	b007      	add	sp, #28
 80026d8:	e8bd 8ff0 	ldmia.w	sp!, {r4, r5, r6, r7, r8, r9, sl, fp, pc}
 80026dc:	b95d      	cbnz	r5, 80026f6 <HAL_I2C_Mem_Read+0x2f2>
 80026de:	e02b      	b.n	8002738 <HAL_I2C_Mem_Read+0x334>
 80026e0:	ffff0000 	.word	0xffff0000
 80026e4:	695a      	ldr	r2, [r3, #20]
 80026e6:	06d2      	lsls	r2, r2, #27
 80026e8:	d40c      	bmi.n	8002704 <HAL_I2C_Mem_Read+0x300>
 80026ea:	f7fe ff31 	bl	8001550 <HAL_GetTick>
 80026ee:	1b80      	subs	r0, r0, r6
 80026f0:	4285      	cmp	r5, r0
 80026f2:	d3e1      	bcc.n	80026b8 <HAL_I2C_Mem_Read+0x2b4>
 80026f4:	6823      	ldr	r3, [r4, #0]
 80026f6:	695a      	ldr	r2, [r3, #20]
 80026f8:	0651      	lsls	r1, r2, #25
 80026fa:	d5f3      	bpl.n	80026e4 <HAL_I2C_Mem_Read+0x2e0>
 80026fc:	691a      	ldr	r2, [r3, #16]
 80026fe:	6a63      	ldr	r3, [r4, #36]	; 0x24
 8002700:	701a      	strb	r2, [r3, #0]
 8002702:	e7a5      	b.n	8002650 <HAL_I2C_Mem_Read+0x24c>
 8002704:	2200      	movs	r2, #0
 8002706:	f06f 0010 	mvn.w	r0, #16
 800270a:	2120      	movs	r1, #32
 800270c:	6158      	str	r0, [r3, #20]
 800270e:	6322      	str	r2, [r4, #48]	; 0x30
 8002710:	f884 103d 	strb.w	r1, [r4, #61]	; 0x3d
 8002714:	f884 203e 	strb.w	r2, [r4, #62]	; 0x3e
 8002718:	6c23      	ldr	r3, [r4, #64]	; 0x40
 800271a:	6423      	str	r3, [r4, #64]	; 0x40
 800271c:	f884 203c 	strb.w	r2, [r4, #60]	; 0x3c
 8002720:	2701      	movs	r7, #1
 8002722:	e680      	b.n	8002426 <HAL_I2C_Mem_Read+0x22>
 8002724:	695a      	ldr	r2, [r3, #20]
 8002726:	0652      	lsls	r2, r2, #25
 8002728:	f53f af44 	bmi.w	80025b4 <HAL_I2C_Mem_Read+0x1b0>
 800272c:	695a      	ldr	r2, [r3, #20]
 800272e:	06d1      	lsls	r1, r2, #27
 8002730:	d4e8      	bmi.n	8002704 <HAL_I2C_Mem_Read+0x300>
 8002732:	f7fe ff0d 	bl	8001550 <HAL_GetTick>
 8002736:	e7bf      	b.n	80026b8 <HAL_I2C_Mem_Read+0x2b4>
 8002738:	695a      	ldr	r2, [r3, #20]
 800273a:	0650      	lsls	r0, r2, #25
 800273c:	d5f6      	bpl.n	800272c <HAL_I2C_Mem_Read+0x328>
 800273e:	e7dd      	b.n	80026fc <HAL_I2C_Mem_Read+0x2f8>
 8002740:	6823      	ldr	r3, [r4, #0]
 8002742:	6819      	ldr	r1, [r3, #0]
 8002744:	f421 6180 	bic.w	r1, r1, #1024	; 0x400
 8002748:	6019      	str	r1, [r3, #0]
 800274a:	9003      	str	r0, [sp, #12]
 800274c:	6959      	ldr	r1, [r3, #20]
 800274e:	9103      	str	r1, [sp, #12]
 8002750:	6999      	ldr	r1, [r3, #24]
 8002752:	9103      	str	r1, [sp, #12]
 8002754:	9903      	ldr	r1, [sp, #12]
 8002756:	6819      	ldr	r1, [r3, #0]
 8002758:	f441 7100 	orr.w	r1, r1, #512	; 0x200
 800275c:	6019      	str	r1, [r3, #0]
 800275e:	e6cd      	b.n	80024fc <HAL_I2C_Mem_Read+0xf8>

08002760 <HAL_PCD_Init>:
 8002760:	b5f0      	push	{r4, r5, r6, r7, lr}
 8002762:	b08b      	sub	sp, #44	; 0x2c
 8002764:	2800      	cmp	r0, #0
 8002766:	f000 8085 	beq.w	8002874 <HAL_PCD_Init+0x114>
 800276a:	f890 34bd 	ldrb.w	r3, [r0, #1213]	; 0x4bd
 800276e:	6804      	ldr	r4, [r0, #0]
 8002770:	4605      	mov	r5, r0
 8002772:	f003 02ff 	and.w	r2, r3, #255	; 0xff
 8002776:	2b00      	cmp	r3, #0
 8002778:	d076      	beq.n	8002868 <HAL_PCD_Init+0x108>
 800277a:	4620      	mov	r0, r4
 800277c:	2303      	movs	r3, #3
 800277e:	f885 34bd 	strb.w	r3, [r5, #1213]	; 0x4bd
 8002782:	6be3      	ldr	r3, [r4, #60]	; 0x3c
 8002784:	462e      	mov	r6, r5
 8002786:	f413 7380 	ands.w	r3, r3, #256	; 0x100
 800278a:	bf08      	it	eq
 800278c:	612b      	streq	r3, [r5, #16]
 800278e:	f002 f907 	bl	80049a0 <USB_DisableGlobalInt>
 8002792:	f856 eb10 	ldr.w	lr, [r6], #16
 8002796:	46b4      	mov	ip, r6
 8002798:	e8bc 000f 	ldmia.w	ip!, {r0, r1, r2, r3}
 800279c:	466c      	mov	r4, sp
 800279e:	c40f      	stmia	r4!, {r0, r1, r2, r3}
 80027a0:	e8bc 000f 	ldmia.w	ip!, {r0, r1, r2, r3}
 80027a4:	c40f      	stmia	r4!, {r0, r1, r2, r3}
 80027a6:	e89c 0003 	ldmia.w	ip, {r0, r1}
 80027aa:	e884 0003 	stmia.w	r4, {r0, r1}
 80027ae:	1d2f      	adds	r7, r5, #4
 80027b0:	e897 000e 	ldmia.w	r7, {r1, r2, r3}
 80027b4:	4670      	mov	r0, lr
 80027b6:	f001 ffef 	bl	8004798 <USB_CoreInit>
 80027ba:	4604      	mov	r4, r0
 80027bc:	b130      	cbz	r0, 80027cc <HAL_PCD_Init+0x6c>
 80027be:	2401      	movs	r4, #1
 80027c0:	2302      	movs	r3, #2
 80027c2:	4620      	mov	r0, r4
 80027c4:	f885 34bd 	strb.w	r3, [r5, #1213]	; 0x4bd
 80027c8:	b00b      	add	sp, #44	; 0x2c
 80027ca:	bdf0      	pop	{r4, r5, r6, r7, pc}
 80027cc:	4601      	mov	r1, r0
 80027ce:	6828      	ldr	r0, [r5, #0]
 80027d0:	f002 f8ee 	bl	80049b0 <USB_SetCurrentMode>
 80027d4:	6868      	ldr	r0, [r5, #4]
 80027d6:	b358      	cbz	r0, 8002830 <HAL_PCD_Init+0xd0>
 80027d8:	4622      	mov	r2, r4
 80027da:	f04f 0e01 	mov.w	lr, #1
 80027de:	4621      	mov	r1, r4
 80027e0:	eb02 03c2 	add.w	r3, r2, r2, lsl #3
 80027e4:	eb05 0383 	add.w	r3, r5, r3, lsl #2
 80027e8:	f102 0c01 	add.w	ip, r2, #1
 80027ec:	f883 203c 	strb.w	r2, [r3, #60]	; 0x3c
 80027f0:	f8a3 2044 	strh.w	r2, [r3, #68]	; 0x44
 80027f4:	fa5f f28c 	uxtb.w	r2, ip
 80027f8:	4282      	cmp	r2, r0
 80027fa:	e9c3 1112 	strd	r1, r1, [r3, #72]	; 0x48
 80027fe:	f883 e03d 	strb.w	lr, [r3, #61]	; 0x3d
 8002802:	f883 1040 	strb.w	r1, [r3, #64]	; 0x40
 8002806:	6559      	str	r1, [r3, #84]	; 0x54
 8002808:	d3ea      	bcc.n	80027e0 <HAL_PCD_Init+0x80>
 800280a:	2200      	movs	r2, #0
 800280c:	eb04 03c4 	add.w	r3, r4, r4, lsl #3
 8002810:	eb05 0383 	add.w	r3, r5, r3, lsl #2
 8002814:	1c61      	adds	r1, r4, #1
 8002816:	f883 427c 	strb.w	r4, [r3, #636]	; 0x27c
 800281a:	b2cc      	uxtb	r4, r1
 800281c:	4284      	cmp	r4, r0
 800281e:	e9c3 22a2 	strd	r2, r2, [r3, #648]	; 0x288
 8002822:	f883 227d 	strb.w	r2, [r3, #637]	; 0x27d
 8002826:	f883 2280 	strb.w	r2, [r3, #640]	; 0x280
 800282a:	f8c3 2294 	str.w	r2, [r3, #660]	; 0x294
 800282e:	d3ed      	bcc.n	800280c <HAL_PCD_Init+0xac>
 8002830:	ce0f      	ldmia	r6!, {r0, r1, r2, r3}
 8002832:	466c      	mov	r4, sp
 8002834:	c40f      	stmia	r4!, {r0, r1, r2, r3}
 8002836:	ce0f      	ldmia	r6!, {r0, r1, r2, r3}
 8002838:	c40f      	stmia	r4!, {r0, r1, r2, r3}
 800283a:	e896 0003 	ldmia.w	r6, {r0, r1}
 800283e:	e884 0003 	stmia.w	r4, {r0, r1}
 8002842:	e897 000e 	ldmia.w	r7, {r1, r2, r3}
 8002846:	6828      	ldr	r0, [r5, #0]
 8002848:	f002 f8ea 	bl	8004a20 <USB_DevInit>
 800284c:	4604      	mov	r4, r0
 800284e:	2800      	cmp	r0, #0
 8002850:	d1b5      	bne.n	80027be <HAL_PCD_Init+0x5e>
 8002852:	2301      	movs	r3, #1
 8002854:	f885 0038 	strb.w	r0, [r5, #56]	; 0x38
 8002858:	6828      	ldr	r0, [r5, #0]
 800285a:	f885 34bd 	strb.w	r3, [r5, #1213]	; 0x4bd
 800285e:	f002 fd91 	bl	8005384 <USB_DevDisconnect>
 8002862:	4620      	mov	r0, r4
 8002864:	b00b      	add	sp, #44	; 0x2c
 8002866:	bdf0      	pop	{r4, r5, r6, r7, pc}
 8002868:	f880 24bc 	strb.w	r2, [r0, #1212]	; 0x4bc
 800286c:	f7fe fdde 	bl	800142c <HAL_PCD_MspInit>
 8002870:	6828      	ldr	r0, [r5, #0]
 8002872:	e783      	b.n	800277c <HAL_PCD_Init+0x1c>
 8002874:	2401      	movs	r4, #1
 8002876:	4620      	mov	r0, r4
 8002878:	b00b      	add	sp, #44	; 0x2c
 800287a:	bdf0      	pop	{r4, r5, r6, r7, pc}

0800287c <HAL_PCD_Start>:
 800287c:	b510      	push	{r4, lr}
 800287e:	f890 34bc 	ldrb.w	r3, [r0, #1212]	; 0x4bc
 8002882:	2b01      	cmp	r3, #1
 8002884:	4604      	mov	r4, r0
 8002886:	6800      	ldr	r0, [r0, #0]
 8002888:	d016      	beq.n	80028b8 <HAL_PCD_Start+0x3c>
 800288a:	6aa3      	ldr	r3, [r4, #40]	; 0x28
 800288c:	2201      	movs	r2, #1
 800288e:	4293      	cmp	r3, r2
 8002890:	f884 24bc 	strb.w	r2, [r4, #1212]	; 0x4bc
 8002894:	d008      	beq.n	80028a8 <HAL_PCD_Start+0x2c>
 8002896:	f002 f87b 	bl	8004990 <USB_EnableGlobalInt>
 800289a:	6820      	ldr	r0, [r4, #0]
 800289c:	f002 fd62 	bl	8005364 <USB_DevConnect>
 80028a0:	2000      	movs	r0, #0
 80028a2:	f884 04bc 	strb.w	r0, [r4, #1212]	; 0x4bc
 80028a6:	bd10      	pop	{r4, pc}
 80028a8:	69a3      	ldr	r3, [r4, #24]
 80028aa:	4293      	cmp	r3, r2
 80028ac:	d0f3      	beq.n	8002896 <HAL_PCD_Start+0x1a>
 80028ae:	6b83      	ldr	r3, [r0, #56]	; 0x38
 80028b0:	f443 3380 	orr.w	r3, r3, #65536	; 0x10000
 80028b4:	6383      	str	r3, [r0, #56]	; 0x38
 80028b6:	e7ee      	b.n	8002896 <HAL_PCD_Start+0x1a>
 80028b8:	2002      	movs	r0, #2
 80028ba:	bd10      	pop	{r4, pc}

080028bc <HAL_PCD_IRQHandler>:
 80028bc:	e92d 4ff0 	stmdb	sp!, {r4, r5, r6, r7, r8, r9, sl, fp, lr}
 80028c0:	6805      	ldr	r5, [r0, #0]
 80028c2:	b089      	sub	sp, #36	; 0x24
 80028c4:	4604      	mov	r4, r0
 80028c6:	4628      	mov	r0, r5
 80028c8:	f002 fd9a 	bl	8005400 <USB_GetMode>
 80028cc:	b110      	cbz	r0, 80028d4 <HAL_PCD_IRQHandler+0x18>
 80028ce:	b009      	add	sp, #36	; 0x24
 80028d0:	e8bd 8ff0 	ldmia.w	sp!, {r4, r5, r6, r7, r8, r9, sl, fp, pc}
 80028d4:	4683      	mov	fp, r0
 80028d6:	6820      	ldr	r0, [r4, #0]
 80028d8:	f002 fd64 	bl	80053a4 <USB_ReadInterrupts>
 80028dc:	2800      	cmp	r0, #0
 80028de:	d0f6      	beq.n	80028ce <HAL_PCD_IRQHandler+0x12>
 80028e0:	f8d5 3808 	ldr.w	r3, [r5, #2056]	; 0x808
 80028e4:	6820      	ldr	r0, [r4, #0]
 80028e6:	f3c3 230d 	ubfx	r3, r3, #8, #14
 80028ea:	f8c4 34fc 	str.w	r3, [r4, #1276]	; 0x4fc
 80028ee:	f002 fd59 	bl	80053a4 <USB_ReadInterrupts>
 80028f2:	f010 0f02 	tst.w	r0, #2
 80028f6:	6820      	ldr	r0, [r4, #0]
 80028f8:	f505 6300 	add.w	r3, r5, #2048	; 0x800
 80028fc:	9303      	str	r3, [sp, #12]
 80028fe:	bf1e      	ittt	ne
 8002900:	6943      	ldrne	r3, [r0, #20]
 8002902:	f003 0302 	andne.w	r3, r3, #2
 8002906:	6143      	strne	r3, [r0, #20]
 8002908:	f002 fd4c 	bl	80053a4 <USB_ReadInterrupts>
 800290c:	f010 0f10 	tst.w	r0, #16
 8002910:	6820      	ldr	r0, [r4, #0]
 8002912:	d012      	beq.n	800293a <HAL_PCD_IRQHandler+0x7e>
 8002914:	6983      	ldr	r3, [r0, #24]
 8002916:	f023 0310 	bic.w	r3, r3, #16
 800291a:	6183      	str	r3, [r0, #24]
 800291c:	6a2e      	ldr	r6, [r5, #32]
 800291e:	f3c6 4343 	ubfx	r3, r6, #17, #4
 8002922:	2b02      	cmp	r3, #2
 8002924:	f006 070f 	and.w	r7, r6, #15
 8002928:	f000 83cb 	beq.w	80030c2 <HAL_PCD_IRQHandler+0x806>
 800292c:	2b06      	cmp	r3, #6
 800292e:	f000 8307 	beq.w	8002f40 <HAL_PCD_IRQHandler+0x684>
 8002932:	6983      	ldr	r3, [r0, #24]
 8002934:	f043 0310 	orr.w	r3, r3, #16
 8002938:	6183      	str	r3, [r0, #24]
 800293a:	f002 fd33 	bl	80053a4 <USB_ReadInterrupts>
 800293e:	0307      	lsls	r7, r0, #12
 8002940:	f100 8269 	bmi.w	8002e16 <HAL_PCD_IRQHandler+0x55a>
 8002944:	6820      	ldr	r0, [r4, #0]
 8002946:	f002 fd2d 	bl	80053a4 <USB_ReadInterrupts>
 800294a:	0346      	lsls	r6, r0, #13
 800294c:	f100 8211 	bmi.w	8002d72 <HAL_PCD_IRQHandler+0x4b6>
 8002950:	6820      	ldr	r0, [r4, #0]
 8002952:	f002 fd27 	bl	80053a4 <USB_ReadInterrupts>
 8002956:	2800      	cmp	r0, #0
 8002958:	f2c0 8182 	blt.w	8002c60 <HAL_PCD_IRQHandler+0x3a4>
 800295c:	6820      	ldr	r0, [r4, #0]
 800295e:	f002 fd21 	bl	80053a4 <USB_ReadInterrupts>
 8002962:	0507      	lsls	r7, r0, #20
 8002964:	f100 813d 	bmi.w	8002be2 <HAL_PCD_IRQHandler+0x326>
 8002968:	6820      	ldr	r0, [r4, #0]
 800296a:	f002 fd1b 	bl	80053a4 <USB_ReadInterrupts>
 800296e:	04c0      	lsls	r0, r0, #19
 8002970:	f100 81a0 	bmi.w	8002cb4 <HAL_PCD_IRQHandler+0x3f8>
 8002974:	6820      	ldr	r0, [r4, #0]
 8002976:	f002 fd15 	bl	80053a4 <USB_ReadInterrupts>
 800297a:	f410 5f00 	tst.w	r0, #8192	; 0x2000
 800297e:	6820      	ldr	r0, [r4, #0]
 8002980:	f040 8181 	bne.w	8002c86 <HAL_PCD_IRQHandler+0x3ca>
 8002984:	f002 fd0e 	bl	80053a4 <USB_ReadInterrupts>
 8002988:	0701      	lsls	r1, r0, #28
 800298a:	f100 81e9 	bmi.w	8002d60 <HAL_PCD_IRQHandler+0x4a4>
 800298e:	6820      	ldr	r0, [r4, #0]
 8002990:	f002 fd08 	bl	80053a4 <USB_ReadInterrupts>
 8002994:	0602      	lsls	r2, r0, #24
 8002996:	d571      	bpl.n	8002a7c <HAL_PCD_IRQHandler+0x1c0>
 8002998:	69aa      	ldr	r2, [r5, #24]
 800299a:	6863      	ldr	r3, [r4, #4]
 800299c:	f022 0280 	bic.w	r2, r2, #128	; 0x80
 80029a0:	2b01      	cmp	r3, #1
 80029a2:	61aa      	str	r2, [r5, #24]
 80029a4:	d96a      	bls.n	8002a7c <HAL_PCD_IRQHandler+0x1c0>
 80029a6:	f894 22a3 	ldrb.w	r2, [r4, #675]	; 0x2a3
 80029aa:	2a01      	cmp	r2, #1
 80029ac:	f000 83ea 	beq.w	8003184 <HAL_PCD_IRQHandler+0x8c8>
 80029b0:	2b02      	cmp	r3, #2
 80029b2:	d963      	bls.n	8002a7c <HAL_PCD_IRQHandler+0x1c0>
 80029b4:	f894 22c7 	ldrb.w	r2, [r4, #711]	; 0x2c7
 80029b8:	2a01      	cmp	r2, #1
 80029ba:	f000 83fe 	beq.w	80031ba <HAL_PCD_IRQHandler+0x8fe>
 80029be:	2b03      	cmp	r3, #3
 80029c0:	d95c      	bls.n	8002a7c <HAL_PCD_IRQHandler+0x1c0>
 80029c2:	f894 22eb 	ldrb.w	r2, [r4, #747]	; 0x2eb
 80029c6:	2a01      	cmp	r2, #1
 80029c8:	f000 82b3 	beq.w	8002f32 <HAL_PCD_IRQHandler+0x676>
 80029cc:	2b04      	cmp	r3, #4
 80029ce:	d955      	bls.n	8002a7c <HAL_PCD_IRQHandler+0x1c0>
 80029d0:	f894 230f 	ldrb.w	r2, [r4, #783]	; 0x30f
 80029d4:	2a01      	cmp	r2, #1
 80029d6:	f000 82c6 	beq.w	8002f66 <HAL_PCD_IRQHandler+0x6aa>
 80029da:	2b05      	cmp	r3, #5
 80029dc:	d94e      	bls.n	8002a7c <HAL_PCD_IRQHandler+0x1c0>
 80029de:	f894 2333 	ldrb.w	r2, [r4, #819]	; 0x333
 80029e2:	2a01      	cmp	r2, #1
 80029e4:	f000 8426 	beq.w	8003234 <HAL_PCD_IRQHandler+0x978>
 80029e8:	2b06      	cmp	r3, #6
 80029ea:	d947      	bls.n	8002a7c <HAL_PCD_IRQHandler+0x1c0>
 80029ec:	f894 2357 	ldrb.w	r2, [r4, #855]	; 0x357
 80029f0:	2a01      	cmp	r2, #1
 80029f2:	f000 8433 	beq.w	800325c <HAL_PCD_IRQHandler+0x9a0>
 80029f6:	2b07      	cmp	r3, #7
 80029f8:	d940      	bls.n	8002a7c <HAL_PCD_IRQHandler+0x1c0>
 80029fa:	f894 237b 	ldrb.w	r2, [r4, #891]	; 0x37b
 80029fe:	2a01      	cmp	r2, #1
 8002a00:	f000 844a 	beq.w	8003298 <HAL_PCD_IRQHandler+0x9dc>
 8002a04:	2b08      	cmp	r3, #8
 8002a06:	d939      	bls.n	8002a7c <HAL_PCD_IRQHandler+0x1c0>
 8002a08:	f894 239f 	ldrb.w	r2, [r4, #927]	; 0x39f
 8002a0c:	2a01      	cmp	r2, #1
 8002a0e:	f000 8457 	beq.w	80032c0 <HAL_PCD_IRQHandler+0xa04>
 8002a12:	2b09      	cmp	r3, #9
 8002a14:	d932      	bls.n	8002a7c <HAL_PCD_IRQHandler+0x1c0>
 8002a16:	f894 23c3 	ldrb.w	r2, [r4, #963]	; 0x3c3
 8002a1a:	2a01      	cmp	r2, #1
 8002a1c:	f000 8464 	beq.w	80032e8 <HAL_PCD_IRQHandler+0xa2c>
 8002a20:	2b0a      	cmp	r3, #10
 8002a22:	d92b      	bls.n	8002a7c <HAL_PCD_IRQHandler+0x1c0>
 8002a24:	f894 23e7 	ldrb.w	r2, [r4, #999]	; 0x3e7
 8002a28:	2a01      	cmp	r2, #1
 8002a2a:	f000 8471 	beq.w	8003310 <HAL_PCD_IRQHandler+0xa54>
 8002a2e:	2b0b      	cmp	r3, #11
 8002a30:	d924      	bls.n	8002a7c <HAL_PCD_IRQHandler+0x1c0>
 8002a32:	f894 240b 	ldrb.w	r2, [r4, #1035]	; 0x40b
 8002a36:	2a01      	cmp	r2, #1
 8002a38:	f000 847e 	beq.w	8003338 <HAL_PCD_IRQHandler+0xa7c>
 8002a3c:	2b0c      	cmp	r3, #12
 8002a3e:	d91d      	bls.n	8002a7c <HAL_PCD_IRQHandler+0x1c0>
 8002a40:	f894 242f 	ldrb.w	r2, [r4, #1071]	; 0x42f
 8002a44:	2a01      	cmp	r2, #1
 8002a46:	f000 847f 	beq.w	8003348 <HAL_PCD_IRQHandler+0xa8c>
 8002a4a:	2b0d      	cmp	r3, #13
 8002a4c:	d916      	bls.n	8002a7c <HAL_PCD_IRQHandler+0x1c0>
 8002a4e:	f894 2453 	ldrb.w	r2, [r4, #1107]	; 0x453
 8002a52:	2a01      	cmp	r2, #1
 8002a54:	f000 849f 	beq.w	8003396 <HAL_PCD_IRQHandler+0xada>
 8002a58:	2b0e      	cmp	r3, #14
 8002a5a:	d90f      	bls.n	8002a7c <HAL_PCD_IRQHandler+0x1c0>
 8002a5c:	f894 2477 	ldrb.w	r2, [r4, #1143]	; 0x477
 8002a60:	2a01      	cmp	r2, #1
 8002a62:	f000 84a6 	beq.w	80033b2 <HAL_PCD_IRQHandler+0xaf6>
 8002a66:	2b0f      	cmp	r3, #15
 8002a68:	d908      	bls.n	8002a7c <HAL_PCD_IRQHandler+0x1c0>
 8002a6a:	f894 349b 	ldrb.w	r3, [r4, #1179]	; 0x49b
 8002a6e:	2b01      	cmp	r3, #1
 8002a70:	d104      	bne.n	8002a7c <HAL_PCD_IRQHandler+0x1c0>
 8002a72:	6820      	ldr	r0, [r4, #0]
 8002a74:	f504 6193 	add.w	r1, r4, #1176	; 0x498
 8002a78:	f002 fb88 	bl	800518c <USB_EPStopXfer>
 8002a7c:	6820      	ldr	r0, [r4, #0]
 8002a7e:	f002 fc91 	bl	80053a4 <USB_ReadInterrupts>
 8002a82:	02c3      	lsls	r3, r0, #11
 8002a84:	f140 80ab 	bpl.w	8002bde <HAL_PCD_IRQHandler+0x322>
 8002a88:	6863      	ldr	r3, [r4, #4]
 8002a8a:	2b01      	cmp	r3, #1
 8002a8c:	f240 8089 	bls.w	8002ba2 <HAL_PCD_IRQHandler+0x2e6>
 8002a90:	f894 2064 	ldrb.w	r2, [r4, #100]	; 0x64
 8002a94:	f8d5 1920 	ldr.w	r1, [r5, #2336]	; 0x920
 8002a98:	2a01      	cmp	r2, #1
 8002a9a:	f000 8213 	beq.w	8002ec4 <HAL_PCD_IRQHandler+0x608>
 8002a9e:	2b02      	cmp	r3, #2
 8002aa0:	d97f      	bls.n	8002ba2 <HAL_PCD_IRQHandler+0x2e6>
 8002aa2:	f894 2088 	ldrb.w	r2, [r4, #136]	; 0x88
 8002aa6:	f8d5 1940 	ldr.w	r1, [r5, #2368]	; 0x940
 8002aaa:	2a01      	cmp	r2, #1
 8002aac:	f000 821d 	beq.w	8002eea <HAL_PCD_IRQHandler+0x62e>
 8002ab0:	2b03      	cmp	r3, #3
 8002ab2:	d976      	bls.n	8002ba2 <HAL_PCD_IRQHandler+0x2e6>
 8002ab4:	f894 20ac 	ldrb.w	r2, [r4, #172]	; 0xac
 8002ab8:	f8d5 1960 	ldr.w	r1, [r5, #2400]	; 0x960
 8002abc:	2a01      	cmp	r2, #1
 8002abe:	f000 8220 	beq.w	8002f02 <HAL_PCD_IRQHandler+0x646>
 8002ac2:	2b04      	cmp	r3, #4
 8002ac4:	d96d      	bls.n	8002ba2 <HAL_PCD_IRQHandler+0x2e6>
 8002ac6:	f894 20d0 	ldrb.w	r2, [r4, #208]	; 0xd0
 8002aca:	f8d5 1980 	ldr.w	r1, [r5, #2432]	; 0x980
 8002ace:	2a01      	cmp	r2, #1
 8002ad0:	f000 8223 	beq.w	8002f1a <HAL_PCD_IRQHandler+0x65e>
 8002ad4:	2b05      	cmp	r3, #5
 8002ad6:	d964      	bls.n	8002ba2 <HAL_PCD_IRQHandler+0x2e6>
 8002ad8:	f894 20f4 	ldrb.w	r2, [r4, #244]	; 0xf4
 8002adc:	f8d5 19a0 	ldr.w	r1, [r5, #2464]	; 0x9a0
 8002ae0:	2a01      	cmp	r2, #1
 8002ae2:	f000 8343 	beq.w	800316c <HAL_PCD_IRQHandler+0x8b0>
 8002ae6:	2b06      	cmp	r3, #6
 8002ae8:	d95b      	bls.n	8002ba2 <HAL_PCD_IRQHandler+0x2e6>
 8002aea:	f894 2118 	ldrb.w	r2, [r4, #280]	; 0x118
 8002aee:	f8d5 19c0 	ldr.w	r1, [r5, #2496]	; 0x9c0
 8002af2:	2a01      	cmp	r2, #1
 8002af4:	f000 8355 	beq.w	80031a2 <HAL_PCD_IRQHandler+0x8e6>
 8002af8:	2b07      	cmp	r3, #7
 8002afa:	d952      	bls.n	8002ba2 <HAL_PCD_IRQHandler+0x2e6>
 8002afc:	f894 213c 	ldrb.w	r2, [r4, #316]	; 0x13c
 8002b00:	f8d5 19e0 	ldr.w	r1, [r5, #2528]	; 0x9e0
 8002b04:	2a01      	cmp	r2, #1
 8002b06:	f000 8360 	beq.w	80031ca <HAL_PCD_IRQHandler+0x90e>
 8002b0a:	2b08      	cmp	r3, #8
 8002b0c:	d949      	bls.n	8002ba2 <HAL_PCD_IRQHandler+0x2e6>
 8002b0e:	f894 2160 	ldrb.w	r2, [r4, #352]	; 0x160
 8002b12:	f8d5 1a00 	ldr.w	r1, [r5, #2560]	; 0xa00
 8002b16:	2a01      	cmp	r2, #1
 8002b18:	f000 8363 	beq.w	80031e2 <HAL_PCD_IRQHandler+0x926>
 8002b1c:	2b09      	cmp	r3, #9
 8002b1e:	d940      	bls.n	8002ba2 <HAL_PCD_IRQHandler+0x2e6>
 8002b20:	f894 2184 	ldrb.w	r2, [r4, #388]	; 0x184
 8002b24:	f8d5 1a20 	ldr.w	r1, [r5, #2592]	; 0xa20
 8002b28:	2a01      	cmp	r2, #1
 8002b2a:	f000 836e 	beq.w	800320a <HAL_PCD_IRQHandler+0x94e>
 8002b2e:	2b0a      	cmp	r3, #10
 8002b30:	d937      	bls.n	8002ba2 <HAL_PCD_IRQHandler+0x2e6>
 8002b32:	f894 21a8 	ldrb.w	r2, [r4, #424]	; 0x1a8
 8002b36:	f8d5 1a40 	ldr.w	r1, [r5, #2624]	; 0xa40
 8002b3a:	2a01      	cmp	r2, #1
 8002b3c:	f000 8382 	beq.w	8003244 <HAL_PCD_IRQHandler+0x988>
 8002b40:	2b0b      	cmp	r3, #11
 8002b42:	d92e      	bls.n	8002ba2 <HAL_PCD_IRQHandler+0x2e6>
 8002b44:	f894 21cc 	ldrb.w	r2, [r4, #460]	; 0x1cc
 8002b48:	f8d5 1a60 	ldr.w	r1, [r5, #2656]	; 0xa60
 8002b4c:	2a01      	cmp	r2, #1
 8002b4e:	f000 8397 	beq.w	8003280 <HAL_PCD_IRQHandler+0x9c4>
 8002b52:	2b0c      	cmp	r3, #12
 8002b54:	d925      	bls.n	8002ba2 <HAL_PCD_IRQHandler+0x2e6>
 8002b56:	f894 21f0 	ldrb.w	r2, [r4, #496]	; 0x1f0
 8002b5a:	f8d5 1a80 	ldr.w	r1, [r5, #2688]	; 0xa80
 8002b5e:	2a01      	cmp	r2, #1
 8002b60:	f000 83a2 	beq.w	80032a8 <HAL_PCD_IRQHandler+0x9ec>
 8002b64:	2b0d      	cmp	r3, #13
 8002b66:	d91c      	bls.n	8002ba2 <HAL_PCD_IRQHandler+0x2e6>
 8002b68:	f894 2214 	ldrb.w	r2, [r4, #532]	; 0x214
 8002b6c:	f8d5 1aa0 	ldr.w	r1, [r5, #2720]	; 0xaa0
 8002b70:	2a01      	cmp	r2, #1
 8002b72:	f000 83ad 	beq.w	80032d0 <HAL_PCD_IRQHandler+0xa14>
 8002b76:	2b0e      	cmp	r3, #14
 8002b78:	d913      	bls.n	8002ba2 <HAL_PCD_IRQHandler+0x2e6>
 8002b7a:	f894 2238 	ldrb.w	r2, [r4, #568]	; 0x238
 8002b7e:	f8d5 1ac0 	ldr.w	r1, [r5, #2752]	; 0xac0
 8002b82:	2a01      	cmp	r2, #1
 8002b84:	f000 83b8 	beq.w	80032f8 <HAL_PCD_IRQHandler+0xa3c>
 8002b88:	2b0f      	cmp	r3, #15
 8002b8a:	d90a      	bls.n	8002ba2 <HAL_PCD_IRQHandler+0x2e6>
 8002b8c:	f894 225c 	ldrb.w	r2, [r4, #604]	; 0x25c
 8002b90:	f8d5 1ae0 	ldr.w	r1, [r5, #2784]	; 0xae0
 8002b94:	2a01      	cmp	r2, #1
 8002b96:	f000 83c3 	beq.w	8003320 <HAL_PCD_IRQHandler+0xa64>
 8002b9a:	2b10      	cmp	r3, #16
 8002b9c:	d901      	bls.n	8002ba2 <HAL_PCD_IRQHandler+0x2e6>
 8002b9e:	f8d5 3b00 	ldr.w	r3, [r5, #2816]	; 0xb00
 8002ba2:	6820      	ldr	r0, [r4, #0]
 8002ba4:	6943      	ldr	r3, [r0, #20]
 8002ba6:	f403 1380 	and.w	r3, r3, #1048576	; 0x100000
 8002baa:	6143      	str	r3, [r0, #20]
 8002bac:	f002 fbfa 	bl	80053a4 <USB_ReadInterrupts>
 8002bb0:	0287      	lsls	r7, r0, #10
 8002bb2:	d421      	bmi.n	8002bf8 <HAL_PCD_IRQHandler+0x33c>
 8002bb4:	6820      	ldr	r0, [r4, #0]
 8002bb6:	f002 fbf5 	bl	80053a4 <USB_ReadInterrupts>
 8002bba:	0040      	lsls	r0, r0, #1
 8002bbc:	f100 80c7 	bmi.w	8002d4e <HAL_PCD_IRQHandler+0x492>
 8002bc0:	6820      	ldr	r0, [r4, #0]
 8002bc2:	f002 fbef 	bl	80053a4 <USB_ReadInterrupts>
 8002bc6:	0741      	lsls	r1, r0, #29
 8002bc8:	f57f ae81 	bpl.w	80028ce <HAL_PCD_IRQHandler+0x12>
 8002bcc:	6823      	ldr	r3, [r4, #0]
 8002bce:	685d      	ldr	r5, [r3, #4]
 8002bd0:	076a      	lsls	r2, r5, #29
 8002bd2:	f100 8297 	bmi.w	8003104 <HAL_PCD_IRQHandler+0x848>
 8002bd6:	685a      	ldr	r2, [r3, #4]
 8002bd8:	432a      	orrs	r2, r5
 8002bda:	605a      	str	r2, [r3, #4]
 8002bdc:	e677      	b.n	80028ce <HAL_PCD_IRQHandler+0x12>
 8002bde:	6820      	ldr	r0, [r4, #0]
 8002be0:	e7e4      	b.n	8002bac <HAL_PCD_IRQHandler+0x2f0>
 8002be2:	9b03      	ldr	r3, [sp, #12]
 8002be4:	689b      	ldr	r3, [r3, #8]
 8002be6:	07de      	lsls	r6, r3, #31
 8002be8:	f100 8288 	bmi.w	80030fc <HAL_PCD_IRQHandler+0x840>
 8002bec:	6820      	ldr	r0, [r4, #0]
 8002bee:	6943      	ldr	r3, [r0, #20]
 8002bf0:	f403 6300 	and.w	r3, r3, #2048	; 0x800
 8002bf4:	6143      	str	r3, [r0, #20]
 8002bf6:	e6b8      	b.n	800296a <HAL_PCD_IRQHandler+0xae>
 8002bf8:	f8d4 c004 	ldr.w	ip, [r4, #4]
 8002bfc:	f1bc 0f01 	cmp.w	ip, #1
 8002c00:	d928      	bls.n	8002c54 <HAL_PCD_IRQHandler+0x398>
 8002c02:	f505 6232 	add.w	r2, r5, #2848	; 0xb20
 8002c06:	4623      	mov	r3, r4
 8002c08:	2101      	movs	r1, #1
 8002c0a:	e006      	b.n	8002c1a <HAL_PCD_IRQHandler+0x35e>
 8002c0c:	3101      	adds	r1, #1
 8002c0e:	4561      	cmp	r1, ip
 8002c10:	f102 0220 	add.w	r2, r2, #32
 8002c14:	f103 0324 	add.w	r3, r3, #36	; 0x24
 8002c18:	d01c      	beq.n	8002c54 <HAL_PCD_IRQHandler+0x398>
 8002c1a:	f893 02a4 	ldrb.w	r0, [r3, #676]	; 0x2a4
 8002c1e:	6816      	ldr	r6, [r2, #0]
 8002c20:	2801      	cmp	r0, #1
 8002c22:	d1f3      	bne.n	8002c0c <HAL_PCD_IRQHandler+0x350>
 8002c24:	2e00      	cmp	r6, #0
 8002c26:	daf1      	bge.n	8002c0c <HAL_PCD_IRQHandler+0x350>
 8002c28:	f8d4 74fc 	ldr.w	r7, [r4, #1276]	; 0x4fc
 8002c2c:	f406 3680 	and.w	r6, r6, #65536	; 0x10000
 8002c30:	f007 0701 	and.w	r7, r7, #1
 8002c34:	42be      	cmp	r6, r7
 8002c36:	d1e9      	bne.n	8002c0c <HAL_PCD_IRQHandler+0x350>
 8002c38:	f883 02a3 	strb.w	r0, [r3, #675]	; 0x2a3
 8002c3c:	69a8      	ldr	r0, [r5, #24]
 8002c3e:	f040 0080 	orr.w	r0, r0, #128	; 0x80
 8002c42:	61a8      	str	r0, [r5, #24]
 8002c44:	6968      	ldr	r0, [r5, #20]
 8002c46:	0606      	lsls	r6, r0, #24
 8002c48:	d4e0      	bmi.n	8002c0c <HAL_PCD_IRQHandler+0x350>
 8002c4a:	9a03      	ldr	r2, [sp, #12]
 8002c4c:	6853      	ldr	r3, [r2, #4]
 8002c4e:	f443 7300 	orr.w	r3, r3, #512	; 0x200
 8002c52:	6053      	str	r3, [r2, #4]
 8002c54:	6820      	ldr	r0, [r4, #0]
 8002c56:	6943      	ldr	r3, [r0, #20]
 8002c58:	f403 1300 	and.w	r3, r3, #2097152	; 0x200000
 8002c5c:	6143      	str	r3, [r0, #20]
 8002c5e:	e7aa      	b.n	8002bb6 <HAL_PCD_IRQHandler+0x2fa>
 8002c60:	9a03      	ldr	r2, [sp, #12]
 8002c62:	6853      	ldr	r3, [r2, #4]
 8002c64:	f023 0301 	bic.w	r3, r3, #1
 8002c68:	6053      	str	r3, [r2, #4]
 8002c6a:	f894 34f4 	ldrb.w	r3, [r4, #1268]	; 0x4f4
 8002c6e:	2b01      	cmp	r3, #1
 8002c70:	f000 8134 	beq.w	8002edc <HAL_PCD_IRQHandler+0x620>
 8002c74:	4620      	mov	r0, r4
 8002c76:	f003 ff49 	bl	8006b0c <HAL_PCD_ResumeCallback>
 8002c7a:	6820      	ldr	r0, [r4, #0]
 8002c7c:	6943      	ldr	r3, [r0, #20]
 8002c7e:	f003 4300 	and.w	r3, r3, #2147483648	; 0x80000000
 8002c82:	6143      	str	r3, [r0, #20]
 8002c84:	e66b      	b.n	800295e <HAL_PCD_IRQHandler+0xa2>
 8002c86:	f002 fbbf 	bl	8005408 <USB_ActivateSetup>
 8002c8a:	6820      	ldr	r0, [r4, #0]
 8002c8c:	f002 f80c 	bl	8004ca8 <USB_GetDevSpeed>
 8002c90:	60e0      	str	r0, [r4, #12]
 8002c92:	6826      	ldr	r6, [r4, #0]
 8002c94:	f000 ffda 	bl	8003c4c <HAL_RCC_GetHCLKFreq>
 8002c98:	7b22      	ldrb	r2, [r4, #12]
 8002c9a:	4601      	mov	r1, r0
 8002c9c:	4630      	mov	r0, r6
 8002c9e:	f001 fdfd 	bl	800489c <USB_SetTurnaroundTime>
 8002ca2:	4620      	mov	r0, r4
 8002ca4:	f003 ff04 	bl	8006ab0 <HAL_PCD_ResetCallback>
 8002ca8:	6820      	ldr	r0, [r4, #0]
 8002caa:	6943      	ldr	r3, [r0, #20]
 8002cac:	f403 5300 	and.w	r3, r3, #8192	; 0x2000
 8002cb0:	6143      	str	r3, [r0, #20]
 8002cb2:	e667      	b.n	8002984 <HAL_PCD_IRQHandler+0xc8>
 8002cb4:	9a03      	ldr	r2, [sp, #12]
 8002cb6:	6820      	ldr	r0, [r4, #0]
 8002cb8:	6853      	ldr	r3, [r2, #4]
 8002cba:	f023 0301 	bic.w	r3, r3, #1
 8002cbe:	6053      	str	r3, [r2, #4]
 8002cc0:	2110      	movs	r1, #16
 8002cc2:	f001 ffc7 	bl	8004c54 <USB_FlushTxFifo>
 8002cc6:	6860      	ldr	r0, [r4, #4]
 8002cc8:	b1e0      	cbz	r0, 8002d04 <HAL_PCD_IRQHandler+0x448>
 8002cca:	f505 6310 	add.w	r3, r5, #2304	; 0x900
 8002cce:	f64f 317f 	movw	r1, #64383	; 0xfb7f
 8002cd2:	6099      	str	r1, [r3, #8]
 8002cd4:	681a      	ldr	r2, [r3, #0]
 8002cd6:	f422 1200 	bic.w	r2, r2, #2097152	; 0x200000
 8002cda:	601a      	str	r2, [r3, #0]
 8002cdc:	f8c3 1208 	str.w	r1, [r3, #520]	; 0x208
 8002ce0:	f8d3 2200 	ldr.w	r2, [r3, #512]	; 0x200
 8002ce4:	f422 1200 	bic.w	r2, r2, #2097152	; 0x200000
 8002ce8:	f8c3 2200 	str.w	r2, [r3, #512]	; 0x200
 8002cec:	f8d3 2200 	ldr.w	r2, [r3, #512]	; 0x200
 8002cf0:	f10b 0b01 	add.w	fp, fp, #1
 8002cf4:	f042 6200 	orr.w	r2, r2, #134217728	; 0x8000000
 8002cf8:	4583      	cmp	fp, r0
 8002cfa:	f8c3 2200 	str.w	r2, [r3, #512]	; 0x200
 8002cfe:	f103 0320 	add.w	r3, r3, #32
 8002d02:	d1e6      	bne.n	8002cd2 <HAL_PCD_IRQHandler+0x416>
 8002d04:	9903      	ldr	r1, [sp, #12]
 8002d06:	6b22      	ldr	r2, [r4, #48]	; 0x30
 8002d08:	69cb      	ldr	r3, [r1, #28]
 8002d0a:	f043 1301 	orr.w	r3, r3, #65537	; 0x10001
 8002d0e:	61cb      	str	r3, [r1, #28]
 8002d10:	2a00      	cmp	r2, #0
 8002d12:	f040 80cc 	bne.w	8002eae <HAL_PCD_IRQHandler+0x5f2>
 8002d16:	694b      	ldr	r3, [r1, #20]
 8002d18:	f443 5300 	orr.w	r3, r3, #8192	; 0x2000
 8002d1c:	f043 032b 	orr.w	r3, r3, #43	; 0x2b
 8002d20:	614b      	str	r3, [r1, #20]
 8002d22:	690b      	ldr	r3, [r1, #16]
 8002d24:	f043 030b 	orr.w	r3, r3, #11
 8002d28:	610b      	str	r3, [r1, #16]
 8002d2a:	f8d5 3800 	ldr.w	r3, [r5, #2048]	; 0x800
 8002d2e:	7c21      	ldrb	r1, [r4, #16]
 8002d30:	6820      	ldr	r0, [r4, #0]
 8002d32:	f423 63fe 	bic.w	r3, r3, #2032	; 0x7f0
 8002d36:	f8c5 3800 	str.w	r3, [r5, #2048]	; 0x800
 8002d3a:	f204 42c4 	addw	r2, r4, #1220	; 0x4c4
 8002d3e:	f002 fb75 	bl	800542c <USB_EP0_OutStart>
 8002d42:	6820      	ldr	r0, [r4, #0]
 8002d44:	6943      	ldr	r3, [r0, #20]
 8002d46:	f403 5380 	and.w	r3, r3, #4096	; 0x1000
 8002d4a:	6143      	str	r3, [r0, #20]
 8002d4c:	e613      	b.n	8002976 <HAL_PCD_IRQHandler+0xba>
 8002d4e:	4620      	mov	r0, r4
 8002d50:	f003 fee8 	bl	8006b24 <HAL_PCD_ConnectCallback>
 8002d54:	6820      	ldr	r0, [r4, #0]
 8002d56:	6943      	ldr	r3, [r0, #20]
 8002d58:	f003 4380 	and.w	r3, r3, #1073741824	; 0x40000000
 8002d5c:	6143      	str	r3, [r0, #20]
 8002d5e:	e730      	b.n	8002bc2 <HAL_PCD_IRQHandler+0x306>
 8002d60:	4620      	mov	r0, r4
 8002d62:	f003 fea1 	bl	8006aa8 <HAL_PCD_SOFCallback>
 8002d66:	6820      	ldr	r0, [r4, #0]
 8002d68:	6943      	ldr	r3, [r0, #20]
 8002d6a:	f003 0308 	and.w	r3, r3, #8
 8002d6e:	6143      	str	r3, [r0, #20]
 8002d70:	e60e      	b.n	8002990 <HAL_PCD_IRQHandler+0xd4>
 8002d72:	6820      	ldr	r0, [r4, #0]
 8002d74:	f002 fb22 	bl	80053bc <USB_ReadDevAllInEpInterrupt>
 8002d78:	4680      	mov	r8, r0
 8002d7a:	2800      	cmp	r0, #0
 8002d7c:	f43f ade8 	beq.w	8002950 <HAL_PCD_IRQHandler+0x94>
 8002d80:	f04f 0a00 	mov.w	sl, #0
 8002d84:	6820      	ldr	r0, [r4, #0]
 8002d86:	9504      	str	r5, [sp, #16]
 8002d88:	4627      	mov	r7, r4
 8002d8a:	f505 6910 	add.w	r9, r5, #2304	; 0x900
 8002d8e:	4656      	mov	r6, sl
 8002d90:	f8cd b014 	str.w	fp, [sp, #20]
 8002d94:	e009      	b.n	8002daa <HAL_PCD_IRQHandler+0x4ee>
 8002d96:	ea5f 0858 	movs.w	r8, r8, lsr #1
 8002d9a:	f106 0601 	add.w	r6, r6, #1
 8002d9e:	f107 0724 	add.w	r7, r7, #36	; 0x24
 8002da2:	f109 0920 	add.w	r9, r9, #32
 8002da6:	f000 80e5 	beq.w	8002f74 <HAL_PCD_IRQHandler+0x6b8>
 8002daa:	f018 0f01 	tst.w	r8, #1
 8002dae:	d0f2      	beq.n	8002d96 <HAL_PCD_IRQHandler+0x4da>
 8002db0:	fa5f fa86 	uxtb.w	sl, r6
 8002db4:	4651      	mov	r1, sl
 8002db6:	f002 fb13 	bl	80053e0 <USB_ReadDevInEPInterrupt>
 8002dba:	07c2      	lsls	r2, r0, #31
 8002dbc:	4605      	mov	r5, r0
 8002dbe:	d513      	bpl.n	8002de8 <HAL_PCD_IRQHandler+0x52c>
 8002dc0:	9903      	ldr	r1, [sp, #12]
 8002dc2:	2001      	movs	r0, #1
 8002dc4:	6b4b      	ldr	r3, [r1, #52]	; 0x34
 8002dc6:	f006 020f 	and.w	r2, r6, #15
 8002dca:	fa00 f202 	lsl.w	r2, r0, r2
 8002dce:	ea23 0302 	bic.w	r3, r3, r2
 8002dd2:	634b      	str	r3, [r1, #52]	; 0x34
 8002dd4:	6921      	ldr	r1, [r4, #16]
 8002dd6:	f8c9 0008 	str.w	r0, [r9, #8]
 8002dda:	4281      	cmp	r1, r0
 8002ddc:	f000 8197 	beq.w	800310e <HAL_PCD_IRQHandler+0x852>
 8002de0:	4651      	mov	r1, sl
 8002de2:	4620      	mov	r0, r4
 8002de4:	f003 fe56 	bl	8006a94 <HAL_PCD_DataInStageCallback>
 8002de8:	072b      	lsls	r3, r5, #28
 8002dea:	bf44      	itt	mi
 8002dec:	2308      	movmi	r3, #8
 8002dee:	f8c9 3008 	strmi.w	r3, [r9, #8]
 8002df2:	06e8      	lsls	r0, r5, #27
 8002df4:	bf44      	itt	mi
 8002df6:	2310      	movmi	r3, #16
 8002df8:	f8c9 3008 	strmi.w	r3, [r9, #8]
 8002dfc:	0669      	lsls	r1, r5, #25
 8002dfe:	bf44      	itt	mi
 8002e00:	2340      	movmi	r3, #64	; 0x40
 8002e02:	f8c9 3008 	strmi.w	r3, [r9, #8]
 8002e06:	07aa      	lsls	r2, r5, #30
 8002e08:	f100 814e 	bmi.w	80030a8 <HAL_PCD_IRQHandler+0x7ec>
 8002e0c:	062b      	lsls	r3, r5, #24
 8002e0e:	f100 80f5 	bmi.w	8002ffc <HAL_PCD_IRQHandler+0x740>
 8002e12:	6820      	ldr	r0, [r4, #0]
 8002e14:	e7bf      	b.n	8002d96 <HAL_PCD_IRQHandler+0x4da>
 8002e16:	6820      	ldr	r0, [r4, #0]
 8002e18:	f002 fac8 	bl	80053ac <USB_ReadDevAllOutEpInterrupt>
 8002e1c:	4606      	mov	r6, r0
 8002e1e:	2800      	cmp	r0, #0
 8002e20:	f43f ad90 	beq.w	8002944 <HAL_PCD_IRQHandler+0x88>
 8002e24:	f505 6730 	add.w	r7, r5, #2816	; 0xb00
 8002e28:	46a2      	mov	sl, r4
 8002e2a:	f04f 0900 	mov.w	r9, #0
 8002e2e:	f8cd b010 	str.w	fp, [sp, #16]
 8002e32:	e008      	b.n	8002e46 <HAL_PCD_IRQHandler+0x58a>
 8002e34:	0876      	lsrs	r6, r6, #1
 8002e36:	f109 0901 	add.w	r9, r9, #1
 8002e3a:	f107 0720 	add.w	r7, r7, #32
 8002e3e:	f10a 0a24 	add.w	sl, sl, #36	; 0x24
 8002e42:	f000 809a 	beq.w	8002f7a <HAL_PCD_IRQHandler+0x6be>
 8002e46:	07f0      	lsls	r0, r6, #31
 8002e48:	d5f4      	bpl.n	8002e34 <HAL_PCD_IRQHandler+0x578>
 8002e4a:	fa5f fb89 	uxtb.w	fp, r9
 8002e4e:	6820      	ldr	r0, [r4, #0]
 8002e50:	4659      	mov	r1, fp
 8002e52:	f002 fabb 	bl	80053cc <USB_ReadDevOutEPInterrupt>
 8002e56:	f010 0f01 	tst.w	r0, #1
 8002e5a:	4680      	mov	r8, r0
 8002e5c:	f040 80af 	bne.w	8002fbe <HAL_PCD_IRQHandler+0x702>
 8002e60:	f018 0f08 	tst.w	r8, #8
 8002e64:	f040 808c 	bne.w	8002f80 <HAL_PCD_IRQHandler+0x6c4>
 8002e68:	f018 0f10 	tst.w	r8, #16
 8002e6c:	bf1c      	itt	ne
 8002e6e:	2210      	movne	r2, #16
 8002e70:	60ba      	strne	r2, [r7, #8]
 8002e72:	f018 0f02 	tst.w	r8, #2
 8002e76:	d00e      	beq.n	8002e96 <HAL_PCD_IRQHandler+0x5da>
 8002e78:	696a      	ldr	r2, [r5, #20]
 8002e7a:	0611      	lsls	r1, r2, #24
 8002e7c:	d504      	bpl.n	8002e88 <HAL_PCD_IRQHandler+0x5cc>
 8002e7e:	9b03      	ldr	r3, [sp, #12]
 8002e80:	685a      	ldr	r2, [r3, #4]
 8002e82:	f442 6280 	orr.w	r2, r2, #1024	; 0x400
 8002e86:	605a      	str	r2, [r3, #4]
 8002e88:	f89a 227f 	ldrb.w	r2, [sl, #639]	; 0x27f
 8002e8c:	2a01      	cmp	r2, #1
 8002e8e:	f000 8180 	beq.w	8003192 <HAL_PCD_IRQHandler+0x8d6>
 8002e92:	2302      	movs	r3, #2
 8002e94:	60bb      	str	r3, [r7, #8]
 8002e96:	f018 0f20 	tst.w	r8, #32
 8002e9a:	bf1c      	itt	ne
 8002e9c:	2320      	movne	r3, #32
 8002e9e:	60bb      	strne	r3, [r7, #8]
 8002ea0:	f418 5f00 	tst.w	r8, #8192	; 0x2000
 8002ea4:	bf1c      	itt	ne
 8002ea6:	f44f 5300 	movne.w	r3, #8192	; 0x2000
 8002eaa:	60bb      	strne	r3, [r7, #8]
 8002eac:	e7c2      	b.n	8002e34 <HAL_PCD_IRQHandler+0x578>
 8002eae:	f8d1 3084 	ldr.w	r3, [r1, #132]	; 0x84
 8002eb2:	f043 030b 	orr.w	r3, r3, #11
 8002eb6:	f8c1 3084 	str.w	r3, [r1, #132]	; 0x84
 8002eba:	6c4b      	ldr	r3, [r1, #68]	; 0x44
 8002ebc:	f043 030b 	orr.w	r3, r3, #11
 8002ec0:	644b      	str	r3, [r1, #68]	; 0x44
 8002ec2:	e732      	b.n	8002d2a <HAL_PCD_IRQHandler+0x46e>
 8002ec4:	2900      	cmp	r1, #0
 8002ec6:	f6bf adea 	bge.w	8002a9e <HAL_PCD_IRQHandler+0x1e2>
 8002eca:	4621      	mov	r1, r4
 8002ecc:	f884 2063 	strb.w	r2, [r4, #99]	; 0x63
 8002ed0:	f851 0b60 	ldr.w	r0, [r1], #96
 8002ed4:	f002 f95a 	bl	800518c <USB_EPStopXfer>
 8002ed8:	6863      	ldr	r3, [r4, #4]
 8002eda:	e5e0      	b.n	8002a9e <HAL_PCD_IRQHandler+0x1e2>
 8002edc:	2100      	movs	r1, #0
 8002ede:	f884 14f4 	strb.w	r1, [r4, #1268]	; 0x4f4
 8002ee2:	4620      	mov	r0, r4
 8002ee4:	f000 fbfa 	bl	80036dc <HAL_PCDEx_LPM_Callback>
 8002ee8:	e6c7      	b.n	8002c7a <HAL_PCD_IRQHandler+0x3be>
 8002eea:	2900      	cmp	r1, #0
 8002eec:	f6bf ade0 	bge.w	8002ab0 <HAL_PCD_IRQHandler+0x1f4>
 8002ef0:	4621      	mov	r1, r4
 8002ef2:	f884 2087 	strb.w	r2, [r4, #135]	; 0x87
 8002ef6:	f851 0b84 	ldr.w	r0, [r1], #132
 8002efa:	f002 f947 	bl	800518c <USB_EPStopXfer>
 8002efe:	6863      	ldr	r3, [r4, #4]
 8002f00:	e5d6      	b.n	8002ab0 <HAL_PCD_IRQHandler+0x1f4>
 8002f02:	2900      	cmp	r1, #0
 8002f04:	f6bf addd 	bge.w	8002ac2 <HAL_PCD_IRQHandler+0x206>
 8002f08:	4621      	mov	r1, r4
 8002f0a:	f884 20ab 	strb.w	r2, [r4, #171]	; 0xab
 8002f0e:	f851 0ba8 	ldr.w	r0, [r1], #168
 8002f12:	f002 f93b 	bl	800518c <USB_EPStopXfer>
 8002f16:	6863      	ldr	r3, [r4, #4]
 8002f18:	e5d3      	b.n	8002ac2 <HAL_PCD_IRQHandler+0x206>
 8002f1a:	2900      	cmp	r1, #0
 8002f1c:	f6bf adda 	bge.w	8002ad4 <HAL_PCD_IRQHandler+0x218>
 8002f20:	4621      	mov	r1, r4
 8002f22:	f884 20cf 	strb.w	r2, [r4, #207]	; 0xcf
 8002f26:	f851 0bcc 	ldr.w	r0, [r1], #204
 8002f2a:	f002 f92f 	bl	800518c <USB_EPStopXfer>
 8002f2e:	6863      	ldr	r3, [r4, #4]
 8002f30:	e5d0      	b.n	8002ad4 <HAL_PCD_IRQHandler+0x218>
 8002f32:	6820      	ldr	r0, [r4, #0]
 8002f34:	f504 713a 	add.w	r1, r4, #744	; 0x2e8
 8002f38:	f002 f928 	bl	800518c <USB_EPStopXfer>
 8002f3c:	6863      	ldr	r3, [r4, #4]
 8002f3e:	e545      	b.n	80029cc <HAL_PCD_IRQHandler+0x110>
 8002f40:	2208      	movs	r2, #8
 8002f42:	f204 41c4 	addw	r1, r4, #1220	; 0x4c4
 8002f46:	4628      	mov	r0, r5
 8002f48:	eb07 07c7 	add.w	r7, r7, r7, lsl #3
 8002f4c:	f002 f978 	bl	8005240 <USB_ReadPacket>
 8002f50:	eb04 0287 	add.w	r2, r4, r7, lsl #2
 8002f54:	f3c6 130a 	ubfx	r3, r6, #4, #11
 8002f58:	f8d2 129c 	ldr.w	r1, [r2, #668]	; 0x29c
 8002f5c:	6820      	ldr	r0, [r4, #0]
 8002f5e:	440b      	add	r3, r1
 8002f60:	f8c2 329c 	str.w	r3, [r2, #668]	; 0x29c
 8002f64:	e4e5      	b.n	8002932 <HAL_PCD_IRQHandler+0x76>
 8002f66:	6820      	ldr	r0, [r4, #0]
 8002f68:	f504 7143 	add.w	r1, r4, #780	; 0x30c
 8002f6c:	f002 f90e 	bl	800518c <USB_EPStopXfer>
 8002f70:	6863      	ldr	r3, [r4, #4]
 8002f72:	e532      	b.n	80029da <HAL_PCD_IRQHandler+0x11e>
 8002f74:	e9dd 5b04 	ldrd	r5, fp, [sp, #16]
 8002f78:	e4eb      	b.n	8002952 <HAL_PCD_IRQHandler+0x96>
 8002f7a:	f8dd b010 	ldr.w	fp, [sp, #16]
 8002f7e:	e4e1      	b.n	8002944 <HAL_PCD_IRQHandler+0x88>
 8002f80:	6821      	ldr	r1, [r4, #0]
 8002f82:	4bbd      	ldr	r3, [pc, #756]	; (8003278 <HAL_PCD_IRQHandler+0x9bc>)
 8002f84:	2208      	movs	r2, #8
 8002f86:	60ba      	str	r2, [r7, #8]
 8002f88:	f501 6230 	add.w	r2, r1, #2816	; 0xb00
 8002f8c:	6c09      	ldr	r1, [r1, #64]	; 0x40
 8002f8e:	eb02 1249 	add.w	r2, r2, r9, lsl #5
 8002f92:	4299      	cmp	r1, r3
 8002f94:	6890      	ldr	r0, [r2, #8]
 8002f96:	f240 80cb 	bls.w	8003130 <HAL_PCD_IRQHandler+0x874>
 8002f9a:	0400      	lsls	r0, r0, #16
 8002f9c:	d502      	bpl.n	8002fa4 <HAL_PCD_IRQHandler+0x6e8>
 8002f9e:	f44f 4100 	mov.w	r1, #32768	; 0x8000
 8002fa2:	6091      	str	r1, [r2, #8]
 8002fa4:	4620      	mov	r0, r4
 8002fa6:	f003 fd65 	bl	8006a74 <HAL_PCD_SetupStageCallback>
 8002faa:	6921      	ldr	r1, [r4, #16]
 8002fac:	2901      	cmp	r1, #1
 8002fae:	f47f af5b 	bne.w	8002e68 <HAL_PCD_IRQHandler+0x5ac>
 8002fb2:	6820      	ldr	r0, [r4, #0]
 8002fb4:	f204 42c4 	addw	r2, r4, #1220	; 0x4c4
 8002fb8:	f002 fa38 	bl	800542c <USB_EP0_OutStart>
 8002fbc:	e754      	b.n	8002e68 <HAL_PCD_IRQHandler+0x5ac>
 8002fbe:	6820      	ldr	r0, [r4, #0]
 8002fc0:	6921      	ldr	r1, [r4, #16]
 8002fc2:	2201      	movs	r2, #1
 8002fc4:	60ba      	str	r2, [r7, #8]
 8002fc6:	f500 6230 	add.w	r2, r0, #2816	; 0xb00
 8002fca:	eb02 1249 	add.w	r2, r2, r9, lsl #5
 8002fce:	2901      	cmp	r1, #1
 8002fd0:	f8d0 c040 	ldr.w	ip, [r0, #64]	; 0x40
 8002fd4:	6893      	ldr	r3, [r2, #8]
 8002fd6:	f000 80af 	beq.w	8003138 <HAL_PCD_IRQHandler+0x87c>
 8002fda:	49a8      	ldr	r1, [pc, #672]	; (800327c <HAL_PCD_IRQHandler+0x9c0>)
 8002fdc:	458c      	cmp	ip, r1
 8002fde:	f000 810c 	beq.w	80031fa <HAL_PCD_IRQHandler+0x93e>
 8002fe2:	f1b9 0f00 	cmp.w	r9, #0
 8002fe6:	d104      	bne.n	8002ff2 <HAL_PCD_IRQHandler+0x736>
 8002fe8:	f8d4 2294 	ldr.w	r2, [r4, #660]	; 0x294
 8002fec:	2a00      	cmp	r2, #0
 8002fee:	f000 81da 	beq.w	80033a6 <HAL_PCD_IRQHandler+0xaea>
 8002ff2:	4659      	mov	r1, fp
 8002ff4:	4620      	mov	r0, r4
 8002ff6:	f003 fd43 	bl	8006a80 <HAL_PCD_DataOutStageCallback>
 8002ffa:	e731      	b.n	8002e60 <HAL_PCD_IRQHandler+0x5a4>
 8002ffc:	6dfb      	ldr	r3, [r7, #92]	; 0x5c
 8002ffe:	6d7d      	ldr	r5, [r7, #84]	; 0x54
 8003000:	f8d4 b000 	ldr.w	fp, [r4]
 8003004:	42ab      	cmp	r3, r5
 8003006:	4658      	mov	r0, fp
 8003008:	f63f aec5 	bhi.w	8002d96 <HAL_PCD_IRQHandler+0x4da>
 800300c:	f50b 6210 	add.w	r2, fp, #2304	; 0x900
 8003010:	eb02 1246 	add.w	r2, r2, r6, lsl #5
 8003014:	4611      	mov	r1, r2
 8003016:	4696      	mov	lr, r2
 8003018:	6cba      	ldr	r2, [r7, #72]	; 0x48
 800301a:	6989      	ldr	r1, [r1, #24]
 800301c:	f8cd b01c 	str.w	fp, [sp, #28]
 8003020:	eba5 0c03 	sub.w	ip, r5, r3
 8003024:	4562      	cmp	r2, ip
 8003026:	bf28      	it	cs
 8003028:	4662      	movcs	r2, ip
 800302a:	b289      	uxth	r1, r1
 800302c:	3203      	adds	r2, #3
 800302e:	ebb1 0f92 	cmp.w	r1, r2, lsr #2
 8003032:	f0c0 8097 	bcc.w	8003164 <HAL_PCD_IRQHandler+0x8a8>
 8003036:	4652      	mov	r2, sl
 8003038:	9606      	str	r6, [sp, #24]
 800303a:	46ca      	mov	sl, r9
 800303c:	4626      	mov	r6, r4
 800303e:	46c1      	mov	r9, r8
 8003040:	4674      	mov	r4, lr
 8003042:	4690      	mov	r8, r2
 8003044:	e019      	b.n	800307a <HAL_PCD_IRQHandler+0x7be>
 8003046:	1aed      	subs	r5, r5, r3
 8003048:	6cbb      	ldr	r3, [r7, #72]	; 0x48
 800304a:	6cf9      	ldr	r1, [r7, #76]	; 0x4c
 800304c:	429d      	cmp	r5, r3
 800304e:	bf28      	it	cs
 8003050:	461d      	movcs	r5, r3
 8003052:	7c33      	ldrb	r3, [r6, #16]
 8003054:	9300      	str	r3, [sp, #0]
 8003056:	4642      	mov	r2, r8
 8003058:	b2ab      	uxth	r3, r5
 800305a:	4658      	mov	r0, fp
 800305c:	f002 f8da 	bl	8005214 <USB_WritePacket>
 8003060:	6cfb      	ldr	r3, [r7, #76]	; 0x4c
 8003062:	69a1      	ldr	r1, [r4, #24]
 8003064:	442b      	add	r3, r5
 8003066:	64fb      	str	r3, [r7, #76]	; 0x4c
 8003068:	6dfb      	ldr	r3, [r7, #92]	; 0x5c
 800306a:	b289      	uxth	r1, r1
 800306c:	442b      	add	r3, r5
 800306e:	3503      	adds	r5, #3
 8003070:	ebb1 0f95 	cmp.w	r1, r5, lsr #2
 8003074:	65fb      	str	r3, [r7, #92]	; 0x5c
 8003076:	d36d      	bcc.n	8003154 <HAL_PCD_IRQHandler+0x898>
 8003078:	6d7d      	ldr	r5, [r7, #84]	; 0x54
 800307a:	429d      	cmp	r5, r3
 800307c:	d8e3      	bhi.n	8003046 <HAL_PCD_IRQHandler+0x78a>
 800307e:	4634      	mov	r4, r6
 8003080:	9e06      	ldr	r6, [sp, #24]
 8003082:	f8d4 b000 	ldr.w	fp, [r4]
 8003086:	46c8      	mov	r8, r9
 8003088:	46d1      	mov	r9, sl
 800308a:	9b07      	ldr	r3, [sp, #28]
 800308c:	f006 020f 	and.w	r2, r6, #15
 8003090:	f503 6100 	add.w	r1, r3, #2048	; 0x800
 8003094:	2501      	movs	r5, #1
 8003096:	f8d3 3834 	ldr.w	r3, [r3, #2100]	; 0x834
 800309a:	fa05 f202 	lsl.w	r2, r5, r2
 800309e:	ea23 0302 	bic.w	r3, r3, r2
 80030a2:	4658      	mov	r0, fp
 80030a4:	634b      	str	r3, [r1, #52]	; 0x34
 80030a6:	e676      	b.n	8002d96 <HAL_PCD_IRQHandler+0x4da>
 80030a8:	9804      	ldr	r0, [sp, #16]
 80030aa:	4631      	mov	r1, r6
 80030ac:	f001 fdd2 	bl	8004c54 <USB_FlushTxFifo>
 80030b0:	f897 303f 	ldrb.w	r3, [r7, #63]	; 0x3f
 80030b4:	2b01      	cmp	r3, #1
 80030b6:	f000 80b4 	beq.w	8003222 <HAL_PCD_IRQHandler+0x966>
 80030ba:	2302      	movs	r3, #2
 80030bc:	f8c9 3008 	str.w	r3, [r9, #8]
 80030c0:	e6a4      	b.n	8002e0c <HAL_PCD_IRQHandler+0x550>
 80030c2:	f647 73f0 	movw	r3, #32752	; 0x7ff0
 80030c6:	421e      	tst	r6, r3
 80030c8:	f43f ac33 	beq.w	8002932 <HAL_PCD_IRQHandler+0x76>
 80030cc:	eb07 07c7 	add.w	r7, r7, r7, lsl #3
 80030d0:	eb04 0787 	add.w	r7, r4, r7, lsl #2
 80030d4:	f3c6 120a 	ubfx	r2, r6, #4, #11
 80030d8:	f8d7 128c 	ldr.w	r1, [r7, #652]	; 0x28c
 80030dc:	4628      	mov	r0, r5
 80030de:	4616      	mov	r6, r2
 80030e0:	f002 f8ae 	bl	8005240 <USB_ReadPacket>
 80030e4:	f8d7 328c 	ldr.w	r3, [r7, #652]	; 0x28c
 80030e8:	6820      	ldr	r0, [r4, #0]
 80030ea:	4433      	add	r3, r6
 80030ec:	f8c7 328c 	str.w	r3, [r7, #652]	; 0x28c
 80030f0:	f8d7 329c 	ldr.w	r3, [r7, #668]	; 0x29c
 80030f4:	4433      	add	r3, r6
 80030f6:	f8c7 329c 	str.w	r3, [r7, #668]	; 0x29c
 80030fa:	e41a      	b.n	8002932 <HAL_PCD_IRQHandler+0x76>
 80030fc:	4620      	mov	r0, r4
 80030fe:	f003 fced 	bl	8006adc <HAL_PCD_SuspendCallback>
 8003102:	e573      	b.n	8002bec <HAL_PCD_IRQHandler+0x330>
 8003104:	4620      	mov	r0, r4
 8003106:	f003 fd11 	bl	8006b2c <HAL_PCD_DisconnectCallback>
 800310a:	6823      	ldr	r3, [r4, #0]
 800310c:	e563      	b.n	8002bd6 <HAL_PCD_IRQHandler+0x31a>
 800310e:	e9d7 2312 	ldrd	r2, r3, [r7, #72]	; 0x48
 8003112:	4413      	add	r3, r2
 8003114:	64fb      	str	r3, [r7, #76]	; 0x4c
 8003116:	2e00      	cmp	r6, #0
 8003118:	f47f ae62 	bne.w	8002de0 <HAL_PCD_IRQHandler+0x524>
 800311c:	6d63      	ldr	r3, [r4, #84]	; 0x54
 800311e:	2b00      	cmp	r3, #0
 8003120:	f47f ae5e 	bne.w	8002de0 <HAL_PCD_IRQHandler+0x524>
 8003124:	6820      	ldr	r0, [r4, #0]
 8003126:	f204 42c4 	addw	r2, r4, #1220	; 0x4c4
 800312a:	f002 f97f 	bl	800542c <USB_EP0_OutStart>
 800312e:	e657      	b.n	8002de0 <HAL_PCD_IRQHandler+0x524>
 8003130:	4620      	mov	r0, r4
 8003132:	f003 fc9f 	bl	8006a74 <HAL_PCD_SetupStageCallback>
 8003136:	e697      	b.n	8002e68 <HAL_PCD_IRQHandler+0x5ac>
 8003138:	0719      	lsls	r1, r3, #28
 800313a:	f140 8097 	bpl.w	800326c <HAL_PCD_IRQHandler+0x9b0>
 800313e:	494e      	ldr	r1, [pc, #312]	; (8003278 <HAL_PCD_IRQHandler+0x9bc>)
 8003140:	458c      	cmp	ip, r1
 8003142:	f67f ae8d 	bls.w	8002e60 <HAL_PCD_IRQHandler+0x5a4>
 8003146:	0418      	lsls	r0, r3, #16
 8003148:	f57f ae8a 	bpl.w	8002e60 <HAL_PCD_IRQHandler+0x5a4>
 800314c:	f44f 4100 	mov.w	r1, #32768	; 0x8000
 8003150:	6091      	str	r1, [r2, #8]
 8003152:	e685      	b.n	8002e60 <HAL_PCD_IRQHandler+0x5a4>
 8003154:	4634      	mov	r4, r6
 8003156:	6d7d      	ldr	r5, [r7, #84]	; 0x54
 8003158:	f8d4 b000 	ldr.w	fp, [r4]
 800315c:	9e06      	ldr	r6, [sp, #24]
 800315e:	46c8      	mov	r8, r9
 8003160:	4658      	mov	r0, fp
 8003162:	46d1      	mov	r9, sl
 8003164:	42ab      	cmp	r3, r5
 8003166:	f4ff ae16 	bcc.w	8002d96 <HAL_PCD_IRQHandler+0x4da>
 800316a:	e78e      	b.n	800308a <HAL_PCD_IRQHandler+0x7ce>
 800316c:	2900      	cmp	r1, #0
 800316e:	f6bf acba 	bge.w	8002ae6 <HAL_PCD_IRQHandler+0x22a>
 8003172:	4621      	mov	r1, r4
 8003174:	f884 20f3 	strb.w	r2, [r4, #243]	; 0xf3
 8003178:	f851 0bf0 	ldr.w	r0, [r1], #240
 800317c:	f002 f806 	bl	800518c <USB_EPStopXfer>
 8003180:	6863      	ldr	r3, [r4, #4]
 8003182:	e4b0      	b.n	8002ae6 <HAL_PCD_IRQHandler+0x22a>
 8003184:	6820      	ldr	r0, [r4, #0]
 8003186:	f504 7128 	add.w	r1, r4, #672	; 0x2a0
 800318a:	f001 ffff 	bl	800518c <USB_EPStopXfer>
 800318e:	6863      	ldr	r3, [r4, #4]
 8003190:	e40e      	b.n	80029b0 <HAL_PCD_IRQHandler+0xf4>
 8003192:	2300      	movs	r3, #0
 8003194:	4659      	mov	r1, fp
 8003196:	f88a 327f 	strb.w	r3, [sl, #639]	; 0x27f
 800319a:	4620      	mov	r0, r4
 800319c:	f003 fcba 	bl	8006b14 <HAL_PCD_ISOOUTIncompleteCallback>
 80031a0:	e677      	b.n	8002e92 <HAL_PCD_IRQHandler+0x5d6>
 80031a2:	2900      	cmp	r1, #0
 80031a4:	f6bf aca8 	bge.w	8002af8 <HAL_PCD_IRQHandler+0x23c>
 80031a8:	6820      	ldr	r0, [r4, #0]
 80031aa:	f884 2117 	strb.w	r2, [r4, #279]	; 0x117
 80031ae:	f504 718a 	add.w	r1, r4, #276	; 0x114
 80031b2:	f001 ffeb 	bl	800518c <USB_EPStopXfer>
 80031b6:	6863      	ldr	r3, [r4, #4]
 80031b8:	e49e      	b.n	8002af8 <HAL_PCD_IRQHandler+0x23c>
 80031ba:	6820      	ldr	r0, [r4, #0]
 80031bc:	f504 7131 	add.w	r1, r4, #708	; 0x2c4
 80031c0:	f001 ffe4 	bl	800518c <USB_EPStopXfer>
 80031c4:	6863      	ldr	r3, [r4, #4]
 80031c6:	f7ff bbfa 	b.w	80029be <HAL_PCD_IRQHandler+0x102>
 80031ca:	2900      	cmp	r1, #0
 80031cc:	f6bf ac9d 	bge.w	8002b0a <HAL_PCD_IRQHandler+0x24e>
 80031d0:	6820      	ldr	r0, [r4, #0]
 80031d2:	f884 213b 	strb.w	r2, [r4, #315]	; 0x13b
 80031d6:	f504 719c 	add.w	r1, r4, #312	; 0x138
 80031da:	f001 ffd7 	bl	800518c <USB_EPStopXfer>
 80031de:	6863      	ldr	r3, [r4, #4]
 80031e0:	e493      	b.n	8002b0a <HAL_PCD_IRQHandler+0x24e>
 80031e2:	2900      	cmp	r1, #0
 80031e4:	f6bf ac9a 	bge.w	8002b1c <HAL_PCD_IRQHandler+0x260>
 80031e8:	6820      	ldr	r0, [r4, #0]
 80031ea:	f884 215f 	strb.w	r2, [r4, #351]	; 0x15f
 80031ee:	f504 71ae 	add.w	r1, r4, #348	; 0x15c
 80031f2:	f001 ffcb 	bl	800518c <USB_EPStopXfer>
 80031f6:	6863      	ldr	r3, [r4, #4]
 80031f8:	e490      	b.n	8002b1c <HAL_PCD_IRQHandler+0x260>
 80031fa:	0419      	lsls	r1, r3, #16
 80031fc:	d4a6      	bmi.n	800314c <HAL_PCD_IRQHandler+0x890>
 80031fe:	069b      	lsls	r3, r3, #26
 8003200:	f57f aef7 	bpl.w	8002ff2 <HAL_PCD_IRQHandler+0x736>
 8003204:	2120      	movs	r1, #32
 8003206:	6091      	str	r1, [r2, #8]
 8003208:	e6f3      	b.n	8002ff2 <HAL_PCD_IRQHandler+0x736>
 800320a:	2900      	cmp	r1, #0
 800320c:	f6bf ac8f 	bge.w	8002b2e <HAL_PCD_IRQHandler+0x272>
 8003210:	6820      	ldr	r0, [r4, #0]
 8003212:	f884 2183 	strb.w	r2, [r4, #387]	; 0x183
 8003216:	f504 71c0 	add.w	r1, r4, #384	; 0x180
 800321a:	f001 ffb7 	bl	800518c <USB_EPStopXfer>
 800321e:	6863      	ldr	r3, [r4, #4]
 8003220:	e485      	b.n	8002b2e <HAL_PCD_IRQHandler+0x272>
 8003222:	f04f 0300 	mov.w	r3, #0
 8003226:	f887 303f 	strb.w	r3, [r7, #63]	; 0x3f
 800322a:	4651      	mov	r1, sl
 800322c:	4620      	mov	r0, r4
 800322e:	f003 fc75 	bl	8006b1c <HAL_PCD_ISOINIncompleteCallback>
 8003232:	e742      	b.n	80030ba <HAL_PCD_IRQHandler+0x7fe>
 8003234:	6820      	ldr	r0, [r4, #0]
 8003236:	f504 714c 	add.w	r1, r4, #816	; 0x330
 800323a:	f001 ffa7 	bl	800518c <USB_EPStopXfer>
 800323e:	6863      	ldr	r3, [r4, #4]
 8003240:	f7ff bbd2 	b.w	80029e8 <HAL_PCD_IRQHandler+0x12c>
 8003244:	2900      	cmp	r1, #0
 8003246:	f6bf ac7b 	bge.w	8002b40 <HAL_PCD_IRQHandler+0x284>
 800324a:	6820      	ldr	r0, [r4, #0]
 800324c:	f884 21a7 	strb.w	r2, [r4, #423]	; 0x1a7
 8003250:	f504 71d2 	add.w	r1, r4, #420	; 0x1a4
 8003254:	f001 ff9a 	bl	800518c <USB_EPStopXfer>
 8003258:	6863      	ldr	r3, [r4, #4]
 800325a:	e471      	b.n	8002b40 <HAL_PCD_IRQHandler+0x284>
 800325c:	6820      	ldr	r0, [r4, #0]
 800325e:	f504 7155 	add.w	r1, r4, #852	; 0x354
 8003262:	f001 ff93 	bl	800518c <USB_EPStopXfer>
 8003266:	6863      	ldr	r3, [r4, #4]
 8003268:	f7ff bbc5 	b.w	80029f6 <HAL_PCD_IRQHandler+0x13a>
 800326c:	0699      	lsls	r1, r3, #26
 800326e:	d573      	bpl.n	8003358 <HAL_PCD_IRQHandler+0xa9c>
 8003270:	2120      	movs	r1, #32
 8003272:	6091      	str	r1, [r2, #8]
 8003274:	e5f4      	b.n	8002e60 <HAL_PCD_IRQHandler+0x5a4>
 8003276:	bf00      	nop
 8003278:	4f54300a 	.word	0x4f54300a
 800327c:	4f54310a 	.word	0x4f54310a
 8003280:	2900      	cmp	r1, #0
 8003282:	f6bf ac66 	bge.w	8002b52 <HAL_PCD_IRQHandler+0x296>
 8003286:	6820      	ldr	r0, [r4, #0]
 8003288:	f884 21cb 	strb.w	r2, [r4, #459]	; 0x1cb
 800328c:	f504 71e4 	add.w	r1, r4, #456	; 0x1c8
 8003290:	f001 ff7c 	bl	800518c <USB_EPStopXfer>
 8003294:	6863      	ldr	r3, [r4, #4]
 8003296:	e45c      	b.n	8002b52 <HAL_PCD_IRQHandler+0x296>
 8003298:	6820      	ldr	r0, [r4, #0]
 800329a:	f504 715e 	add.w	r1, r4, #888	; 0x378
 800329e:	f001 ff75 	bl	800518c <USB_EPStopXfer>
 80032a2:	6863      	ldr	r3, [r4, #4]
 80032a4:	f7ff bbae 	b.w	8002a04 <HAL_PCD_IRQHandler+0x148>
 80032a8:	2900      	cmp	r1, #0
 80032aa:	f6bf ac5b 	bge.w	8002b64 <HAL_PCD_IRQHandler+0x2a8>
 80032ae:	6820      	ldr	r0, [r4, #0]
 80032b0:	f884 21ef 	strb.w	r2, [r4, #495]	; 0x1ef
 80032b4:	f504 71f6 	add.w	r1, r4, #492	; 0x1ec
 80032b8:	f001 ff68 	bl	800518c <USB_EPStopXfer>
 80032bc:	6863      	ldr	r3, [r4, #4]
 80032be:	e451      	b.n	8002b64 <HAL_PCD_IRQHandler+0x2a8>
 80032c0:	6820      	ldr	r0, [r4, #0]
 80032c2:	f504 7167 	add.w	r1, r4, #924	; 0x39c
 80032c6:	f001 ff61 	bl	800518c <USB_EPStopXfer>
 80032ca:	6863      	ldr	r3, [r4, #4]
 80032cc:	f7ff bba1 	b.w	8002a12 <HAL_PCD_IRQHandler+0x156>
 80032d0:	2900      	cmp	r1, #0
 80032d2:	f6bf ac50 	bge.w	8002b76 <HAL_PCD_IRQHandler+0x2ba>
 80032d6:	6820      	ldr	r0, [r4, #0]
 80032d8:	f884 2213 	strb.w	r2, [r4, #531]	; 0x213
 80032dc:	f504 7104 	add.w	r1, r4, #528	; 0x210
 80032e0:	f001 ff54 	bl	800518c <USB_EPStopXfer>
 80032e4:	6863      	ldr	r3, [r4, #4]
 80032e6:	e446      	b.n	8002b76 <HAL_PCD_IRQHandler+0x2ba>
 80032e8:	6820      	ldr	r0, [r4, #0]
 80032ea:	f504 7170 	add.w	r1, r4, #960	; 0x3c0
 80032ee:	f001 ff4d 	bl	800518c <USB_EPStopXfer>
 80032f2:	6863      	ldr	r3, [r4, #4]
 80032f4:	f7ff bb94 	b.w	8002a20 <HAL_PCD_IRQHandler+0x164>
 80032f8:	2900      	cmp	r1, #0
 80032fa:	f6bf ac45 	bge.w	8002b88 <HAL_PCD_IRQHandler+0x2cc>
 80032fe:	6820      	ldr	r0, [r4, #0]
 8003300:	f884 2237 	strb.w	r2, [r4, #567]	; 0x237
 8003304:	f504 710d 	add.w	r1, r4, #564	; 0x234
 8003308:	f001 ff40 	bl	800518c <USB_EPStopXfer>
 800330c:	6863      	ldr	r3, [r4, #4]
 800330e:	e43b      	b.n	8002b88 <HAL_PCD_IRQHandler+0x2cc>
 8003310:	6820      	ldr	r0, [r4, #0]
 8003312:	f504 7179 	add.w	r1, r4, #996	; 0x3e4
 8003316:	f001 ff39 	bl	800518c <USB_EPStopXfer>
 800331a:	6863      	ldr	r3, [r4, #4]
 800331c:	f7ff bb87 	b.w	8002a2e <HAL_PCD_IRQHandler+0x172>
 8003320:	2900      	cmp	r1, #0
 8003322:	f6bf ac3a 	bge.w	8002b9a <HAL_PCD_IRQHandler+0x2de>
 8003326:	6820      	ldr	r0, [r4, #0]
 8003328:	f884 225b 	strb.w	r2, [r4, #603]	; 0x25b
 800332c:	f504 7116 	add.w	r1, r4, #600	; 0x258
 8003330:	f001 ff2c 	bl	800518c <USB_EPStopXfer>
 8003334:	6863      	ldr	r3, [r4, #4]
 8003336:	e430      	b.n	8002b9a <HAL_PCD_IRQHandler+0x2de>
 8003338:	6820      	ldr	r0, [r4, #0]
 800333a:	f504 6181 	add.w	r1, r4, #1032	; 0x408
 800333e:	f001 ff25 	bl	800518c <USB_EPStopXfer>
 8003342:	6863      	ldr	r3, [r4, #4]
 8003344:	f7ff bb7a 	b.w	8002a3c <HAL_PCD_IRQHandler+0x180>
 8003348:	6820      	ldr	r0, [r4, #0]
 800334a:	f204 412c 	addw	r1, r4, #1068	; 0x42c
 800334e:	f001 ff1d 	bl	800518c <USB_EPStopXfer>
 8003352:	6863      	ldr	r3, [r4, #4]
 8003354:	f7ff bb79 	b.w	8002a4a <HAL_PCD_IRQHandler+0x18e>
 8003358:	f013 0f28 	tst.w	r3, #40	; 0x28
 800335c:	f47f ad80 	bne.w	8002e60 <HAL_PCD_IRQHandler+0x5a4>
 8003360:	491b      	ldr	r1, [pc, #108]	; (80033d0 <HAL_PCD_IRQHandler+0xb14>)
 8003362:	458c      	cmp	ip, r1
 8003364:	d902      	bls.n	800336c <HAL_PCD_IRQHandler+0xab0>
 8003366:	041b      	lsls	r3, r3, #16
 8003368:	f53f aef0 	bmi.w	800314c <HAL_PCD_IRQHandler+0x890>
 800336c:	6911      	ldr	r1, [r2, #16]
 800336e:	f8da 2298 	ldr.w	r2, [sl, #664]	; 0x298
 8003372:	f3c1 0112 	ubfx	r1, r1, #0, #19
 8003376:	1a52      	subs	r2, r2, r1
 8003378:	f8ca 229c 	str.w	r2, [sl, #668]	; 0x29c
 800337c:	f1b9 0f00 	cmp.w	r9, #0
 8003380:	f47f ae37 	bne.w	8002ff2 <HAL_PCD_IRQHandler+0x736>
 8003384:	f8d4 1294 	ldr.w	r1, [r4, #660]	; 0x294
 8003388:	b1d9      	cbz	r1, 80033c2 <HAL_PCD_IRQHandler+0xb06>
 800338a:	f8d4 128c 	ldr.w	r1, [r4, #652]	; 0x28c
 800338e:	440a      	add	r2, r1
 8003390:	f8c4 228c 	str.w	r2, [r4, #652]	; 0x28c
 8003394:	e62d      	b.n	8002ff2 <HAL_PCD_IRQHandler+0x736>
 8003396:	6820      	ldr	r0, [r4, #0]
 8003398:	f504 618a 	add.w	r1, r4, #1104	; 0x450
 800339c:	f001 fef6 	bl	800518c <USB_EPStopXfer>
 80033a0:	6863      	ldr	r3, [r4, #4]
 80033a2:	f7ff bb59 	b.w	8002a58 <HAL_PCD_IRQHandler+0x19c>
 80033a6:	f204 42c4 	addw	r2, r4, #1220	; 0x4c4
 80033aa:	4649      	mov	r1, r9
 80033ac:	f002 f83e 	bl	800542c <USB_EP0_OutStart>
 80033b0:	e61f      	b.n	8002ff2 <HAL_PCD_IRQHandler+0x736>
 80033b2:	6820      	ldr	r0, [r4, #0]
 80033b4:	f204 4174 	addw	r1, r4, #1140	; 0x474
 80033b8:	f001 fee8 	bl	800518c <USB_EPStopXfer>
 80033bc:	6863      	ldr	r3, [r4, #4]
 80033be:	f7ff bb52 	b.w	8002a66 <HAL_PCD_IRQHandler+0x1aa>
 80033c2:	f204 42c4 	addw	r2, r4, #1220	; 0x4c4
 80033c6:	2101      	movs	r1, #1
 80033c8:	f002 f830 	bl	800542c <USB_EP0_OutStart>
 80033cc:	e611      	b.n	8002ff2 <HAL_PCD_IRQHandler+0x736>
 80033ce:	bf00      	nop
 80033d0:	4f54300a 	.word	0x4f54300a

080033d4 <HAL_PCD_SetAddress>:
 80033d4:	f890 24bc 	ldrb.w	r2, [r0, #1212]	; 0x4bc
 80033d8:	2a01      	cmp	r2, #1
 80033da:	d00d      	beq.n	80033f8 <HAL_PCD_SetAddress+0x24>
 80033dc:	b510      	push	{r4, lr}
 80033de:	4604      	mov	r4, r0
 80033e0:	2201      	movs	r2, #1
 80033e2:	6800      	ldr	r0, [r0, #0]
 80033e4:	f884 24bc 	strb.w	r2, [r4, #1212]	; 0x4bc
 80033e8:	f884 1038 	strb.w	r1, [r4, #56]	; 0x38
 80033ec:	f001 ffaa 	bl	8005344 <USB_SetDevAddress>
 80033f0:	2000      	movs	r0, #0
 80033f2:	f884 04bc 	strb.w	r0, [r4, #1212]	; 0x4bc
 80033f6:	bd10      	pop	{r4, pc}
 80033f8:	2002      	movs	r0, #2
 80033fa:	4770      	bx	lr

080033fc <HAL_PCD_EP_Open>:
 80033fc:	b510      	push	{r4, lr}
 80033fe:	f001 0e0f 	and.w	lr, r1, #15
 8003402:	0609      	lsls	r1, r1, #24
 8003404:	4604      	mov	r4, r0
 8003406:	d427      	bmi.n	8003458 <HAL_PCD_EP_Open+0x5c>
 8003408:	f04f 0c24 	mov.w	ip, #36	; 0x24
 800340c:	fb0c 0c0e 	mla	ip, ip, lr, r0
 8003410:	f50c 711f 	add.w	r1, ip, #636	; 0x27c
 8003414:	eb0e 0cce 	add.w	ip, lr, lr, lsl #3
 8003418:	eb00 0c8c 	add.w	ip, r0, ip, lsl #2
 800341c:	2000      	movs	r0, #0
 800341e:	f88c 027d 	strb.w	r0, [ip, #637]	; 0x27d
 8003422:	60ca      	str	r2, [r1, #12]
 8003424:	784a      	ldrb	r2, [r1, #1]
 8003426:	f881 e000 	strb.w	lr, [r1]
 800342a:	710b      	strb	r3, [r1, #4]
 800342c:	b10a      	cbz	r2, 8003432 <HAL_PCD_EP_Open+0x36>
 800342e:	f8a1 e008 	strh.w	lr, [r1, #8]
 8003432:	2b02      	cmp	r3, #2
 8003434:	bf04      	itt	eq
 8003436:	2300      	moveq	r3, #0
 8003438:	714b      	strbeq	r3, [r1, #5]
 800343a:	f894 34bc 	ldrb.w	r3, [r4, #1212]	; 0x4bc
 800343e:	2b01      	cmp	r3, #1
 8003440:	d018      	beq.n	8003474 <HAL_PCD_EP_Open+0x78>
 8003442:	2301      	movs	r3, #1
 8003444:	f884 34bc 	strb.w	r3, [r4, #1212]	; 0x4bc
 8003448:	6820      	ldr	r0, [r4, #0]
 800344a:	f001 fc39 	bl	8004cc0 <USB_ActivateEndpoint>
 800344e:	2300      	movs	r3, #0
 8003450:	f884 34bc 	strb.w	r3, [r4, #1212]	; 0x4bc
 8003454:	4618      	mov	r0, r3
 8003456:	bd10      	pop	{r4, pc}
 8003458:	2024      	movs	r0, #36	; 0x24
 800345a:	fb00 400e 	mla	r0, r0, lr, r4
 800345e:	f100 013c 	add.w	r1, r0, #60	; 0x3c
 8003462:	eb0e 00ce 	add.w	r0, lr, lr, lsl #3
 8003466:	eb04 0080 	add.w	r0, r4, r0, lsl #2
 800346a:	f04f 0c01 	mov.w	ip, #1
 800346e:	f880 c03d 	strb.w	ip, [r0, #61]	; 0x3d
 8003472:	e7d6      	b.n	8003422 <HAL_PCD_EP_Open+0x26>
 8003474:	2002      	movs	r0, #2
 8003476:	bd10      	pop	{r4, pc}

08003478 <HAL_PCD_EP_Close>:
 8003478:	f001 030f 	and.w	r3, r1, #15
 800347c:	eb03 02c3 	add.w	r2, r3, r3, lsl #3
 8003480:	f011 0f80 	tst.w	r1, #128	; 0x80
 8003484:	f04f 0124 	mov.w	r1, #36	; 0x24
 8003488:	b510      	push	{r4, lr}
 800348a:	eb00 0282 	add.w	r2, r0, r2, lsl #2
 800348e:	4604      	mov	r4, r0
 8003490:	fb01 0103 	mla	r1, r1, r3, r0
 8003494:	d113      	bne.n	80034be <HAL_PCD_EP_Close+0x46>
 8003496:	f501 711f 	add.w	r1, r1, #636	; 0x27c
 800349a:	2000      	movs	r0, #0
 800349c:	f882 027d 	strb.w	r0, [r2, #637]	; 0x27d
 80034a0:	700b      	strb	r3, [r1, #0]
 80034a2:	f894 34bc 	ldrb.w	r3, [r4, #1212]	; 0x4bc
 80034a6:	2b01      	cmp	r3, #1
 80034a8:	d012      	beq.n	80034d0 <HAL_PCD_EP_Close+0x58>
 80034aa:	2301      	movs	r3, #1
 80034ac:	6820      	ldr	r0, [r4, #0]
 80034ae:	f884 34bc 	strb.w	r3, [r4, #1212]	; 0x4bc
 80034b2:	f001 fc51 	bl	8004d58 <USB_DeactivateEndpoint>
 80034b6:	2000      	movs	r0, #0
 80034b8:	f884 04bc 	strb.w	r0, [r4, #1212]	; 0x4bc
 80034bc:	bd10      	pop	{r4, pc}
 80034be:	313c      	adds	r1, #60	; 0x3c
 80034c0:	2001      	movs	r0, #1
 80034c2:	f882 003d 	strb.w	r0, [r2, #61]	; 0x3d
 80034c6:	700b      	strb	r3, [r1, #0]
 80034c8:	f894 34bc 	ldrb.w	r3, [r4, #1212]	; 0x4bc
 80034cc:	2b01      	cmp	r3, #1
 80034ce:	d1ec      	bne.n	80034aa <HAL_PCD_EP_Close+0x32>
 80034d0:	2002      	movs	r0, #2
 80034d2:	bd10      	pop	{r4, pc}

080034d4 <HAL_PCD_EP_Receive>:
 80034d4:	b510      	push	{r4, lr}
 80034d6:	f001 040f 	and.w	r4, r1, #15
 80034da:	eb04 0cc4 	add.w	ip, r4, r4, lsl #3
 80034de:	eb00 0c8c 	add.w	ip, r0, ip, lsl #2
 80034e2:	2124      	movs	r1, #36	; 0x24
 80034e4:	f8cc 3294 	str.w	r3, [ip, #660]	; 0x294
 80034e8:	2300      	movs	r3, #0
 80034ea:	f8cc 228c 	str.w	r2, [ip, #652]	; 0x28c
 80034ee:	f88c 427c 	strb.w	r4, [ip, #636]	; 0x27c
 80034f2:	f8cc 329c 	str.w	r3, [ip, #668]	; 0x29c
 80034f6:	f88c 327d 	strb.w	r3, [ip, #637]	; 0x27d
 80034fa:	6903      	ldr	r3, [r0, #16]
 80034fc:	fb01 0104 	mla	r1, r1, r4, r0
 8003500:	2b01      	cmp	r3, #1
 8003502:	bf08      	it	eq
 8003504:	f8cc 2290 	streq.w	r2, [ip, #656]	; 0x290
 8003508:	6800      	ldr	r0, [r0, #0]
 800350a:	f501 711f 	add.w	r1, r1, #636	; 0x27c
 800350e:	b2da      	uxtb	r2, r3
 8003510:	b91c      	cbnz	r4, 800351a <HAL_PCD_EP_Receive+0x46>
 8003512:	f001 fd8f 	bl	8005034 <USB_EP0StartXfer>
 8003516:	2000      	movs	r0, #0
 8003518:	bd10      	pop	{r4, pc}
 800351a:	f001 fc7f 	bl	8004e1c <USB_EPStartXfer>
 800351e:	2000      	movs	r0, #0
 8003520:	bd10      	pop	{r4, pc}
 8003522:	bf00      	nop

08003524 <HAL_PCD_EP_GetRxCount>:
 8003524:	f001 010f 	and.w	r1, r1, #15
 8003528:	eb01 01c1 	add.w	r1, r1, r1, lsl #3
 800352c:	eb00 0181 	add.w	r1, r0, r1, lsl #2
 8003530:	f8d1 029c 	ldr.w	r0, [r1, #668]	; 0x29c
 8003534:	4770      	bx	lr
 8003536:	bf00      	nop

08003538 <HAL_PCD_EP_Transmit>:
 8003538:	b510      	push	{r4, lr}
 800353a:	f001 040f 	and.w	r4, r1, #15
 800353e:	eb04 0cc4 	add.w	ip, r4, r4, lsl #3
 8003542:	eb00 0c8c 	add.w	ip, r0, ip, lsl #2
 8003546:	2124      	movs	r1, #36	; 0x24
 8003548:	f8cc 3054 	str.w	r3, [ip, #84]	; 0x54
 800354c:	2300      	movs	r3, #0
 800354e:	f8cc 305c 	str.w	r3, [ip, #92]	; 0x5c
 8003552:	2301      	movs	r3, #1
 8003554:	f8cc 204c 	str.w	r2, [ip, #76]	; 0x4c
 8003558:	f88c 403c 	strb.w	r4, [ip, #60]	; 0x3c
 800355c:	f88c 303d 	strb.w	r3, [ip, #61]	; 0x3d
 8003560:	6903      	ldr	r3, [r0, #16]
 8003562:	fb01 0104 	mla	r1, r1, r4, r0
 8003566:	2b01      	cmp	r3, #1
 8003568:	bf08      	it	eq
 800356a:	f8cc 2050 	streq.w	r2, [ip, #80]	; 0x50
 800356e:	6800      	ldr	r0, [r0, #0]
 8003570:	313c      	adds	r1, #60	; 0x3c
 8003572:	b2da      	uxtb	r2, r3
 8003574:	b91c      	cbnz	r4, 800357e <HAL_PCD_EP_Transmit+0x46>
 8003576:	f001 fd5d 	bl	8005034 <USB_EP0StartXfer>
 800357a:	2000      	movs	r0, #0
 800357c:	bd10      	pop	{r4, pc}
 800357e:	f001 fc4d 	bl	8004e1c <USB_EPStartXfer>
 8003582:	2000      	movs	r0, #0
 8003584:	bd10      	pop	{r4, pc}
 8003586:	bf00      	nop

08003588 <HAL_PCD_EP_SetStall>:
 8003588:	b538      	push	{r3, r4, r5, lr}
 800358a:	6843      	ldr	r3, [r0, #4]
 800358c:	f001 050f 	and.w	r5, r1, #15
 8003590:	429d      	cmp	r5, r3
 8003592:	d833      	bhi.n	80035fc <HAL_PCD_EP_SetStall+0x74>
 8003594:	060b      	lsls	r3, r1, #24
 8003596:	4604      	mov	r4, r0
 8003598:	d41c      	bmi.n	80035d4 <HAL_PCD_EP_SetStall+0x4c>
 800359a:	eb01 03c1 	add.w	r3, r1, r1, lsl #3
 800359e:	2224      	movs	r2, #36	; 0x24
 80035a0:	fb02 0101 	mla	r1, r2, r1, r0
 80035a4:	eb00 0383 	add.w	r3, r0, r3, lsl #2
 80035a8:	f501 711f 	add.w	r1, r1, #636	; 0x27c
 80035ac:	2200      	movs	r2, #0
 80035ae:	f883 227d 	strb.w	r2, [r3, #637]	; 0x27d
 80035b2:	2301      	movs	r3, #1
 80035b4:	708b      	strb	r3, [r1, #2]
 80035b6:	700d      	strb	r5, [r1, #0]
 80035b8:	f894 24bc 	ldrb.w	r2, [r4, #1212]	; 0x4bc
 80035bc:	429a      	cmp	r2, r3
 80035be:	d01b      	beq.n	80035f8 <HAL_PCD_EP_SetStall+0x70>
 80035c0:	6820      	ldr	r0, [r4, #0]
 80035c2:	f884 34bc 	strb.w	r3, [r4, #1212]	; 0x4bc
 80035c6:	f001 fe63 	bl	8005290 <USB_EPSetStall>
 80035ca:	b1cd      	cbz	r5, 8003600 <HAL_PCD_EP_SetStall+0x78>
 80035cc:	2000      	movs	r0, #0
 80035ce:	f884 04bc 	strb.w	r0, [r4, #1212]	; 0x4bc
 80035d2:	bd38      	pop	{r3, r4, r5, pc}
 80035d4:	eb05 03c5 	add.w	r3, r5, r5, lsl #3
 80035d8:	2124      	movs	r1, #36	; 0x24
 80035da:	fb01 0105 	mla	r1, r1, r5, r0
 80035de:	eb00 0383 	add.w	r3, r0, r3, lsl #2
 80035e2:	2201      	movs	r2, #1
 80035e4:	313c      	adds	r1, #60	; 0x3c
 80035e6:	f883 203d 	strb.w	r2, [r3, #61]	; 0x3d
 80035ea:	2301      	movs	r3, #1
 80035ec:	708b      	strb	r3, [r1, #2]
 80035ee:	700d      	strb	r5, [r1, #0]
 80035f0:	f894 24bc 	ldrb.w	r2, [r4, #1212]	; 0x4bc
 80035f4:	429a      	cmp	r2, r3
 80035f6:	d1e3      	bne.n	80035c0 <HAL_PCD_EP_SetStall+0x38>
 80035f8:	2002      	movs	r0, #2
 80035fa:	bd38      	pop	{r3, r4, r5, pc}
 80035fc:	2001      	movs	r0, #1
 80035fe:	bd38      	pop	{r3, r4, r5, pc}
 8003600:	7c21      	ldrb	r1, [r4, #16]
 8003602:	6820      	ldr	r0, [r4, #0]
 8003604:	f204 42c4 	addw	r2, r4, #1220	; 0x4c4
 8003608:	f001 ff10 	bl	800542c <USB_EP0_OutStart>
 800360c:	e7de      	b.n	80035cc <HAL_PCD_EP_SetStall+0x44>
 800360e:	bf00      	nop

08003610 <HAL_PCD_EP_ClrStall>:
 8003610:	6842      	ldr	r2, [r0, #4]
 8003612:	b538      	push	{r3, r4, r5, lr}
 8003614:	f001 030f 	and.w	r3, r1, #15
 8003618:	4293      	cmp	r3, r2
 800361a:	d82e      	bhi.n	800367a <HAL_PCD_EP_ClrStall+0x6a>
 800361c:	eb03 02c3 	add.w	r2, r3, r3, lsl #3
 8003620:	f011 0f80 	tst.w	r1, #128	; 0x80
 8003624:	f04f 0124 	mov.w	r1, #36	; 0x24
 8003628:	4604      	mov	r4, r0
 800362a:	eb00 0282 	add.w	r2, r0, r2, lsl #2
 800362e:	fb01 0103 	mla	r1, r1, r3, r0
 8003632:	d115      	bne.n	8003660 <HAL_PCD_EP_ClrStall+0x50>
 8003634:	f501 711f 	add.w	r1, r1, #636	; 0x27c
 8003638:	2000      	movs	r0, #0
 800363a:	2500      	movs	r5, #0
 800363c:	f882 027d 	strb.w	r0, [r2, #637]	; 0x27d
 8003640:	708d      	strb	r5, [r1, #2]
 8003642:	700b      	strb	r3, [r1, #0]
 8003644:	f894 34bc 	ldrb.w	r3, [r4, #1212]	; 0x4bc
 8003648:	2b01      	cmp	r3, #1
 800364a:	d014      	beq.n	8003676 <HAL_PCD_EP_ClrStall+0x66>
 800364c:	2301      	movs	r3, #1
 800364e:	6820      	ldr	r0, [r4, #0]
 8003650:	f884 34bc 	strb.w	r3, [r4, #1212]	; 0x4bc
 8003654:	f001 fe4a 	bl	80052ec <USB_EPClearStall>
 8003658:	f884 54bc 	strb.w	r5, [r4, #1212]	; 0x4bc
 800365c:	4628      	mov	r0, r5
 800365e:	bd38      	pop	{r3, r4, r5, pc}
 8003660:	313c      	adds	r1, #60	; 0x3c
 8003662:	2001      	movs	r0, #1
 8003664:	2500      	movs	r5, #0
 8003666:	f882 003d 	strb.w	r0, [r2, #61]	; 0x3d
 800366a:	708d      	strb	r5, [r1, #2]
 800366c:	700b      	strb	r3, [r1, #0]
 800366e:	f894 34bc 	ldrb.w	r3, [r4, #1212]	; 0x4bc
 8003672:	2b01      	cmp	r3, #1
 8003674:	d1ea      	bne.n	800364c <HAL_PCD_EP_ClrStall+0x3c>
 8003676:	2002      	movs	r0, #2
 8003678:	bd38      	pop	{r3, r4, r5, pc}
 800367a:	2001      	movs	r0, #1
 800367c:	bd38      	pop	{r3, r4, r5, pc}
 800367e:	bf00      	nop

08003680 <HAL_PCDEx_SetTxFiFo>:
 8003680:	b410      	push	{r4}
 8003682:	6804      	ldr	r4, [r0, #0]
 8003684:	6a60      	ldr	r0, [r4, #36]	; 0x24
 8003686:	b931      	cbnz	r1, 8003696 <HAL_PCDEx_SetTxFiFo+0x16>
 8003688:	ea40 4002 	orr.w	r0, r0, r2, lsl #16
 800368c:	62a0      	str	r0, [r4, #40]	; 0x28
 800368e:	2000      	movs	r0, #0
 8003690:	f85d 4b04 	ldr.w	r4, [sp], #4
 8003694:	4770      	bx	lr
 8003696:	6aa3      	ldr	r3, [r4, #40]	; 0x28
 8003698:	f1b1 0c01 	subs.w	ip, r1, #1
 800369c:	eb00 4013 	add.w	r0, r0, r3, lsr #16
 80036a0:	d00b      	beq.n	80036ba <HAL_PCDEx_SetTxFiFo+0x3a>
 80036a2:	2300      	movs	r3, #0
 80036a4:	f103 0140 	add.w	r1, r3, #64	; 0x40
 80036a8:	eb04 0181 	add.w	r1, r4, r1, lsl #2
 80036ac:	3301      	adds	r3, #1
 80036ae:	6849      	ldr	r1, [r1, #4]
 80036b0:	b2db      	uxtb	r3, r3
 80036b2:	4563      	cmp	r3, ip
 80036b4:	eb00 4011 	add.w	r0, r0, r1, lsr #16
 80036b8:	d3f4      	bcc.n	80036a4 <HAL_PCDEx_SetTxFiFo+0x24>
 80036ba:	f10c 0c40 	add.w	ip, ip, #64	; 0x40
 80036be:	eb04 0c8c 	add.w	ip, r4, ip, lsl #2
 80036c2:	ea40 4002 	orr.w	r0, r0, r2, lsl #16
 80036c6:	f8cc 0004 	str.w	r0, [ip, #4]
 80036ca:	f85d 4b04 	ldr.w	r4, [sp], #4
 80036ce:	2000      	movs	r0, #0
 80036d0:	4770      	bx	lr
 80036d2:	bf00      	nop

080036d4 <HAL_PCDEx_SetRxFiFo>:
 80036d4:	6803      	ldr	r3, [r0, #0]
 80036d6:	2000      	movs	r0, #0
 80036d8:	6259      	str	r1, [r3, #36]	; 0x24
 80036da:	4770      	bx	lr

080036dc <HAL_PCDEx_LPM_Callback>:
 80036dc:	4770      	bx	lr
 80036de:	bf00      	nop

080036e0 <HAL_RCC_OscConfig>:
 80036e0:	2800      	cmp	r0, #0
 80036e2:	f000 81a2 	beq.w	8003a2a <HAL_RCC_OscConfig+0x34a>
 80036e6:	e92d 41f0 	stmdb	sp!, {r4, r5, r6, r7, r8, lr}
 80036ea:	6803      	ldr	r3, [r0, #0]
 80036ec:	07dd      	lsls	r5, r3, #31
 80036ee:	b082      	sub	sp, #8
 80036f0:	4604      	mov	r4, r0
 80036f2:	d52f      	bpl.n	8003754 <HAL_RCC_OscConfig+0x74>
 80036f4:	499e      	ldr	r1, [pc, #632]	; (8003970 <HAL_RCC_OscConfig+0x290>)
 80036f6:	688a      	ldr	r2, [r1, #8]
 80036f8:	f002 020c 	and.w	r2, r2, #12
 80036fc:	2a04      	cmp	r2, #4
 80036fe:	f000 80ed 	beq.w	80038dc <HAL_RCC_OscConfig+0x1fc>
 8003702:	688a      	ldr	r2, [r1, #8]
 8003704:	f002 020c 	and.w	r2, r2, #12
 8003708:	2a08      	cmp	r2, #8
 800370a:	f000 80e3 	beq.w	80038d4 <HAL_RCC_OscConfig+0x1f4>
 800370e:	6863      	ldr	r3, [r4, #4]
 8003710:	f5b3 3f80 	cmp.w	r3, #65536	; 0x10000
 8003714:	f000 80ec 	beq.w	80038f0 <HAL_RCC_OscConfig+0x210>
 8003718:	f5b3 2fa0 	cmp.w	r3, #327680	; 0x50000
 800371c:	f000 8175 	beq.w	8003a0a <HAL_RCC_OscConfig+0x32a>
 8003720:	4d93      	ldr	r5, [pc, #588]	; (8003970 <HAL_RCC_OscConfig+0x290>)
 8003722:	682a      	ldr	r2, [r5, #0]
 8003724:	f422 3280 	bic.w	r2, r2, #65536	; 0x10000
 8003728:	602a      	str	r2, [r5, #0]
 800372a:	682a      	ldr	r2, [r5, #0]
 800372c:	f422 2280 	bic.w	r2, r2, #262144	; 0x40000
 8003730:	602a      	str	r2, [r5, #0]
 8003732:	2b00      	cmp	r3, #0
 8003734:	f040 80e1 	bne.w	80038fa <HAL_RCC_OscConfig+0x21a>
 8003738:	f7fd ff0a 	bl	8001550 <HAL_GetTick>
 800373c:	4606      	mov	r6, r0
 800373e:	e005      	b.n	800374c <HAL_RCC_OscConfig+0x6c>
 8003740:	f7fd ff06 	bl	8001550 <HAL_GetTick>
 8003744:	1b80      	subs	r0, r0, r6
 8003746:	2864      	cmp	r0, #100	; 0x64
 8003748:	f200 8101 	bhi.w	800394e <HAL_RCC_OscConfig+0x26e>
 800374c:	682b      	ldr	r3, [r5, #0]
 800374e:	039b      	lsls	r3, r3, #14
 8003750:	d4f6      	bmi.n	8003740 <HAL_RCC_OscConfig+0x60>
 8003752:	6823      	ldr	r3, [r4, #0]
 8003754:	079f      	lsls	r7, r3, #30
 8003756:	d528      	bpl.n	80037aa <HAL_RCC_OscConfig+0xca>
 8003758:	4a85      	ldr	r2, [pc, #532]	; (8003970 <HAL_RCC_OscConfig+0x290>)
 800375a:	6891      	ldr	r1, [r2, #8]
 800375c:	f011 0f0c 	tst.w	r1, #12
 8003760:	f000 8090 	beq.w	8003884 <HAL_RCC_OscConfig+0x1a4>
 8003764:	6891      	ldr	r1, [r2, #8]
 8003766:	f001 010c 	and.w	r1, r1, #12
 800376a:	2908      	cmp	r1, #8
 800376c:	f000 8086 	beq.w	800387c <HAL_RCC_OscConfig+0x19c>
 8003770:	68e3      	ldr	r3, [r4, #12]
 8003772:	2b00      	cmp	r3, #0
 8003774:	f000 810e 	beq.w	8003994 <HAL_RCC_OscConfig+0x2b4>
 8003778:	4b7e      	ldr	r3, [pc, #504]	; (8003974 <HAL_RCC_OscConfig+0x294>)
 800377a:	4e7d      	ldr	r6, [pc, #500]	; (8003970 <HAL_RCC_OscConfig+0x290>)
 800377c:	2201      	movs	r2, #1
 800377e:	601a      	str	r2, [r3, #0]
 8003780:	f7fd fee6 	bl	8001550 <HAL_GetTick>
 8003784:	4605      	mov	r5, r0
 8003786:	e005      	b.n	8003794 <HAL_RCC_OscConfig+0xb4>
 8003788:	f7fd fee2 	bl	8001550 <HAL_GetTick>
 800378c:	1b40      	subs	r0, r0, r5
 800378e:	2802      	cmp	r0, #2
 8003790:	f200 80dd 	bhi.w	800394e <HAL_RCC_OscConfig+0x26e>
 8003794:	6833      	ldr	r3, [r6, #0]
 8003796:	0798      	lsls	r0, r3, #30
 8003798:	d5f6      	bpl.n	8003788 <HAL_RCC_OscConfig+0xa8>
 800379a:	6833      	ldr	r3, [r6, #0]
 800379c:	6922      	ldr	r2, [r4, #16]
 800379e:	f023 03f8 	bic.w	r3, r3, #248	; 0xf8
 80037a2:	ea43 03c2 	orr.w	r3, r3, r2, lsl #3
 80037a6:	6033      	str	r3, [r6, #0]
 80037a8:	6823      	ldr	r3, [r4, #0]
 80037aa:	071a      	lsls	r2, r3, #28
 80037ac:	d451      	bmi.n	8003852 <HAL_RCC_OscConfig+0x172>
 80037ae:	0758      	lsls	r0, r3, #29
 80037b0:	d52f      	bpl.n	8003812 <HAL_RCC_OscConfig+0x132>
 80037b2:	4a6f      	ldr	r2, [pc, #444]	; (8003970 <HAL_RCC_OscConfig+0x290>)
 80037b4:	6c13      	ldr	r3, [r2, #64]	; 0x40
 80037b6:	f013 5380 	ands.w	r3, r3, #268435456	; 0x10000000
 80037ba:	d07f      	beq.n	80038bc <HAL_RCC_OscConfig+0x1dc>
 80037bc:	2500      	movs	r5, #0
 80037be:	4e6e      	ldr	r6, [pc, #440]	; (8003978 <HAL_RCC_OscConfig+0x298>)
 80037c0:	6833      	ldr	r3, [r6, #0]
 80037c2:	05d9      	lsls	r1, r3, #23
 80037c4:	f140 80b3 	bpl.w	800392e <HAL_RCC_OscConfig+0x24e>
 80037c8:	68a3      	ldr	r3, [r4, #8]
 80037ca:	2b01      	cmp	r3, #1
 80037cc:	f000 80c3 	beq.w	8003956 <HAL_RCC_OscConfig+0x276>
 80037d0:	2b05      	cmp	r3, #5
 80037d2:	f000 812c 	beq.w	8003a2e <HAL_RCC_OscConfig+0x34e>
 80037d6:	4e66      	ldr	r6, [pc, #408]	; (8003970 <HAL_RCC_OscConfig+0x290>)
 80037d8:	6f32      	ldr	r2, [r6, #112]	; 0x70
 80037da:	f022 0201 	bic.w	r2, r2, #1
 80037de:	6732      	str	r2, [r6, #112]	; 0x70
 80037e0:	6f32      	ldr	r2, [r6, #112]	; 0x70
 80037e2:	f022 0204 	bic.w	r2, r2, #4
 80037e6:	6732      	str	r2, [r6, #112]	; 0x70
 80037e8:	2b00      	cmp	r3, #0
 80037ea:	f040 80b9 	bne.w	8003960 <HAL_RCC_OscConfig+0x280>
 80037ee:	f7fd feaf 	bl	8001550 <HAL_GetTick>
 80037f2:	f241 3888 	movw	r8, #5000	; 0x1388
 80037f6:	4607      	mov	r7, r0
 80037f8:	e005      	b.n	8003806 <HAL_RCC_OscConfig+0x126>
 80037fa:	f7fd fea9 	bl	8001550 <HAL_GetTick>
 80037fe:	1bc0      	subs	r0, r0, r7
 8003800:	4540      	cmp	r0, r8
 8003802:	f200 80a4 	bhi.w	800394e <HAL_RCC_OscConfig+0x26e>
 8003806:	6f33      	ldr	r3, [r6, #112]	; 0x70
 8003808:	0798      	lsls	r0, r3, #30
 800380a:	d4f6      	bmi.n	80037fa <HAL_RCC_OscConfig+0x11a>
 800380c:	2d00      	cmp	r5, #0
 800380e:	f040 8106 	bne.w	8003a1e <HAL_RCC_OscConfig+0x33e>
 8003812:	69a0      	ldr	r0, [r4, #24]
 8003814:	b1c8      	cbz	r0, 800384a <HAL_RCC_OscConfig+0x16a>
 8003816:	4d56      	ldr	r5, [pc, #344]	; (8003970 <HAL_RCC_OscConfig+0x290>)
 8003818:	68ab      	ldr	r3, [r5, #8]
 800381a:	f003 030c 	and.w	r3, r3, #12
 800381e:	2b08      	cmp	r3, #8
 8003820:	f000 80c9 	beq.w	80039b6 <HAL_RCC_OscConfig+0x2d6>
 8003824:	4b53      	ldr	r3, [pc, #332]	; (8003974 <HAL_RCC_OscConfig+0x294>)
 8003826:	2200      	movs	r2, #0
 8003828:	2802      	cmp	r0, #2
 800382a:	661a      	str	r2, [r3, #96]	; 0x60
 800382c:	f000 8109 	beq.w	8003a42 <HAL_RCC_OscConfig+0x362>
 8003830:	f7fd fe8e 	bl	8001550 <HAL_GetTick>
 8003834:	4604      	mov	r4, r0
 8003836:	e005      	b.n	8003844 <HAL_RCC_OscConfig+0x164>
 8003838:	f7fd fe8a 	bl	8001550 <HAL_GetTick>
 800383c:	1b00      	subs	r0, r0, r4
 800383e:	2802      	cmp	r0, #2
 8003840:	f200 8085 	bhi.w	800394e <HAL_RCC_OscConfig+0x26e>
 8003844:	682b      	ldr	r3, [r5, #0]
 8003846:	019b      	lsls	r3, r3, #6
 8003848:	d4f6      	bmi.n	8003838 <HAL_RCC_OscConfig+0x158>
 800384a:	2000      	movs	r0, #0
 800384c:	b002      	add	sp, #8
 800384e:	e8bd 81f0 	ldmia.w	sp!, {r4, r5, r6, r7, r8, pc}
 8003852:	6963      	ldr	r3, [r4, #20]
 8003854:	b30b      	cbz	r3, 800389a <HAL_RCC_OscConfig+0x1ba>
 8003856:	4b47      	ldr	r3, [pc, #284]	; (8003974 <HAL_RCC_OscConfig+0x294>)
 8003858:	4e45      	ldr	r6, [pc, #276]	; (8003970 <HAL_RCC_OscConfig+0x290>)
 800385a:	2201      	movs	r2, #1
 800385c:	f8c3 2e80 	str.w	r2, [r3, #3712]	; 0xe80
 8003860:	f7fd fe76 	bl	8001550 <HAL_GetTick>
 8003864:	4605      	mov	r5, r0
 8003866:	e004      	b.n	8003872 <HAL_RCC_OscConfig+0x192>
 8003868:	f7fd fe72 	bl	8001550 <HAL_GetTick>
 800386c:	1b40      	subs	r0, r0, r5
 800386e:	2802      	cmp	r0, #2
 8003870:	d86d      	bhi.n	800394e <HAL_RCC_OscConfig+0x26e>
 8003872:	6f73      	ldr	r3, [r6, #116]	; 0x74
 8003874:	079b      	lsls	r3, r3, #30
 8003876:	d5f7      	bpl.n	8003868 <HAL_RCC_OscConfig+0x188>
 8003878:	6823      	ldr	r3, [r4, #0]
 800387a:	e798      	b.n	80037ae <HAL_RCC_OscConfig+0xce>
 800387c:	6852      	ldr	r2, [r2, #4]
 800387e:	0256      	lsls	r6, r2, #9
 8003880:	f53f af76 	bmi.w	8003770 <HAL_RCC_OscConfig+0x90>
 8003884:	4a3a      	ldr	r2, [pc, #232]	; (8003970 <HAL_RCC_OscConfig+0x290>)
 8003886:	6812      	ldr	r2, [r2, #0]
 8003888:	0795      	lsls	r5, r2, #30
 800388a:	d544      	bpl.n	8003916 <HAL_RCC_OscConfig+0x236>
 800388c:	68e2      	ldr	r2, [r4, #12]
 800388e:	2a01      	cmp	r2, #1
 8003890:	d041      	beq.n	8003916 <HAL_RCC_OscConfig+0x236>
 8003892:	2001      	movs	r0, #1
 8003894:	b002      	add	sp, #8
 8003896:	e8bd 81f0 	ldmia.w	sp!, {r4, r5, r6, r7, r8, pc}
 800389a:	4a36      	ldr	r2, [pc, #216]	; (8003974 <HAL_RCC_OscConfig+0x294>)
 800389c:	4e34      	ldr	r6, [pc, #208]	; (8003970 <HAL_RCC_OscConfig+0x290>)
 800389e:	f8c2 3e80 	str.w	r3, [r2, #3712]	; 0xe80
 80038a2:	f7fd fe55 	bl	8001550 <HAL_GetTick>
 80038a6:	4605      	mov	r5, r0
 80038a8:	e004      	b.n	80038b4 <HAL_RCC_OscConfig+0x1d4>
 80038aa:	f7fd fe51 	bl	8001550 <HAL_GetTick>
 80038ae:	1b40      	subs	r0, r0, r5
 80038b0:	2802      	cmp	r0, #2
 80038b2:	d84c      	bhi.n	800394e <HAL_RCC_OscConfig+0x26e>
 80038b4:	6f73      	ldr	r3, [r6, #116]	; 0x74
 80038b6:	079f      	lsls	r7, r3, #30
 80038b8:	d4f7      	bmi.n	80038aa <HAL_RCC_OscConfig+0x1ca>
 80038ba:	e7dd      	b.n	8003878 <HAL_RCC_OscConfig+0x198>
 80038bc:	9301      	str	r3, [sp, #4]
 80038be:	6c13      	ldr	r3, [r2, #64]	; 0x40
 80038c0:	f043 5380 	orr.w	r3, r3, #268435456	; 0x10000000
 80038c4:	6413      	str	r3, [r2, #64]	; 0x40
 80038c6:	6c13      	ldr	r3, [r2, #64]	; 0x40
 80038c8:	f003 5380 	and.w	r3, r3, #268435456	; 0x10000000
 80038cc:	9301      	str	r3, [sp, #4]
 80038ce:	9b01      	ldr	r3, [sp, #4]
 80038d0:	2501      	movs	r5, #1
 80038d2:	e774      	b.n	80037be <HAL_RCC_OscConfig+0xde>
 80038d4:	684a      	ldr	r2, [r1, #4]
 80038d6:	0250      	lsls	r0, r2, #9
 80038d8:	f57f af19 	bpl.w	800370e <HAL_RCC_OscConfig+0x2e>
 80038dc:	4a24      	ldr	r2, [pc, #144]	; (8003970 <HAL_RCC_OscConfig+0x290>)
 80038de:	6812      	ldr	r2, [r2, #0]
 80038e0:	0391      	lsls	r1, r2, #14
 80038e2:	f57f af37 	bpl.w	8003754 <HAL_RCC_OscConfig+0x74>
 80038e6:	6862      	ldr	r2, [r4, #4]
 80038e8:	2a00      	cmp	r2, #0
 80038ea:	f47f af33 	bne.w	8003754 <HAL_RCC_OscConfig+0x74>
 80038ee:	e7d0      	b.n	8003892 <HAL_RCC_OscConfig+0x1b2>
 80038f0:	4a1f      	ldr	r2, [pc, #124]	; (8003970 <HAL_RCC_OscConfig+0x290>)
 80038f2:	6813      	ldr	r3, [r2, #0]
 80038f4:	f443 3380 	orr.w	r3, r3, #65536	; 0x10000
 80038f8:	6013      	str	r3, [r2, #0]
 80038fa:	f7fd fe29 	bl	8001550 <HAL_GetTick>
 80038fe:	4e1c      	ldr	r6, [pc, #112]	; (8003970 <HAL_RCC_OscConfig+0x290>)
 8003900:	4605      	mov	r5, r0
 8003902:	e004      	b.n	800390e <HAL_RCC_OscConfig+0x22e>
 8003904:	f7fd fe24 	bl	8001550 <HAL_GetTick>
 8003908:	1b40      	subs	r0, r0, r5
 800390a:	2864      	cmp	r0, #100	; 0x64
 800390c:	d81f      	bhi.n	800394e <HAL_RCC_OscConfig+0x26e>
 800390e:	6833      	ldr	r3, [r6, #0]
 8003910:	039a      	lsls	r2, r3, #14
 8003912:	d5f7      	bpl.n	8003904 <HAL_RCC_OscConfig+0x224>
 8003914:	e71d      	b.n	8003752 <HAL_RCC_OscConfig+0x72>
 8003916:	4916      	ldr	r1, [pc, #88]	; (8003970 <HAL_RCC_OscConfig+0x290>)
 8003918:	6920      	ldr	r0, [r4, #16]
 800391a:	680a      	ldr	r2, [r1, #0]
 800391c:	f022 02f8 	bic.w	r2, r2, #248	; 0xf8
 8003920:	ea42 02c0 	orr.w	r2, r2, r0, lsl #3
 8003924:	600a      	str	r2, [r1, #0]
 8003926:	071a      	lsls	r2, r3, #28
 8003928:	f57f af41 	bpl.w	80037ae <HAL_RCC_OscConfig+0xce>
 800392c:	e791      	b.n	8003852 <HAL_RCC_OscConfig+0x172>
 800392e:	6833      	ldr	r3, [r6, #0]
 8003930:	f443 7380 	orr.w	r3, r3, #256	; 0x100
 8003934:	6033      	str	r3, [r6, #0]
 8003936:	f7fd fe0b 	bl	8001550 <HAL_GetTick>
 800393a:	4607      	mov	r7, r0
 800393c:	6833      	ldr	r3, [r6, #0]
 800393e:	05da      	lsls	r2, r3, #23
 8003940:	f53f af42 	bmi.w	80037c8 <HAL_RCC_OscConfig+0xe8>
 8003944:	f7fd fe04 	bl	8001550 <HAL_GetTick>
 8003948:	1bc0      	subs	r0, r0, r7
 800394a:	2802      	cmp	r0, #2
 800394c:	d9f6      	bls.n	800393c <HAL_RCC_OscConfig+0x25c>
 800394e:	2003      	movs	r0, #3
 8003950:	b002      	add	sp, #8
 8003952:	e8bd 81f0 	ldmia.w	sp!, {r4, r5, r6, r7, r8, pc}
 8003956:	4a06      	ldr	r2, [pc, #24]	; (8003970 <HAL_RCC_OscConfig+0x290>)
 8003958:	6f13      	ldr	r3, [r2, #112]	; 0x70
 800395a:	f043 0301 	orr.w	r3, r3, #1
 800395e:	6713      	str	r3, [r2, #112]	; 0x70
 8003960:	f7fd fdf6 	bl	8001550 <HAL_GetTick>
 8003964:	4f02      	ldr	r7, [pc, #8]	; (8003970 <HAL_RCC_OscConfig+0x290>)
 8003966:	4606      	mov	r6, r0
 8003968:	f241 3888 	movw	r8, #5000	; 0x1388
 800396c:	e00b      	b.n	8003986 <HAL_RCC_OscConfig+0x2a6>
 800396e:	bf00      	nop
 8003970:	40023800 	.word	0x40023800
 8003974:	42470000 	.word	0x42470000
 8003978:	40007000 	.word	0x40007000
 800397c:	f7fd fde8 	bl	8001550 <HAL_GetTick>
 8003980:	1b80      	subs	r0, r0, r6
 8003982:	4540      	cmp	r0, r8
 8003984:	d8e3      	bhi.n	800394e <HAL_RCC_OscConfig+0x26e>
 8003986:	6f3b      	ldr	r3, [r7, #112]	; 0x70
 8003988:	079b      	lsls	r3, r3, #30
 800398a:	d5f7      	bpl.n	800397c <HAL_RCC_OscConfig+0x29c>
 800398c:	2d00      	cmp	r5, #0
 800398e:	f43f af40 	beq.w	8003812 <HAL_RCC_OscConfig+0x132>
 8003992:	e044      	b.n	8003a1e <HAL_RCC_OscConfig+0x33e>
 8003994:	4a42      	ldr	r2, [pc, #264]	; (8003aa0 <HAL_RCC_OscConfig+0x3c0>)
 8003996:	4e43      	ldr	r6, [pc, #268]	; (8003aa4 <HAL_RCC_OscConfig+0x3c4>)
 8003998:	6013      	str	r3, [r2, #0]
 800399a:	f7fd fdd9 	bl	8001550 <HAL_GetTick>
 800399e:	4605      	mov	r5, r0
 80039a0:	e004      	b.n	80039ac <HAL_RCC_OscConfig+0x2cc>
 80039a2:	f7fd fdd5 	bl	8001550 <HAL_GetTick>
 80039a6:	1b40      	subs	r0, r0, r5
 80039a8:	2802      	cmp	r0, #2
 80039aa:	d8d0      	bhi.n	800394e <HAL_RCC_OscConfig+0x26e>
 80039ac:	6833      	ldr	r3, [r6, #0]
 80039ae:	0799      	lsls	r1, r3, #30
 80039b0:	d4f7      	bmi.n	80039a2 <HAL_RCC_OscConfig+0x2c2>
 80039b2:	6823      	ldr	r3, [r4, #0]
 80039b4:	e6f9      	b.n	80037aa <HAL_RCC_OscConfig+0xca>
 80039b6:	2801      	cmp	r0, #1
 80039b8:	f43f af48 	beq.w	800384c <HAL_RCC_OscConfig+0x16c>
 80039bc:	686b      	ldr	r3, [r5, #4]
 80039be:	69e2      	ldr	r2, [r4, #28]
 80039c0:	f403 0180 	and.w	r1, r3, #4194304	; 0x400000
 80039c4:	4291      	cmp	r1, r2
 80039c6:	f47f af64 	bne.w	8003892 <HAL_RCC_OscConfig+0x1b2>
 80039ca:	6a22      	ldr	r2, [r4, #32]
 80039cc:	f003 013f 	and.w	r1, r3, #63	; 0x3f
 80039d0:	4291      	cmp	r1, r2
 80039d2:	f47f af5e 	bne.w	8003892 <HAL_RCC_OscConfig+0x1b2>
 80039d6:	6a61      	ldr	r1, [r4, #36]	; 0x24
 80039d8:	f647 72c0 	movw	r2, #32704	; 0x7fc0
 80039dc:	401a      	ands	r2, r3
 80039de:	ebb2 1f81 	cmp.w	r2, r1, lsl #6
 80039e2:	f47f af56 	bne.w	8003892 <HAL_RCC_OscConfig+0x1b2>
 80039e6:	6aa2      	ldr	r2, [r4, #40]	; 0x28
 80039e8:	0852      	lsrs	r2, r2, #1
 80039ea:	f403 3140 	and.w	r1, r3, #196608	; 0x30000
 80039ee:	3a01      	subs	r2, #1
 80039f0:	ebb1 4f02 	cmp.w	r1, r2, lsl #16
 80039f4:	f47f af4d 	bne.w	8003892 <HAL_RCC_OscConfig+0x1b2>
 80039f8:	6ae2      	ldr	r2, [r4, #44]	; 0x2c
 80039fa:	f003 6370 	and.w	r3, r3, #251658240	; 0xf000000
 80039fe:	ebb3 6f02 	cmp.w	r3, r2, lsl #24
 8003a02:	bf14      	ite	ne
 8003a04:	2001      	movne	r0, #1
 8003a06:	2000      	moveq	r0, #0
 8003a08:	e720      	b.n	800384c <HAL_RCC_OscConfig+0x16c>
 8003a0a:	4b26      	ldr	r3, [pc, #152]	; (8003aa4 <HAL_RCC_OscConfig+0x3c4>)
 8003a0c:	681a      	ldr	r2, [r3, #0]
 8003a0e:	f442 2280 	orr.w	r2, r2, #262144	; 0x40000
 8003a12:	601a      	str	r2, [r3, #0]
 8003a14:	681a      	ldr	r2, [r3, #0]
 8003a16:	f442 3280 	orr.w	r2, r2, #65536	; 0x10000
 8003a1a:	601a      	str	r2, [r3, #0]
 8003a1c:	e76d      	b.n	80038fa <HAL_RCC_OscConfig+0x21a>
 8003a1e:	4a21      	ldr	r2, [pc, #132]	; (8003aa4 <HAL_RCC_OscConfig+0x3c4>)
 8003a20:	6c13      	ldr	r3, [r2, #64]	; 0x40
 8003a22:	f023 5380 	bic.w	r3, r3, #268435456	; 0x10000000
 8003a26:	6413      	str	r3, [r2, #64]	; 0x40
 8003a28:	e6f3      	b.n	8003812 <HAL_RCC_OscConfig+0x132>
 8003a2a:	2001      	movs	r0, #1
 8003a2c:	4770      	bx	lr
 8003a2e:	4b1d      	ldr	r3, [pc, #116]	; (8003aa4 <HAL_RCC_OscConfig+0x3c4>)
 8003a30:	6f1a      	ldr	r2, [r3, #112]	; 0x70
 8003a32:	f042 0204 	orr.w	r2, r2, #4
 8003a36:	671a      	str	r2, [r3, #112]	; 0x70
 8003a38:	6f1a      	ldr	r2, [r3, #112]	; 0x70
 8003a3a:	f042 0201 	orr.w	r2, r2, #1
 8003a3e:	671a      	str	r2, [r3, #112]	; 0x70
 8003a40:	e78e      	b.n	8003960 <HAL_RCC_OscConfig+0x280>
 8003a42:	f7fd fd85 	bl	8001550 <HAL_GetTick>
 8003a46:	4606      	mov	r6, r0
 8003a48:	e005      	b.n	8003a56 <HAL_RCC_OscConfig+0x376>
 8003a4a:	f7fd fd81 	bl	8001550 <HAL_GetTick>
 8003a4e:	1b80      	subs	r0, r0, r6
 8003a50:	2802      	cmp	r0, #2
 8003a52:	f63f af7c 	bhi.w	800394e <HAL_RCC_OscConfig+0x26e>
 8003a56:	682b      	ldr	r3, [r5, #0]
 8003a58:	0199      	lsls	r1, r3, #6
 8003a5a:	d4f6      	bmi.n	8003a4a <HAL_RCC_OscConfig+0x36a>
 8003a5c:	e9d4 3107 	ldrd	r3, r1, [r4, #28]
 8003a60:	6a62      	ldr	r2, [r4, #36]	; 0x24
 8003a62:	430b      	orrs	r3, r1
 8003a64:	ea43 1382 	orr.w	r3, r3, r2, lsl #6
 8003a68:	e9d4 210a 	ldrd	r2, r1, [r4, #40]	; 0x28
 8003a6c:	0852      	lsrs	r2, r2, #1
 8003a6e:	ea43 6301 	orr.w	r3, r3, r1, lsl #24
 8003a72:	3a01      	subs	r2, #1
 8003a74:	490a      	ldr	r1, [pc, #40]	; (8003aa0 <HAL_RCC_OscConfig+0x3c0>)
 8003a76:	ea43 4302 	orr.w	r3, r3, r2, lsl #16
 8003a7a:	2201      	movs	r2, #1
 8003a7c:	606b      	str	r3, [r5, #4]
 8003a7e:	660a      	str	r2, [r1, #96]	; 0x60
 8003a80:	f7fd fd66 	bl	8001550 <HAL_GetTick>
 8003a84:	4d07      	ldr	r5, [pc, #28]	; (8003aa4 <HAL_RCC_OscConfig+0x3c4>)
 8003a86:	4604      	mov	r4, r0
 8003a88:	e005      	b.n	8003a96 <HAL_RCC_OscConfig+0x3b6>
 8003a8a:	f7fd fd61 	bl	8001550 <HAL_GetTick>
 8003a8e:	1b00      	subs	r0, r0, r4
 8003a90:	2802      	cmp	r0, #2
 8003a92:	f63f af5c 	bhi.w	800394e <HAL_RCC_OscConfig+0x26e>
 8003a96:	682b      	ldr	r3, [r5, #0]
 8003a98:	019a      	lsls	r2, r3, #6
 8003a9a:	d5f6      	bpl.n	8003a8a <HAL_RCC_OscConfig+0x3aa>
 8003a9c:	e6d5      	b.n	800384a <HAL_RCC_OscConfig+0x16a>
 8003a9e:	bf00      	nop
 8003aa0:	42470000 	.word	0x42470000
 8003aa4:	40023800 	.word	0x40023800

08003aa8 <HAL_RCC_GetSysClockFreq>:
 8003aa8:	4916      	ldr	r1, [pc, #88]	; (8003b04 <HAL_RCC_GetSysClockFreq+0x5c>)
 8003aaa:	b508      	push	{r3, lr}
 8003aac:	688b      	ldr	r3, [r1, #8]
 8003aae:	f003 030c 	and.w	r3, r3, #12
 8003ab2:	2b04      	cmp	r3, #4
 8003ab4:	d01b      	beq.n	8003aee <HAL_RCC_GetSysClockFreq+0x46>
 8003ab6:	2b08      	cmp	r3, #8
 8003ab8:	d117      	bne.n	8003aea <HAL_RCC_GetSysClockFreq+0x42>
 8003aba:	684a      	ldr	r2, [r1, #4]
 8003abc:	684b      	ldr	r3, [r1, #4]
 8003abe:	6849      	ldr	r1, [r1, #4]
 8003ac0:	f413 0380 	ands.w	r3, r3, #4194304	; 0x400000
 8003ac4:	f002 023f 	and.w	r2, r2, #63	; 0x3f
 8003ac8:	d113      	bne.n	8003af2 <HAL_RCC_GetSysClockFreq+0x4a>
 8003aca:	480f      	ldr	r0, [pc, #60]	; (8003b08 <HAL_RCC_GetSysClockFreq+0x60>)
 8003acc:	f3c1 1188 	ubfx	r1, r1, #6, #9
 8003ad0:	fba1 0100 	umull	r0, r1, r1, r0
 8003ad4:	f7fc fbd4 	bl	8000280 <__aeabi_uldivmod>
 8003ad8:	4b0a      	ldr	r3, [pc, #40]	; (8003b04 <HAL_RCC_GetSysClockFreq+0x5c>)
 8003ada:	685b      	ldr	r3, [r3, #4]
 8003adc:	f3c3 4301 	ubfx	r3, r3, #16, #2
 8003ae0:	3301      	adds	r3, #1
 8003ae2:	005b      	lsls	r3, r3, #1
 8003ae4:	fbb0 f0f3 	udiv	r0, r0, r3
 8003ae8:	bd08      	pop	{r3, pc}
 8003aea:	4807      	ldr	r0, [pc, #28]	; (8003b08 <HAL_RCC_GetSysClockFreq+0x60>)
 8003aec:	bd08      	pop	{r3, pc}
 8003aee:	4807      	ldr	r0, [pc, #28]	; (8003b0c <HAL_RCC_GetSysClockFreq+0x64>)
 8003af0:	bd08      	pop	{r3, pc}
 8003af2:	4806      	ldr	r0, [pc, #24]	; (8003b0c <HAL_RCC_GetSysClockFreq+0x64>)
 8003af4:	f3c1 1188 	ubfx	r1, r1, #6, #9
 8003af8:	2300      	movs	r3, #0
 8003afa:	fba1 0100 	umull	r0, r1, r1, r0
 8003afe:	f7fc fbbf 	bl	8000280 <__aeabi_uldivmod>
 8003b02:	e7e9      	b.n	8003ad8 <HAL_RCC_GetSysClockFreq+0x30>
 8003b04:	40023800 	.word	0x40023800
 8003b08:	00f42400 	.word	0x00f42400
 8003b0c:	017d7840 	.word	0x017d7840

08003b10 <HAL_RCC_ClockConfig>:
 8003b10:	2800      	cmp	r0, #0
 8003b12:	f000 8087 	beq.w	8003c24 <HAL_RCC_ClockConfig+0x114>
 8003b16:	4a48      	ldr	r2, [pc, #288]	; (8003c38 <HAL_RCC_ClockConfig+0x128>)
 8003b18:	6813      	ldr	r3, [r2, #0]
 8003b1a:	f003 0307 	and.w	r3, r3, #7
 8003b1e:	428b      	cmp	r3, r1
 8003b20:	e92d 41f0 	stmdb	sp!, {r4, r5, r6, r7, r8, lr}
 8003b24:	460d      	mov	r5, r1
 8003b26:	4604      	mov	r4, r0
 8003b28:	d209      	bcs.n	8003b3e <HAL_RCC_ClockConfig+0x2e>
 8003b2a:	b2cb      	uxtb	r3, r1
 8003b2c:	7013      	strb	r3, [r2, #0]
 8003b2e:	6813      	ldr	r3, [r2, #0]
 8003b30:	f003 0307 	and.w	r3, r3, #7
 8003b34:	428b      	cmp	r3, r1
 8003b36:	d002      	beq.n	8003b3e <HAL_RCC_ClockConfig+0x2e>
 8003b38:	2001      	movs	r0, #1
 8003b3a:	e8bd 81f0 	ldmia.w	sp!, {r4, r5, r6, r7, r8, pc}
 8003b3e:	6823      	ldr	r3, [r4, #0]
 8003b40:	0798      	lsls	r0, r3, #30
 8003b42:	d514      	bpl.n	8003b6e <HAL_RCC_ClockConfig+0x5e>
 8003b44:	0759      	lsls	r1, r3, #29
 8003b46:	d504      	bpl.n	8003b52 <HAL_RCC_ClockConfig+0x42>
 8003b48:	493c      	ldr	r1, [pc, #240]	; (8003c3c <HAL_RCC_ClockConfig+0x12c>)
 8003b4a:	688a      	ldr	r2, [r1, #8]
 8003b4c:	f442 52e0 	orr.w	r2, r2, #7168	; 0x1c00
 8003b50:	608a      	str	r2, [r1, #8]
 8003b52:	071a      	lsls	r2, r3, #28
 8003b54:	d504      	bpl.n	8003b60 <HAL_RCC_ClockConfig+0x50>
 8003b56:	4939      	ldr	r1, [pc, #228]	; (8003c3c <HAL_RCC_ClockConfig+0x12c>)
 8003b58:	688a      	ldr	r2, [r1, #8]
 8003b5a:	f442 4260 	orr.w	r2, r2, #57344	; 0xe000
 8003b5e:	608a      	str	r2, [r1, #8]
 8003b60:	4936      	ldr	r1, [pc, #216]	; (8003c3c <HAL_RCC_ClockConfig+0x12c>)
 8003b62:	68a0      	ldr	r0, [r4, #8]
 8003b64:	688a      	ldr	r2, [r1, #8]
 8003b66:	f022 02f0 	bic.w	r2, r2, #240	; 0xf0
 8003b6a:	4302      	orrs	r2, r0
 8003b6c:	608a      	str	r2, [r1, #8]
 8003b6e:	07df      	lsls	r7, r3, #31
 8003b70:	d521      	bpl.n	8003bb6 <HAL_RCC_ClockConfig+0xa6>
 8003b72:	6862      	ldr	r2, [r4, #4]
 8003b74:	2a01      	cmp	r2, #1
 8003b76:	d057      	beq.n	8003c28 <HAL_RCC_ClockConfig+0x118>
 8003b78:	1e93      	subs	r3, r2, #2
 8003b7a:	2b01      	cmp	r3, #1
 8003b7c:	4b2f      	ldr	r3, [pc, #188]	; (8003c3c <HAL_RCC_ClockConfig+0x12c>)
 8003b7e:	681b      	ldr	r3, [r3, #0]
 8003b80:	d94d      	bls.n	8003c1e <HAL_RCC_ClockConfig+0x10e>
 8003b82:	0799      	lsls	r1, r3, #30
 8003b84:	d5d8      	bpl.n	8003b38 <HAL_RCC_ClockConfig+0x28>
 8003b86:	4e2d      	ldr	r6, [pc, #180]	; (8003c3c <HAL_RCC_ClockConfig+0x12c>)
 8003b88:	68b3      	ldr	r3, [r6, #8]
 8003b8a:	f023 0303 	bic.w	r3, r3, #3
 8003b8e:	4313      	orrs	r3, r2
 8003b90:	60b3      	str	r3, [r6, #8]
 8003b92:	f7fd fcdd 	bl	8001550 <HAL_GetTick>
 8003b96:	f241 3888 	movw	r8, #5000	; 0x1388
 8003b9a:	4607      	mov	r7, r0
 8003b9c:	e004      	b.n	8003ba8 <HAL_RCC_ClockConfig+0x98>
 8003b9e:	f7fd fcd7 	bl	8001550 <HAL_GetTick>
 8003ba2:	1bc0      	subs	r0, r0, r7
 8003ba4:	4540      	cmp	r0, r8
 8003ba6:	d844      	bhi.n	8003c32 <HAL_RCC_ClockConfig+0x122>
 8003ba8:	68b3      	ldr	r3, [r6, #8]
 8003baa:	6862      	ldr	r2, [r4, #4]
 8003bac:	f003 030c 	and.w	r3, r3, #12
 8003bb0:	ebb3 0f82 	cmp.w	r3, r2, lsl #2
 8003bb4:	d1f3      	bne.n	8003b9e <HAL_RCC_ClockConfig+0x8e>
 8003bb6:	4a20      	ldr	r2, [pc, #128]	; (8003c38 <HAL_RCC_ClockConfig+0x128>)
 8003bb8:	6813      	ldr	r3, [r2, #0]
 8003bba:	f003 0307 	and.w	r3, r3, #7
 8003bbe:	42ab      	cmp	r3, r5
 8003bc0:	d906      	bls.n	8003bd0 <HAL_RCC_ClockConfig+0xc0>
 8003bc2:	b2eb      	uxtb	r3, r5
 8003bc4:	7013      	strb	r3, [r2, #0]
 8003bc6:	6813      	ldr	r3, [r2, #0]
 8003bc8:	f003 0307 	and.w	r3, r3, #7
 8003bcc:	42ab      	cmp	r3, r5
 8003bce:	d1b3      	bne.n	8003b38 <HAL_RCC_ClockConfig+0x28>
 8003bd0:	6823      	ldr	r3, [r4, #0]
 8003bd2:	075a      	lsls	r2, r3, #29
 8003bd4:	d506      	bpl.n	8003be4 <HAL_RCC_ClockConfig+0xd4>
 8003bd6:	4919      	ldr	r1, [pc, #100]	; (8003c3c <HAL_RCC_ClockConfig+0x12c>)
 8003bd8:	68e0      	ldr	r0, [r4, #12]
 8003bda:	688a      	ldr	r2, [r1, #8]
 8003bdc:	f422 52e0 	bic.w	r2, r2, #7168	; 0x1c00
 8003be0:	4302      	orrs	r2, r0
 8003be2:	608a      	str	r2, [r1, #8]
 8003be4:	071b      	lsls	r3, r3, #28
 8003be6:	d507      	bpl.n	8003bf8 <HAL_RCC_ClockConfig+0xe8>
 8003be8:	4a14      	ldr	r2, [pc, #80]	; (8003c3c <HAL_RCC_ClockConfig+0x12c>)
 8003bea:	6921      	ldr	r1, [r4, #16]
 8003bec:	6893      	ldr	r3, [r2, #8]
 8003bee:	f423 4360 	bic.w	r3, r3, #57344	; 0xe000
 8003bf2:	ea43 03c1 	orr.w	r3, r3, r1, lsl #3
 8003bf6:	6093      	str	r3, [r2, #8]
 8003bf8:	f7ff ff56 	bl	8003aa8 <HAL_RCC_GetSysClockFreq>
 8003bfc:	4a0f      	ldr	r2, [pc, #60]	; (8003c3c <HAL_RCC_ClockConfig+0x12c>)
 8003bfe:	4c10      	ldr	r4, [pc, #64]	; (8003c40 <HAL_RCC_ClockConfig+0x130>)
 8003c00:	6892      	ldr	r2, [r2, #8]
 8003c02:	4910      	ldr	r1, [pc, #64]	; (8003c44 <HAL_RCC_ClockConfig+0x134>)
 8003c04:	f3c2 1203 	ubfx	r2, r2, #4, #4
 8003c08:	4603      	mov	r3, r0
 8003c0a:	5ca2      	ldrb	r2, [r4, r2]
 8003c0c:	480e      	ldr	r0, [pc, #56]	; (8003c48 <HAL_RCC_ClockConfig+0x138>)
 8003c0e:	40d3      	lsrs	r3, r2
 8003c10:	6800      	ldr	r0, [r0, #0]
 8003c12:	600b      	str	r3, [r1, #0]
 8003c14:	f7fd fa9a 	bl	800114c <HAL_InitTick>
 8003c18:	2000      	movs	r0, #0
 8003c1a:	e8bd 81f0 	ldmia.w	sp!, {r4, r5, r6, r7, r8, pc}
 8003c1e:	0198      	lsls	r0, r3, #6
 8003c20:	d4b1      	bmi.n	8003b86 <HAL_RCC_ClockConfig+0x76>
 8003c22:	e789      	b.n	8003b38 <HAL_RCC_ClockConfig+0x28>
 8003c24:	2001      	movs	r0, #1
 8003c26:	4770      	bx	lr
 8003c28:	4b04      	ldr	r3, [pc, #16]	; (8003c3c <HAL_RCC_ClockConfig+0x12c>)
 8003c2a:	681b      	ldr	r3, [r3, #0]
 8003c2c:	039e      	lsls	r6, r3, #14
 8003c2e:	d4aa      	bmi.n	8003b86 <HAL_RCC_ClockConfig+0x76>
 8003c30:	e782      	b.n	8003b38 <HAL_RCC_ClockConfig+0x28>
 8003c32:	2003      	movs	r0, #3
 8003c34:	e781      	b.n	8003b3a <HAL_RCC_ClockConfig+0x2a>
 8003c36:	bf00      	nop
 8003c38:	40023c00 	.word	0x40023c00
 8003c3c:	40023800 	.word	0x40023800
 8003c40:	08009758 	.word	0x08009758
 8003c44:	20000108 	.word	0x20000108
 8003c48:	20000110 	.word	0x20000110

08003c4c <HAL_RCC_GetHCLKFreq>:
 8003c4c:	4b01      	ldr	r3, [pc, #4]	; (8003c54 <HAL_RCC_GetHCLKFreq+0x8>)
 8003c4e:	6818      	ldr	r0, [r3, #0]
 8003c50:	4770      	bx	lr
 8003c52:	bf00      	nop
 8003c54:	20000108 	.word	0x20000108

08003c58 <HAL_RCC_GetPCLK1Freq>:
 8003c58:	4b04      	ldr	r3, [pc, #16]	; (8003c6c <HAL_RCC_GetPCLK1Freq+0x14>)
 8003c5a:	4905      	ldr	r1, [pc, #20]	; (8003c70 <HAL_RCC_GetPCLK1Freq+0x18>)
 8003c5c:	689b      	ldr	r3, [r3, #8]
 8003c5e:	4a05      	ldr	r2, [pc, #20]	; (8003c74 <HAL_RCC_GetPCLK1Freq+0x1c>)
 8003c60:	6808      	ldr	r0, [r1, #0]
 8003c62:	f3c3 2382 	ubfx	r3, r3, #10, #3
 8003c66:	5cd3      	ldrb	r3, [r2, r3]
 8003c68:	40d8      	lsrs	r0, r3
 8003c6a:	4770      	bx	lr
 8003c6c:	40023800 	.word	0x40023800
 8003c70:	20000108 	.word	0x20000108
 8003c74:	08009768 	.word	0x08009768

08003c78 <HAL_RCC_GetPCLK2Freq>:
 8003c78:	4b04      	ldr	r3, [pc, #16]	; (8003c8c <HAL_RCC_GetPCLK2Freq+0x14>)
 8003c7a:	4905      	ldr	r1, [pc, #20]	; (8003c90 <HAL_RCC_GetPCLK2Freq+0x18>)
 8003c7c:	689b      	ldr	r3, [r3, #8]
 8003c7e:	4a05      	ldr	r2, [pc, #20]	; (8003c94 <HAL_RCC_GetPCLK2Freq+0x1c>)
 8003c80:	6808      	ldr	r0, [r1, #0]
 8003c82:	f3c3 3342 	ubfx	r3, r3, #13, #3
 8003c86:	5cd3      	ldrb	r3, [r2, r3]
 8003c88:	40d8      	lsrs	r0, r3
 8003c8a:	4770      	bx	lr
 8003c8c:	40023800 	.word	0x40023800
 8003c90:	20000108 	.word	0x20000108
 8003c94:	08009768 	.word	0x08009768

08003c98 <HAL_RCC_GetClockConfig>:
 8003c98:	4b0e      	ldr	r3, [pc, #56]	; (8003cd4 <HAL_RCC_GetClockConfig+0x3c>)
 8003c9a:	220f      	movs	r2, #15
 8003c9c:	6002      	str	r2, [r0, #0]
 8003c9e:	689a      	ldr	r2, [r3, #8]
 8003ca0:	f002 0203 	and.w	r2, r2, #3
 8003ca4:	6042      	str	r2, [r0, #4]
 8003ca6:	689a      	ldr	r2, [r3, #8]
 8003ca8:	f002 02f0 	and.w	r2, r2, #240	; 0xf0
 8003cac:	6082      	str	r2, [r0, #8]
 8003cae:	689a      	ldr	r2, [r3, #8]
 8003cb0:	f402 52e0 	and.w	r2, r2, #7168	; 0x1c00
 8003cb4:	60c2      	str	r2, [r0, #12]
 8003cb6:	689b      	ldr	r3, [r3, #8]
 8003cb8:	08db      	lsrs	r3, r3, #3
 8003cba:	b410      	push	{r4}
 8003cbc:	f403 53e0 	and.w	r3, r3, #7168	; 0x1c00
 8003cc0:	4c05      	ldr	r4, [pc, #20]	; (8003cd8 <HAL_RCC_GetClockConfig+0x40>)
 8003cc2:	6103      	str	r3, [r0, #16]
 8003cc4:	6823      	ldr	r3, [r4, #0]
 8003cc6:	f85d 4b04 	ldr.w	r4, [sp], #4
 8003cca:	f003 0307 	and.w	r3, r3, #7
 8003cce:	600b      	str	r3, [r1, #0]
 8003cd0:	4770      	bx	lr
 8003cd2:	bf00      	nop
 8003cd4:	40023800 	.word	0x40023800
 8003cd8:	40023c00 	.word	0x40023c00

08003cdc <HAL_TIM_Base_MspInit>:
 8003cdc:	4770      	bx	lr
 8003cde:	bf00      	nop

08003ce0 <HAL_TIM_Base_Init>:
 8003ce0:	2800      	cmp	r0, #0
 8003ce2:	d076      	beq.n	8003dd2 <HAL_TIM_Base_Init+0xf2>
 8003ce4:	b510      	push	{r4, lr}
 8003ce6:	f890 303d 	ldrb.w	r3, [r0, #61]	; 0x3d
 8003cea:	4604      	mov	r4, r0
 8003cec:	f003 02ff 	and.w	r2, r3, #255	; 0xff
 8003cf0:	2b00      	cmp	r3, #0
 8003cf2:	d055      	beq.n	8003da0 <HAL_TIM_Base_Init+0xc0>
 8003cf4:	6822      	ldr	r2, [r4, #0]
 8003cf6:	4938      	ldr	r1, [pc, #224]	; (8003dd8 <HAL_TIM_Base_Init+0xf8>)
 8003cf8:	2302      	movs	r3, #2
 8003cfa:	f884 303d 	strb.w	r3, [r4, #61]	; 0x3d
 8003cfe:	428a      	cmp	r2, r1
 8003d00:	6813      	ldr	r3, [r2, #0]
 8003d02:	d052      	beq.n	8003daa <HAL_TIM_Base_Init+0xca>
 8003d04:	f1b2 4f80 	cmp.w	r2, #1073741824	; 0x40000000
 8003d08:	d021      	beq.n	8003d4e <HAL_TIM_Base_Init+0x6e>
 8003d0a:	f5a1 417c 	sub.w	r1, r1, #64512	; 0xfc00
 8003d0e:	428a      	cmp	r2, r1
 8003d10:	d01d      	beq.n	8003d4e <HAL_TIM_Base_Init+0x6e>
 8003d12:	f501 6180 	add.w	r1, r1, #1024	; 0x400
 8003d16:	428a      	cmp	r2, r1
 8003d18:	d019      	beq.n	8003d4e <HAL_TIM_Base_Init+0x6e>
 8003d1a:	f501 6180 	add.w	r1, r1, #1024	; 0x400
 8003d1e:	428a      	cmp	r2, r1
 8003d20:	d015      	beq.n	8003d4e <HAL_TIM_Base_Init+0x6e>
 8003d22:	f501 319a 	add.w	r1, r1, #78848	; 0x13400
 8003d26:	428a      	cmp	r2, r1
 8003d28:	d015      	beq.n	8003d56 <HAL_TIM_Base_Init+0x76>
 8003d2a:	f501 6180 	add.w	r1, r1, #1024	; 0x400
 8003d2e:	428a      	cmp	r2, r1
 8003d30:	d011      	beq.n	8003d56 <HAL_TIM_Base_Init+0x76>
 8003d32:	f501 6180 	add.w	r1, r1, #1024	; 0x400
 8003d36:	428a      	cmp	r2, r1
 8003d38:	d00d      	beq.n	8003d56 <HAL_TIM_Base_Init+0x76>
 8003d3a:	69a0      	ldr	r0, [r4, #24]
 8003d3c:	68e1      	ldr	r1, [r4, #12]
 8003d3e:	f023 0380 	bic.w	r3, r3, #128	; 0x80
 8003d42:	4303      	orrs	r3, r0
 8003d44:	6013      	str	r3, [r2, #0]
 8003d46:	6863      	ldr	r3, [r4, #4]
 8003d48:	62d1      	str	r1, [r2, #44]	; 0x2c
 8003d4a:	6293      	str	r3, [r2, #40]	; 0x28
 8003d4c:	e010      	b.n	8003d70 <HAL_TIM_Base_Init+0x90>
 8003d4e:	68a1      	ldr	r1, [r4, #8]
 8003d50:	f023 0370 	bic.w	r3, r3, #112	; 0x70
 8003d54:	430b      	orrs	r3, r1
 8003d56:	6920      	ldr	r0, [r4, #16]
 8003d58:	69a1      	ldr	r1, [r4, #24]
 8003d5a:	f423 7340 	bic.w	r3, r3, #768	; 0x300
 8003d5e:	4303      	orrs	r3, r0
 8003d60:	f023 0380 	bic.w	r3, r3, #128	; 0x80
 8003d64:	68e0      	ldr	r0, [r4, #12]
 8003d66:	430b      	orrs	r3, r1
 8003d68:	6861      	ldr	r1, [r4, #4]
 8003d6a:	6013      	str	r3, [r2, #0]
 8003d6c:	62d0      	str	r0, [r2, #44]	; 0x2c
 8003d6e:	6291      	str	r1, [r2, #40]	; 0x28
 8003d70:	2301      	movs	r3, #1
 8003d72:	6153      	str	r3, [r2, #20]
 8003d74:	f884 3046 	strb.w	r3, [r4, #70]	; 0x46
 8003d78:	f884 303e 	strb.w	r3, [r4, #62]	; 0x3e
 8003d7c:	f884 303f 	strb.w	r3, [r4, #63]	; 0x3f
 8003d80:	f884 3040 	strb.w	r3, [r4, #64]	; 0x40
 8003d84:	f884 3041 	strb.w	r3, [r4, #65]	; 0x41
 8003d88:	f884 3042 	strb.w	r3, [r4, #66]	; 0x42
 8003d8c:	f884 3043 	strb.w	r3, [r4, #67]	; 0x43
 8003d90:	f884 3044 	strb.w	r3, [r4, #68]	; 0x44
 8003d94:	f884 3045 	strb.w	r3, [r4, #69]	; 0x45
 8003d98:	f884 303d 	strb.w	r3, [r4, #61]	; 0x3d
 8003d9c:	2000      	movs	r0, #0
 8003d9e:	bd10      	pop	{r4, pc}
 8003da0:	f880 203c 	strb.w	r2, [r0, #60]	; 0x3c
 8003da4:	f7ff ff9a 	bl	8003cdc <HAL_TIM_Base_MspInit>
 8003da8:	e7a4      	b.n	8003cf4 <HAL_TIM_Base_Init+0x14>
 8003daa:	68a0      	ldr	r0, [r4, #8]
 8003dac:	6921      	ldr	r1, [r4, #16]
 8003dae:	f023 0370 	bic.w	r3, r3, #112	; 0x70
 8003db2:	4303      	orrs	r3, r0
 8003db4:	f423 7340 	bic.w	r3, r3, #768	; 0x300
 8003db8:	430b      	orrs	r3, r1
 8003dba:	69a1      	ldr	r1, [r4, #24]
 8003dbc:	f023 0380 	bic.w	r3, r3, #128	; 0x80
 8003dc0:	430b      	orrs	r3, r1
 8003dc2:	6013      	str	r3, [r2, #0]
 8003dc4:	68e3      	ldr	r3, [r4, #12]
 8003dc6:	62d3      	str	r3, [r2, #44]	; 0x2c
 8003dc8:	6863      	ldr	r3, [r4, #4]
 8003dca:	6293      	str	r3, [r2, #40]	; 0x28
 8003dcc:	6963      	ldr	r3, [r4, #20]
 8003dce:	6313      	str	r3, [r2, #48]	; 0x30
 8003dd0:	e7ce      	b.n	8003d70 <HAL_TIM_Base_Init+0x90>
 8003dd2:	2001      	movs	r0, #1
 8003dd4:	4770      	bx	lr
 8003dd6:	bf00      	nop
 8003dd8:	40010000 	.word	0x40010000

08003ddc <HAL_TIM_Base_Start_IT>:
 8003ddc:	f890 303d 	ldrb.w	r3, [r0, #61]	; 0x3d
 8003de0:	2b01      	cmp	r3, #1
 8003de2:	d127      	bne.n	8003e34 <HAL_TIM_Base_Start_IT+0x58>
 8003de4:	6803      	ldr	r3, [r0, #0]
 8003de6:	4915      	ldr	r1, [pc, #84]	; (8003e3c <HAL_TIM_Base_Start_IT+0x60>)
 8003de8:	2202      	movs	r2, #2
 8003dea:	f880 203d 	strb.w	r2, [r0, #61]	; 0x3d
 8003dee:	68da      	ldr	r2, [r3, #12]
 8003df0:	428b      	cmp	r3, r1
 8003df2:	f042 0201 	orr.w	r2, r2, #1
 8003df6:	60da      	str	r2, [r3, #12]
 8003df8:	d011      	beq.n	8003e1e <HAL_TIM_Base_Start_IT+0x42>
 8003dfa:	f1b3 4f80 	cmp.w	r3, #1073741824	; 0x40000000
 8003dfe:	d00e      	beq.n	8003e1e <HAL_TIM_Base_Start_IT+0x42>
 8003e00:	4a0f      	ldr	r2, [pc, #60]	; (8003e40 <HAL_TIM_Base_Start_IT+0x64>)
 8003e02:	4293      	cmp	r3, r2
 8003e04:	d00b      	beq.n	8003e1e <HAL_TIM_Base_Start_IT+0x42>
 8003e06:	f502 6280 	add.w	r2, r2, #1024	; 0x400
 8003e0a:	4293      	cmp	r3, r2
 8003e0c:	d007      	beq.n	8003e1e <HAL_TIM_Base_Start_IT+0x42>
 8003e0e:	f502 6280 	add.w	r2, r2, #1024	; 0x400
 8003e12:	4293      	cmp	r3, r2
 8003e14:	d003      	beq.n	8003e1e <HAL_TIM_Base_Start_IT+0x42>
 8003e16:	f502 329a 	add.w	r2, r2, #78848	; 0x13400
 8003e1a:	4293      	cmp	r3, r2
 8003e1c:	d104      	bne.n	8003e28 <HAL_TIM_Base_Start_IT+0x4c>
 8003e1e:	689a      	ldr	r2, [r3, #8]
 8003e20:	f002 0207 	and.w	r2, r2, #7
 8003e24:	2a06      	cmp	r2, #6
 8003e26:	d007      	beq.n	8003e38 <HAL_TIM_Base_Start_IT+0x5c>
 8003e28:	681a      	ldr	r2, [r3, #0]
 8003e2a:	f042 0201 	orr.w	r2, r2, #1
 8003e2e:	2000      	movs	r0, #0
 8003e30:	601a      	str	r2, [r3, #0]
 8003e32:	4770      	bx	lr
 8003e34:	2001      	movs	r0, #1
 8003e36:	4770      	bx	lr
 8003e38:	2000      	movs	r0, #0
 8003e3a:	4770      	bx	lr
 8003e3c:	40010000 	.word	0x40010000
 8003e40:	40000400 	.word	0x40000400

08003e44 <HAL_TIM_PWM_Init>:
 8003e44:	2800      	cmp	r0, #0
 8003e46:	d076      	beq.n	8003f36 <HAL_TIM_PWM_Init+0xf2>
 8003e48:	b510      	push	{r4, lr}
 8003e4a:	f890 303d 	ldrb.w	r3, [r0, #61]	; 0x3d
 8003e4e:	4604      	mov	r4, r0
 8003e50:	f003 02ff 	and.w	r2, r3, #255	; 0xff
 8003e54:	2b00      	cmp	r3, #0
 8003e56:	d055      	beq.n	8003f04 <HAL_TIM_PWM_Init+0xc0>
 8003e58:	6822      	ldr	r2, [r4, #0]
 8003e5a:	4938      	ldr	r1, [pc, #224]	; (8003f3c <HAL_TIM_PWM_Init+0xf8>)
 8003e5c:	2302      	movs	r3, #2
 8003e5e:	f884 303d 	strb.w	r3, [r4, #61]	; 0x3d
 8003e62:	428a      	cmp	r2, r1
 8003e64:	6813      	ldr	r3, [r2, #0]
 8003e66:	d052      	beq.n	8003f0e <HAL_TIM_PWM_Init+0xca>
 8003e68:	f1b2 4f80 	cmp.w	r2, #1073741824	; 0x40000000
 8003e6c:	d021      	beq.n	8003eb2 <HAL_TIM_PWM_Init+0x6e>
 8003e6e:	f5a1 417c 	sub.w	r1, r1, #64512	; 0xfc00
 8003e72:	428a      	cmp	r2, r1
 8003e74:	d01d      	beq.n	8003eb2 <HAL_TIM_PWM_Init+0x6e>
 8003e76:	f501 6180 	add.w	r1, r1, #1024	; 0x400
 8003e7a:	428a      	cmp	r2, r1
 8003e7c:	d019      	beq.n	8003eb2 <HAL_TIM_PWM_Init+0x6e>
 8003e7e:	f501 6180 	add.w	r1, r1, #1024	; 0x400
 8003e82:	428a      	cmp	r2, r1
 8003e84:	d015      	beq.n	8003eb2 <HAL_TIM_PWM_Init+0x6e>
 8003e86:	f501 319a 	add.w	r1, r1, #78848	; 0x13400
 8003e8a:	428a      	cmp	r2, r1
 8003e8c:	d015      	beq.n	8003eba <HAL_TIM_PWM_Init+0x76>
 8003e8e:	f501 6180 	add.w	r1, r1, #1024	; 0x400
 8003e92:	428a      	cmp	r2, r1
 8003e94:	d011      	beq.n	8003eba <HAL_TIM_PWM_Init+0x76>
 8003e96:	f501 6180 	add.w	r1, r1, #1024	; 0x400
 8003e9a:	428a      	cmp	r2, r1
 8003e9c:	d00d      	beq.n	8003eba <HAL_TIM_PWM_Init+0x76>
 8003e9e:	69a0      	ldr	r0, [r4, #24]
 8003ea0:	68e1      	ldr	r1, [r4, #12]
 8003ea2:	f023 0380 	bic.w	r3, r3, #128	; 0x80
 8003ea6:	4303      	orrs	r3, r0
 8003ea8:	6013      	str	r3, [r2, #0]
 8003eaa:	6863      	ldr	r3, [r4, #4]
 8003eac:	62d1      	str	r1, [r2, #44]	; 0x2c
 8003eae:	6293      	str	r3, [r2, #40]	; 0x28
 8003eb0:	e010      	b.n	8003ed4 <HAL_TIM_PWM_Init+0x90>
 8003eb2:	68a1      	ldr	r1, [r4, #8]
 8003eb4:	f023 0370 	bic.w	r3, r3, #112	; 0x70
 8003eb8:	430b      	orrs	r3, r1
 8003eba:	6920      	ldr	r0, [r4, #16]
 8003ebc:	69a1      	ldr	r1, [r4, #24]
 8003ebe:	f423 7340 	bic.w	r3, r3, #768	; 0x300
 8003ec2:	4303      	orrs	r3, r0
 8003ec4:	f023 0380 	bic.w	r3, r3, #128	; 0x80
 8003ec8:	68e0      	ldr	r0, [r4, #12]
 8003eca:	430b      	orrs	r3, r1
 8003ecc:	6861      	ldr	r1, [r4, #4]
 8003ece:	6013      	str	r3, [r2, #0]
 8003ed0:	62d0      	str	r0, [r2, #44]	; 0x2c
 8003ed2:	6291      	str	r1, [r2, #40]	; 0x28
 8003ed4:	2301      	movs	r3, #1
 8003ed6:	6153      	str	r3, [r2, #20]
 8003ed8:	f884 3046 	strb.w	r3, [r4, #70]	; 0x46
 8003edc:	f884 303e 	strb.w	r3, [r4, #62]	; 0x3e
 8003ee0:	f884 303f 	strb.w	r3, [r4, #63]	; 0x3f
 8003ee4:	f884 3040 	strb.w	r3, [r4, #64]	; 0x40
 8003ee8:	f884 3041 	strb.w	r3, [r4, #65]	; 0x41
 8003eec:	f884 3042 	strb.w	r3, [r4, #66]	; 0x42
 8003ef0:	f884 3043 	strb.w	r3, [r4, #67]	; 0x43
 8003ef4:	f884 3044 	strb.w	r3, [r4, #68]	; 0x44
 8003ef8:	f884 3045 	strb.w	r3, [r4, #69]	; 0x45
 8003efc:	f884 303d 	strb.w	r3, [r4, #61]	; 0x3d
 8003f00:	2000      	movs	r0, #0
 8003f02:	bd10      	pop	{r4, pc}
 8003f04:	f880 203c 	strb.w	r2, [r0, #60]	; 0x3c
 8003f08:	f7fd fa28 	bl	800135c <HAL_TIM_PWM_MspInit>
 8003f0c:	e7a4      	b.n	8003e58 <HAL_TIM_PWM_Init+0x14>
 8003f0e:	68a0      	ldr	r0, [r4, #8]
 8003f10:	6921      	ldr	r1, [r4, #16]
 8003f12:	f023 0370 	bic.w	r3, r3, #112	; 0x70
 8003f16:	4303      	orrs	r3, r0
 8003f18:	f423 7340 	bic.w	r3, r3, #768	; 0x300
 8003f1c:	430b      	orrs	r3, r1
 8003f1e:	69a1      	ldr	r1, [r4, #24]
 8003f20:	f023 0380 	bic.w	r3, r3, #128	; 0x80
 8003f24:	430b      	orrs	r3, r1
 8003f26:	6013      	str	r3, [r2, #0]
 8003f28:	68e3      	ldr	r3, [r4, #12]
 8003f2a:	62d3      	str	r3, [r2, #44]	; 0x2c
 8003f2c:	6863      	ldr	r3, [r4, #4]
 8003f2e:	6293      	str	r3, [r2, #40]	; 0x28
 8003f30:	6963      	ldr	r3, [r4, #20]
 8003f32:	6313      	str	r3, [r2, #48]	; 0x30
 8003f34:	e7ce      	b.n	8003ed4 <HAL_TIM_PWM_Init+0x90>
 8003f36:	2001      	movs	r0, #1
 8003f38:	4770      	bx	lr
 8003f3a:	bf00      	nop
 8003f3c:	40010000 	.word	0x40010000

08003f40 <HAL_TIM_PWM_Start_DMA>:
 8003f40:	b570      	push	{r4, r5, r6, lr}
 8003f42:	4605      	mov	r5, r0
 8003f44:	460c      	mov	r4, r1
 8003f46:	2900      	cmp	r1, #0
 8003f48:	f040 8082 	bne.w	8004050 <HAL_TIM_PWM_Start_DMA+0x110>
 8003f4c:	f890 103e 	ldrb.w	r1, [r0, #62]	; 0x3e
 8003f50:	2902      	cmp	r1, #2
 8003f52:	b2c8      	uxtb	r0, r1
 8003f54:	d04f      	beq.n	8003ff6 <HAL_TIM_PWM_Start_DMA+0xb6>
 8003f56:	f895 103e 	ldrb.w	r1, [r5, #62]	; 0x3e
 8003f5a:	f1a1 0101 	sub.w	r1, r1, #1
 8003f5e:	fab1 f181 	clz	r1, r1
 8003f62:	0949      	lsrs	r1, r1, #5
 8003f64:	2900      	cmp	r1, #0
 8003f66:	d049      	beq.n	8003ffc <HAL_TIM_PWM_Start_DMA+0xbc>
 8003f68:	2a00      	cmp	r2, #0
 8003f6a:	d045      	beq.n	8003ff8 <HAL_TIM_PWM_Start_DMA+0xb8>
 8003f6c:	2c00      	cmp	r4, #0
 8003f6e:	d147      	bne.n	8004000 <HAL_TIM_PWM_Start_DMA+0xc0>
 8003f70:	2102      	movs	r1, #2
 8003f72:	f885 103e 	strb.w	r1, [r5, #62]	; 0x3e
 8003f76:	6a68      	ldr	r0, [r5, #36]	; 0x24
 8003f78:	4e74      	ldr	r6, [pc, #464]	; (800414c <HAL_TIM_PWM_Start_DMA+0x20c>)
 8003f7a:	4611      	mov	r1, r2
 8003f7c:	682a      	ldr	r2, [r5, #0]
 8003f7e:	63c6      	str	r6, [r0, #60]	; 0x3c
 8003f80:	4e73      	ldr	r6, [pc, #460]	; (8004150 <HAL_TIM_PWM_Start_DMA+0x210>)
 8003f82:	6406      	str	r6, [r0, #64]	; 0x40
 8003f84:	4e73      	ldr	r6, [pc, #460]	; (8004154 <HAL_TIM_PWM_Start_DMA+0x214>)
 8003f86:	64c6      	str	r6, [r0, #76]	; 0x4c
 8003f88:	3234      	adds	r2, #52	; 0x34
 8003f8a:	f7fd fbef 	bl	800176c <HAL_DMA_Start_IT>
 8003f8e:	2800      	cmp	r0, #0
 8003f90:	d134      	bne.n	8003ffc <HAL_TIM_PWM_Start_DMA+0xbc>
 8003f92:	682b      	ldr	r3, [r5, #0]
 8003f94:	68da      	ldr	r2, [r3, #12]
 8003f96:	f442 7200 	orr.w	r2, r2, #512	; 0x200
 8003f9a:	60da      	str	r2, [r3, #12]
 8003f9c:	6a18      	ldr	r0, [r3, #32]
 8003f9e:	2201      	movs	r2, #1
 8003fa0:	f004 041f 	and.w	r4, r4, #31
 8003fa4:	fa02 f404 	lsl.w	r4, r2, r4
 8003fa8:	ea20 0004 	bic.w	r0, r0, r4
 8003fac:	6218      	str	r0, [r3, #32]
 8003fae:	6a19      	ldr	r1, [r3, #32]
 8003fb0:	4a69      	ldr	r2, [pc, #420]	; (8004158 <HAL_TIM_PWM_Start_DMA+0x218>)
 8003fb2:	430c      	orrs	r4, r1
 8003fb4:	4293      	cmp	r3, r2
 8003fb6:	621c      	str	r4, [r3, #32]
 8003fb8:	f000 80c1 	beq.w	800413e <HAL_TIM_PWM_Start_DMA+0x1fe>
 8003fbc:	f1b3 4f80 	cmp.w	r3, #1073741824	; 0x40000000
 8003fc0:	d00e      	beq.n	8003fe0 <HAL_TIM_PWM_Start_DMA+0xa0>
 8003fc2:	4a66      	ldr	r2, [pc, #408]	; (800415c <HAL_TIM_PWM_Start_DMA+0x21c>)
 8003fc4:	4293      	cmp	r3, r2
 8003fc6:	d00b      	beq.n	8003fe0 <HAL_TIM_PWM_Start_DMA+0xa0>
 8003fc8:	f502 6280 	add.w	r2, r2, #1024	; 0x400
 8003fcc:	4293      	cmp	r3, r2
 8003fce:	d007      	beq.n	8003fe0 <HAL_TIM_PWM_Start_DMA+0xa0>
 8003fd0:	f502 6280 	add.w	r2, r2, #1024	; 0x400
 8003fd4:	4293      	cmp	r3, r2
 8003fd6:	d003      	beq.n	8003fe0 <HAL_TIM_PWM_Start_DMA+0xa0>
 8003fd8:	f502 329a 	add.w	r2, r2, #78848	; 0x13400
 8003fdc:	4293      	cmp	r3, r2
 8003fde:	d105      	bne.n	8003fec <HAL_TIM_PWM_Start_DMA+0xac>
 8003fe0:	689a      	ldr	r2, [r3, #8]
 8003fe2:	f002 0207 	and.w	r2, r2, #7
 8003fe6:	2a06      	cmp	r2, #6
 8003fe8:	f000 80ae 	beq.w	8004148 <HAL_TIM_PWM_Start_DMA+0x208>
 8003fec:	681a      	ldr	r2, [r3, #0]
 8003fee:	f042 0201 	orr.w	r2, r2, #1
 8003ff2:	2000      	movs	r0, #0
 8003ff4:	601a      	str	r2, [r3, #0]
 8003ff6:	bd70      	pop	{r4, r5, r6, pc}
 8003ff8:	2b00      	cmp	r3, #0
 8003ffa:	d0b7      	beq.n	8003f6c <HAL_TIM_PWM_Start_DMA+0x2c>
 8003ffc:	2001      	movs	r0, #1
 8003ffe:	bd70      	pop	{r4, r5, r6, pc}
 8004000:	2c04      	cmp	r4, #4
 8004002:	d060      	beq.n	80040c6 <HAL_TIM_PWM_Start_DMA+0x186>
 8004004:	2c08      	cmp	r4, #8
 8004006:	f04f 0102 	mov.w	r1, #2
 800400a:	d046      	beq.n	800409a <HAL_TIM_PWM_Start_DMA+0x15a>
 800400c:	f885 1041 	strb.w	r1, [r5, #65]	; 0x41
 8004010:	2c0c      	cmp	r4, #12
 8004012:	d8f3      	bhi.n	8003ffc <HAL_TIM_PWM_Start_DMA+0xbc>
 8004014:	a101      	add	r1, pc, #4	; (adr r1, 800401c <HAL_TIM_PWM_Start_DMA+0xdc>)
 8004016:	f851 f024 	ldr.w	pc, [r1, r4, lsl #2]
 800401a:	bf00      	nop
 800401c:	08003f77 	.word	0x08003f77
 8004020:	08003ffd 	.word	0x08003ffd
 8004024:	08003ffd 	.word	0x08003ffd
 8004028:	08003ffd 	.word	0x08003ffd
 800402c:	080040cd 	.word	0x080040cd
 8004030:	08003ffd 	.word	0x08003ffd
 8004034:	08003ffd 	.word	0x08003ffd
 8004038:	08003ffd 	.word	0x08003ffd
 800403c:	08003ffd 	.word	0x08003ffd
 8004040:	08003ffd 	.word	0x08003ffd
 8004044:	08003ffd 	.word	0x08003ffd
 8004048:	08003ffd 	.word	0x08003ffd
 800404c:	080040f5 	.word	0x080040f5
 8004050:	2904      	cmp	r1, #4
 8004052:	d064      	beq.n	800411e <HAL_TIM_PWM_Start_DMA+0x1de>
 8004054:	2908      	cmp	r1, #8
 8004056:	bf0c      	ite	eq
 8004058:	f890 1040 	ldrbeq.w	r1, [r0, #64]	; 0x40
 800405c:	f890 1041 	ldrbne.w	r1, [r0, #65]	; 0x41
 8004060:	f1a1 0102 	sub.w	r1, r1, #2
 8004064:	fab1 f181 	clz	r1, r1
 8004068:	0949      	lsrs	r1, r1, #5
 800406a:	b979      	cbnz	r1, 800408c <HAL_TIM_PWM_Start_DMA+0x14c>
 800406c:	2c00      	cmp	r4, #0
 800406e:	f43f af72 	beq.w	8003f56 <HAL_TIM_PWM_Start_DMA+0x16>
 8004072:	2c04      	cmp	r4, #4
 8004074:	d05b      	beq.n	800412e <HAL_TIM_PWM_Start_DMA+0x1ee>
 8004076:	2c08      	cmp	r4, #8
 8004078:	d00a      	beq.n	8004090 <HAL_TIM_PWM_Start_DMA+0x150>
 800407a:	f895 1041 	ldrb.w	r1, [r5, #65]	; 0x41
 800407e:	2901      	cmp	r1, #1
 8004080:	d1bc      	bne.n	8003ffc <HAL_TIM_PWM_Start_DMA+0xbc>
 8004082:	2a00      	cmp	r2, #0
 8004084:	d1be      	bne.n	8004004 <HAL_TIM_PWM_Start_DMA+0xc4>
 8004086:	2b00      	cmp	r3, #0
 8004088:	d0bc      	beq.n	8004004 <HAL_TIM_PWM_Start_DMA+0xc4>
 800408a:	e7b7      	b.n	8003ffc <HAL_TIM_PWM_Start_DMA+0xbc>
 800408c:	2002      	movs	r0, #2
 800408e:	bd70      	pop	{r4, r5, r6, pc}
 8004090:	f895 1040 	ldrb.w	r1, [r5, #64]	; 0x40
 8004094:	2901      	cmp	r1, #1
 8004096:	d0f4      	beq.n	8004082 <HAL_TIM_PWM_Start_DMA+0x142>
 8004098:	e7b0      	b.n	8003ffc <HAL_TIM_PWM_Start_DMA+0xbc>
 800409a:	6ae8      	ldr	r0, [r5, #44]	; 0x2c
 800409c:	4e2b      	ldr	r6, [pc, #172]	; (800414c <HAL_TIM_PWM_Start_DMA+0x20c>)
 800409e:	f885 1040 	strb.w	r1, [r5, #64]	; 0x40
 80040a2:	4611      	mov	r1, r2
 80040a4:	682a      	ldr	r2, [r5, #0]
 80040a6:	63c6      	str	r6, [r0, #60]	; 0x3c
 80040a8:	4e29      	ldr	r6, [pc, #164]	; (8004150 <HAL_TIM_PWM_Start_DMA+0x210>)
 80040aa:	6406      	str	r6, [r0, #64]	; 0x40
 80040ac:	4e29      	ldr	r6, [pc, #164]	; (8004154 <HAL_TIM_PWM_Start_DMA+0x214>)
 80040ae:	64c6      	str	r6, [r0, #76]	; 0x4c
 80040b0:	323c      	adds	r2, #60	; 0x3c
 80040b2:	f7fd fb5b 	bl	800176c <HAL_DMA_Start_IT>
 80040b6:	2800      	cmp	r0, #0
 80040b8:	d1a0      	bne.n	8003ffc <HAL_TIM_PWM_Start_DMA+0xbc>
 80040ba:	682b      	ldr	r3, [r5, #0]
 80040bc:	68da      	ldr	r2, [r3, #12]
 80040be:	f442 6200 	orr.w	r2, r2, #2048	; 0x800
 80040c2:	60da      	str	r2, [r3, #12]
 80040c4:	e76a      	b.n	8003f9c <HAL_TIM_PWM_Start_DMA+0x5c>
 80040c6:	2102      	movs	r1, #2
 80040c8:	f885 103f 	strb.w	r1, [r5, #63]	; 0x3f
 80040cc:	6aa8      	ldr	r0, [r5, #40]	; 0x28
 80040ce:	4e1f      	ldr	r6, [pc, #124]	; (800414c <HAL_TIM_PWM_Start_DMA+0x20c>)
 80040d0:	4611      	mov	r1, r2
 80040d2:	682a      	ldr	r2, [r5, #0]
 80040d4:	63c6      	str	r6, [r0, #60]	; 0x3c
 80040d6:	4e1e      	ldr	r6, [pc, #120]	; (8004150 <HAL_TIM_PWM_Start_DMA+0x210>)
 80040d8:	6406      	str	r6, [r0, #64]	; 0x40
 80040da:	4e1e      	ldr	r6, [pc, #120]	; (8004154 <HAL_TIM_PWM_Start_DMA+0x214>)
 80040dc:	64c6      	str	r6, [r0, #76]	; 0x4c
 80040de:	3238      	adds	r2, #56	; 0x38
 80040e0:	f7fd fb44 	bl	800176c <HAL_DMA_Start_IT>
 80040e4:	2800      	cmp	r0, #0
 80040e6:	d189      	bne.n	8003ffc <HAL_TIM_PWM_Start_DMA+0xbc>
 80040e8:	682b      	ldr	r3, [r5, #0]
 80040ea:	68da      	ldr	r2, [r3, #12]
 80040ec:	f442 6280 	orr.w	r2, r2, #1024	; 0x400
 80040f0:	60da      	str	r2, [r3, #12]
 80040f2:	e753      	b.n	8003f9c <HAL_TIM_PWM_Start_DMA+0x5c>
 80040f4:	6b28      	ldr	r0, [r5, #48]	; 0x30
 80040f6:	4e15      	ldr	r6, [pc, #84]	; (800414c <HAL_TIM_PWM_Start_DMA+0x20c>)
 80040f8:	4611      	mov	r1, r2
 80040fa:	682a      	ldr	r2, [r5, #0]
 80040fc:	63c6      	str	r6, [r0, #60]	; 0x3c
 80040fe:	4e14      	ldr	r6, [pc, #80]	; (8004150 <HAL_TIM_PWM_Start_DMA+0x210>)
 8004100:	6406      	str	r6, [r0, #64]	; 0x40
 8004102:	4e14      	ldr	r6, [pc, #80]	; (8004154 <HAL_TIM_PWM_Start_DMA+0x214>)
 8004104:	64c6      	str	r6, [r0, #76]	; 0x4c
 8004106:	3240      	adds	r2, #64	; 0x40
 8004108:	f7fd fb30 	bl	800176c <HAL_DMA_Start_IT>
 800410c:	2800      	cmp	r0, #0
 800410e:	f47f af75 	bne.w	8003ffc <HAL_TIM_PWM_Start_DMA+0xbc>
 8004112:	682b      	ldr	r3, [r5, #0]
 8004114:	68da      	ldr	r2, [r3, #12]
 8004116:	f442 5280 	orr.w	r2, r2, #4096	; 0x1000
 800411a:	60da      	str	r2, [r3, #12]
 800411c:	e73e      	b.n	8003f9c <HAL_TIM_PWM_Start_DMA+0x5c>
 800411e:	f890 103f 	ldrb.w	r1, [r0, #63]	; 0x3f
 8004122:	f1a1 0102 	sub.w	r1, r1, #2
 8004126:	fab1 f181 	clz	r1, r1
 800412a:	0949      	lsrs	r1, r1, #5
 800412c:	e79d      	b.n	800406a <HAL_TIM_PWM_Start_DMA+0x12a>
 800412e:	f895 103f 	ldrb.w	r1, [r5, #63]	; 0x3f
 8004132:	f1a1 0101 	sub.w	r1, r1, #1
 8004136:	fab1 f181 	clz	r1, r1
 800413a:	0949      	lsrs	r1, r1, #5
 800413c:	e712      	b.n	8003f64 <HAL_TIM_PWM_Start_DMA+0x24>
 800413e:	6c5a      	ldr	r2, [r3, #68]	; 0x44
 8004140:	f442 4200 	orr.w	r2, r2, #32768	; 0x8000
 8004144:	645a      	str	r2, [r3, #68]	; 0x44
 8004146:	e74b      	b.n	8003fe0 <HAL_TIM_PWM_Start_DMA+0xa0>
 8004148:	2000      	movs	r0, #0
 800414a:	bd70      	pop	{r4, r5, r6, pc}
 800414c:	0800445d 	.word	0x0800445d
 8004150:	080044e5 	.word	0x080044e5
 8004154:	0800469d 	.word	0x0800469d
 8004158:	40010000 	.word	0x40010000
 800415c:	40000400 	.word	0x40000400

08004160 <HAL_TIM_PWM_Stop_DMA>:
 8004160:	b538      	push	{r3, r4, r5, lr}
 8004162:	460c      	mov	r4, r1
 8004164:	4605      	mov	r5, r0
 8004166:	290c      	cmp	r1, #12
 8004168:	d808      	bhi.n	800417c <HAL_TIM_PWM_Stop_DMA+0x1c>
 800416a:	e8df f001 	tbb	[pc, r1]
 800416e:	0745      	.short	0x0745
 8004170:	073c0707 	.word	0x073c0707
 8004174:	07330707 	.word	0x07330707
 8004178:	0707      	.short	0x0707
 800417a:	09          	.byte	0x09
 800417b:	00          	.byte	0x00
 800417c:	2001      	movs	r0, #1
 800417e:	bd38      	pop	{r3, r4, r5, pc}
 8004180:	6802      	ldr	r2, [r0, #0]
 8004182:	6b00      	ldr	r0, [r0, #48]	; 0x30
 8004184:	68d3      	ldr	r3, [r2, #12]
 8004186:	f423 5380 	bic.w	r3, r3, #4096	; 0x1000
 800418a:	60d3      	str	r3, [r2, #12]
 800418c:	f7fd fb2e 	bl	80017ec <HAL_DMA_Abort_IT>
 8004190:	682b      	ldr	r3, [r5, #0]
 8004192:	f004 001f 	and.w	r0, r4, #31
 8004196:	6a1a      	ldr	r2, [r3, #32]
 8004198:	2101      	movs	r1, #1
 800419a:	4081      	lsls	r1, r0
 800419c:	ea22 0201 	bic.w	r2, r2, r1
 80041a0:	621a      	str	r2, [r3, #32]
 80041a2:	4a28      	ldr	r2, [pc, #160]	; (8004244 <HAL_TIM_PWM_Stop_DMA+0xe4>)
 80041a4:	6a19      	ldr	r1, [r3, #32]
 80041a6:	6219      	str	r1, [r3, #32]
 80041a8:	4293      	cmp	r3, r2
 80041aa:	d038      	beq.n	800421e <HAL_TIM_PWM_Stop_DMA+0xbe>
 80041ac:	6a19      	ldr	r1, [r3, #32]
 80041ae:	f241 1211 	movw	r2, #4369	; 0x1111
 80041b2:	4211      	tst	r1, r2
 80041b4:	d108      	bne.n	80041c8 <HAL_TIM_PWM_Stop_DMA+0x68>
 80041b6:	6a19      	ldr	r1, [r3, #32]
 80041b8:	f240 4244 	movw	r2, #1092	; 0x444
 80041bc:	4211      	tst	r1, r2
 80041be:	d103      	bne.n	80041c8 <HAL_TIM_PWM_Stop_DMA+0x68>
 80041c0:	681a      	ldr	r2, [r3, #0]
 80041c2:	f022 0201 	bic.w	r2, r2, #1
 80041c6:	601a      	str	r2, [r3, #0]
 80041c8:	2301      	movs	r3, #1
 80041ca:	b9f4      	cbnz	r4, 800420a <HAL_TIM_PWM_Stop_DMA+0xaa>
 80041cc:	f885 303e 	strb.w	r3, [r5, #62]	; 0x3e
 80041d0:	4620      	mov	r0, r4
 80041d2:	bd38      	pop	{r3, r4, r5, pc}
 80041d4:	6802      	ldr	r2, [r0, #0]
 80041d6:	6ac0      	ldr	r0, [r0, #44]	; 0x2c
 80041d8:	68d3      	ldr	r3, [r2, #12]
 80041da:	f423 6300 	bic.w	r3, r3, #2048	; 0x800
 80041de:	60d3      	str	r3, [r2, #12]
 80041e0:	f7fd fb04 	bl	80017ec <HAL_DMA_Abort_IT>
 80041e4:	e7d4      	b.n	8004190 <HAL_TIM_PWM_Stop_DMA+0x30>
 80041e6:	6802      	ldr	r2, [r0, #0]
 80041e8:	6a80      	ldr	r0, [r0, #40]	; 0x28
 80041ea:	68d3      	ldr	r3, [r2, #12]
 80041ec:	f423 6380 	bic.w	r3, r3, #1024	; 0x400
 80041f0:	60d3      	str	r3, [r2, #12]
 80041f2:	f7fd fafb 	bl	80017ec <HAL_DMA_Abort_IT>
 80041f6:	e7cb      	b.n	8004190 <HAL_TIM_PWM_Stop_DMA+0x30>
 80041f8:	6802      	ldr	r2, [r0, #0]
 80041fa:	6a40      	ldr	r0, [r0, #36]	; 0x24
 80041fc:	68d3      	ldr	r3, [r2, #12]
 80041fe:	f423 7300 	bic.w	r3, r3, #512	; 0x200
 8004202:	60d3      	str	r3, [r2, #12]
 8004204:	f7fd faf2 	bl	80017ec <HAL_DMA_Abort_IT>
 8004208:	e7c2      	b.n	8004190 <HAL_TIM_PWM_Stop_DMA+0x30>
 800420a:	2c04      	cmp	r4, #4
 800420c:	d016      	beq.n	800423c <HAL_TIM_PWM_Stop_DMA+0xdc>
 800420e:	2c08      	cmp	r4, #8
 8004210:	bf0c      	ite	eq
 8004212:	f885 3040 	strbeq.w	r3, [r5, #64]	; 0x40
 8004216:	f885 3041 	strbne.w	r3, [r5, #65]	; 0x41
 800421a:	2000      	movs	r0, #0
 800421c:	bd38      	pop	{r3, r4, r5, pc}
 800421e:	6a19      	ldr	r1, [r3, #32]
 8004220:	f241 1211 	movw	r2, #4369	; 0x1111
 8004224:	4211      	tst	r1, r2
 8004226:	d1c1      	bne.n	80041ac <HAL_TIM_PWM_Stop_DMA+0x4c>
 8004228:	6a19      	ldr	r1, [r3, #32]
 800422a:	f240 4244 	movw	r2, #1092	; 0x444
 800422e:	4211      	tst	r1, r2
 8004230:	d1bc      	bne.n	80041ac <HAL_TIM_PWM_Stop_DMA+0x4c>
 8004232:	6c5a      	ldr	r2, [r3, #68]	; 0x44
 8004234:	f422 4200 	bic.w	r2, r2, #32768	; 0x8000
 8004238:	645a      	str	r2, [r3, #68]	; 0x44
 800423a:	e7b7      	b.n	80041ac <HAL_TIM_PWM_Stop_DMA+0x4c>
 800423c:	f885 303f 	strb.w	r3, [r5, #63]	; 0x3f
 8004240:	2000      	movs	r0, #0
 8004242:	bd38      	pop	{r3, r4, r5, pc}
 8004244:	40010000 	.word	0x40010000

08004248 <HAL_TIM_PWM_ConfigChannel>:
 8004248:	f890 303c 	ldrb.w	r3, [r0, #60]	; 0x3c
 800424c:	2b01      	cmp	r3, #1
 800424e:	f000 80ca 	beq.w	80043e6 <HAL_TIM_PWM_ConfigChannel+0x19e>
 8004252:	2301      	movs	r3, #1
 8004254:	b4f0      	push	{r4, r5, r6, r7}
 8004256:	f880 303c 	strb.w	r3, [r0, #60]	; 0x3c
 800425a:	2a0c      	cmp	r2, #12
 800425c:	d808      	bhi.n	8004270 <HAL_TIM_PWM_ConfigChannel+0x28>
 800425e:	e8df f002 	tbb	[pc, r2]
 8004262:	073d      	.short	0x073d
 8004264:	07680707 	.word	0x07680707
 8004268:	07960707 	.word	0x07960707
 800426c:	0707      	.short	0x0707
 800426e:	0e          	.byte	0x0e
 800426f:	00          	.byte	0x00
 8004270:	2300      	movs	r3, #0
 8004272:	f880 303c 	strb.w	r3, [r0, #60]	; 0x3c
 8004276:	2201      	movs	r2, #1
 8004278:	4610      	mov	r0, r2
 800427a:	bcf0      	pop	{r4, r5, r6, r7}
 800427c:	4770      	bx	lr
 800427e:	6803      	ldr	r3, [r0, #0]
 8004280:	680e      	ldr	r6, [r1, #0]
 8004282:	6a1a      	ldr	r2, [r3, #32]
 8004284:	f422 5280 	bic.w	r2, r2, #4096	; 0x1000
 8004288:	621a      	str	r2, [r3, #32]
 800428a:	6a1a      	ldr	r2, [r3, #32]
 800428c:	685d      	ldr	r5, [r3, #4]
 800428e:	69dc      	ldr	r4, [r3, #28]
 8004290:	f424 44e6 	bic.w	r4, r4, #29440	; 0x7300
 8004294:	ea44 2406 	orr.w	r4, r4, r6, lsl #8
 8004298:	688e      	ldr	r6, [r1, #8]
 800429a:	f422 5200 	bic.w	r2, r2, #8192	; 0x2000
 800429e:	ea42 3206 	orr.w	r2, r2, r6, lsl #12
 80042a2:	4e6b      	ldr	r6, [pc, #428]	; (8004450 <HAL_TIM_PWM_ConfigChannel+0x208>)
 80042a4:	42b3      	cmp	r3, r6
 80042a6:	f000 80bd 	beq.w	8004424 <HAL_TIM_PWM_ConfigChannel+0x1dc>
 80042aa:	605d      	str	r5, [r3, #4]
 80042ac:	61dc      	str	r4, [r3, #28]
 80042ae:	684c      	ldr	r4, [r1, #4]
 80042b0:	641c      	str	r4, [r3, #64]	; 0x40
 80042b2:	621a      	str	r2, [r3, #32]
 80042b4:	69da      	ldr	r2, [r3, #28]
 80042b6:	690d      	ldr	r5, [r1, #16]
 80042b8:	f442 6200 	orr.w	r2, r2, #2048	; 0x800
 80042bc:	61da      	str	r2, [r3, #28]
 80042be:	69dc      	ldr	r4, [r3, #28]
 80042c0:	f424 6480 	bic.w	r4, r4, #1024	; 0x400
 80042c4:	61dc      	str	r4, [r3, #28]
 80042c6:	69d9      	ldr	r1, [r3, #28]
 80042c8:	ea41 2105 	orr.w	r1, r1, r5, lsl #8
 80042cc:	61d9      	str	r1, [r3, #28]
 80042ce:	2300      	movs	r3, #0
 80042d0:	f880 303c 	strb.w	r3, [r0, #60]	; 0x3c
 80042d4:	2200      	movs	r2, #0
 80042d6:	4610      	mov	r0, r2
 80042d8:	bcf0      	pop	{r4, r5, r6, r7}
 80042da:	4770      	bx	lr
 80042dc:	6803      	ldr	r3, [r0, #0]
 80042de:	680e      	ldr	r6, [r1, #0]
 80042e0:	6a1a      	ldr	r2, [r3, #32]
 80042e2:	f022 0201 	bic.w	r2, r2, #1
 80042e6:	621a      	str	r2, [r3, #32]
 80042e8:	6a1a      	ldr	r2, [r3, #32]
 80042ea:	685d      	ldr	r5, [r3, #4]
 80042ec:	699c      	ldr	r4, [r3, #24]
 80042ee:	f024 0473 	bic.w	r4, r4, #115	; 0x73
 80042f2:	4334      	orrs	r4, r6
 80042f4:	688e      	ldr	r6, [r1, #8]
 80042f6:	f022 0202 	bic.w	r2, r2, #2
 80042fa:	4332      	orrs	r2, r6
 80042fc:	4e54      	ldr	r6, [pc, #336]	; (8004450 <HAL_TIM_PWM_ConfigChannel+0x208>)
 80042fe:	42b3      	cmp	r3, r6
 8004300:	d074      	beq.n	80043ec <HAL_TIM_PWM_ConfigChannel+0x1a4>
 8004302:	605d      	str	r5, [r3, #4]
 8004304:	619c      	str	r4, [r3, #24]
 8004306:	684c      	ldr	r4, [r1, #4]
 8004308:	635c      	str	r4, [r3, #52]	; 0x34
 800430a:	621a      	str	r2, [r3, #32]
 800430c:	699a      	ldr	r2, [r3, #24]
 800430e:	690d      	ldr	r5, [r1, #16]
 8004310:	f042 0208 	orr.w	r2, r2, #8
 8004314:	619a      	str	r2, [r3, #24]
 8004316:	699c      	ldr	r4, [r3, #24]
 8004318:	f024 0404 	bic.w	r4, r4, #4
 800431c:	619c      	str	r4, [r3, #24]
 800431e:	6999      	ldr	r1, [r3, #24]
 8004320:	4329      	orrs	r1, r5
 8004322:	6199      	str	r1, [r3, #24]
 8004324:	2300      	movs	r3, #0
 8004326:	f880 303c 	strb.w	r3, [r0, #60]	; 0x3c
 800432a:	2200      	movs	r2, #0
 800432c:	4610      	mov	r0, r2
 800432e:	bcf0      	pop	{r4, r5, r6, r7}
 8004330:	4770      	bx	lr
 8004332:	6803      	ldr	r3, [r0, #0]
 8004334:	680e      	ldr	r6, [r1, #0]
 8004336:	6a1a      	ldr	r2, [r3, #32]
 8004338:	f022 0210 	bic.w	r2, r2, #16
 800433c:	621a      	str	r2, [r3, #32]
 800433e:	6a1a      	ldr	r2, [r3, #32]
 8004340:	685d      	ldr	r5, [r3, #4]
 8004342:	699c      	ldr	r4, [r3, #24]
 8004344:	f424 44e6 	bic.w	r4, r4, #29440	; 0x7300
 8004348:	ea44 2406 	orr.w	r4, r4, r6, lsl #8
 800434c:	688e      	ldr	r6, [r1, #8]
 800434e:	f022 0220 	bic.w	r2, r2, #32
 8004352:	ea42 1206 	orr.w	r2, r2, r6, lsl #4
 8004356:	4e3e      	ldr	r6, [pc, #248]	; (8004450 <HAL_TIM_PWM_ConfigChannel+0x208>)
 8004358:	42b3      	cmp	r3, r6
 800435a:	d054      	beq.n	8004406 <HAL_TIM_PWM_ConfigChannel+0x1be>
 800435c:	605d      	str	r5, [r3, #4]
 800435e:	619c      	str	r4, [r3, #24]
 8004360:	684c      	ldr	r4, [r1, #4]
 8004362:	639c      	str	r4, [r3, #56]	; 0x38
 8004364:	621a      	str	r2, [r3, #32]
 8004366:	699a      	ldr	r2, [r3, #24]
 8004368:	690d      	ldr	r5, [r1, #16]
 800436a:	f442 6200 	orr.w	r2, r2, #2048	; 0x800
 800436e:	619a      	str	r2, [r3, #24]
 8004370:	699c      	ldr	r4, [r3, #24]
 8004372:	f424 6480 	bic.w	r4, r4, #1024	; 0x400
 8004376:	619c      	str	r4, [r3, #24]
 8004378:	6999      	ldr	r1, [r3, #24]
 800437a:	ea41 2105 	orr.w	r1, r1, r5, lsl #8
 800437e:	6199      	str	r1, [r3, #24]
 8004380:	2300      	movs	r3, #0
 8004382:	f880 303c 	strb.w	r3, [r0, #60]	; 0x3c
 8004386:	2200      	movs	r2, #0
 8004388:	4610      	mov	r0, r2
 800438a:	bcf0      	pop	{r4, r5, r6, r7}
 800438c:	4770      	bx	lr
 800438e:	6803      	ldr	r3, [r0, #0]
 8004390:	680e      	ldr	r6, [r1, #0]
 8004392:	6a1a      	ldr	r2, [r3, #32]
 8004394:	f422 7280 	bic.w	r2, r2, #256	; 0x100
 8004398:	621a      	str	r2, [r3, #32]
 800439a:	6a1a      	ldr	r2, [r3, #32]
 800439c:	685d      	ldr	r5, [r3, #4]
 800439e:	69dc      	ldr	r4, [r3, #28]
 80043a0:	f024 0473 	bic.w	r4, r4, #115	; 0x73
 80043a4:	4334      	orrs	r4, r6
 80043a6:	688e      	ldr	r6, [r1, #8]
 80043a8:	f422 7200 	bic.w	r2, r2, #512	; 0x200
 80043ac:	ea42 2206 	orr.w	r2, r2, r6, lsl #8
 80043b0:	4e27      	ldr	r6, [pc, #156]	; (8004450 <HAL_TIM_PWM_ConfigChannel+0x208>)
 80043b2:	42b3      	cmp	r3, r6
 80043b4:	d03c      	beq.n	8004430 <HAL_TIM_PWM_ConfigChannel+0x1e8>
 80043b6:	605d      	str	r5, [r3, #4]
 80043b8:	61dc      	str	r4, [r3, #28]
 80043ba:	684c      	ldr	r4, [r1, #4]
 80043bc:	63dc      	str	r4, [r3, #60]	; 0x3c
 80043be:	621a      	str	r2, [r3, #32]
 80043c0:	69da      	ldr	r2, [r3, #28]
 80043c2:	690d      	ldr	r5, [r1, #16]
 80043c4:	f042 0208 	orr.w	r2, r2, #8
 80043c8:	61da      	str	r2, [r3, #28]
 80043ca:	69dc      	ldr	r4, [r3, #28]
 80043cc:	f024 0404 	bic.w	r4, r4, #4
 80043d0:	61dc      	str	r4, [r3, #28]
 80043d2:	69d9      	ldr	r1, [r3, #28]
 80043d4:	4329      	orrs	r1, r5
 80043d6:	61d9      	str	r1, [r3, #28]
 80043d8:	2300      	movs	r3, #0
 80043da:	f880 303c 	strb.w	r3, [r0, #60]	; 0x3c
 80043de:	2200      	movs	r2, #0
 80043e0:	4610      	mov	r0, r2
 80043e2:	bcf0      	pop	{r4, r5, r6, r7}
 80043e4:	4770      	bx	lr
 80043e6:	2202      	movs	r2, #2
 80043e8:	4610      	mov	r0, r2
 80043ea:	4770      	bx	lr
 80043ec:	68ce      	ldr	r6, [r1, #12]
 80043ee:	f022 0208 	bic.w	r2, r2, #8
 80043f2:	4332      	orrs	r2, r6
 80043f4:	e9d1 6705 	ldrd	r6, r7, [r1, #20]
 80043f8:	f425 7540 	bic.w	r5, r5, #768	; 0x300
 80043fc:	433e      	orrs	r6, r7
 80043fe:	f022 0204 	bic.w	r2, r2, #4
 8004402:	4335      	orrs	r5, r6
 8004404:	e77d      	b.n	8004302 <HAL_TIM_PWM_ConfigChannel+0xba>
 8004406:	68ce      	ldr	r6, [r1, #12]
 8004408:	f022 0280 	bic.w	r2, r2, #128	; 0x80
 800440c:	ea42 1206 	orr.w	r2, r2, r6, lsl #4
 8004410:	e9d1 6705 	ldrd	r6, r7, [r1, #20]
 8004414:	f425 6540 	bic.w	r5, r5, #3072	; 0xc00
 8004418:	433e      	orrs	r6, r7
 800441a:	f022 0240 	bic.w	r2, r2, #64	; 0x40
 800441e:	ea45 0586 	orr.w	r5, r5, r6, lsl #2
 8004422:	e79b      	b.n	800435c <HAL_TIM_PWM_ConfigChannel+0x114>
 8004424:	694e      	ldr	r6, [r1, #20]
 8004426:	f425 4580 	bic.w	r5, r5, #16384	; 0x4000
 800442a:	ea45 1586 	orr.w	r5, r5, r6, lsl #6
 800442e:	e73c      	b.n	80042aa <HAL_TIM_PWM_ConfigChannel+0x62>
 8004430:	68ce      	ldr	r6, [r1, #12]
 8004432:	f422 6200 	bic.w	r2, r2, #2048	; 0x800
 8004436:	ea42 2206 	orr.w	r2, r2, r6, lsl #8
 800443a:	e9d1 6705 	ldrd	r6, r7, [r1, #20]
 800443e:	f425 5540 	bic.w	r5, r5, #12288	; 0x3000
 8004442:	433e      	orrs	r6, r7
 8004444:	f422 6280 	bic.w	r2, r2, #1024	; 0x400
 8004448:	ea45 1506 	orr.w	r5, r5, r6, lsl #4
 800444c:	e7b3      	b.n	80043b6 <HAL_TIM_PWM_ConfigChannel+0x16e>
 800444e:	bf00      	nop
 8004450:	40010000 	.word	0x40010000

08004454 <HAL_TIM_OC_DelayElapsedCallback>:
 8004454:	4770      	bx	lr
 8004456:	bf00      	nop

08004458 <HAL_TIM_IC_CaptureCallback>:
 8004458:	4770      	bx	lr
 800445a:	bf00      	nop

0800445c <TIM_DMADelayPulseCplt>:
 800445c:	b510      	push	{r4, lr}
 800445e:	6b84      	ldr	r4, [r0, #56]	; 0x38
 8004460:	6a63      	ldr	r3, [r4, #36]	; 0x24
 8004462:	4283      	cmp	r3, r0
 8004464:	d01c      	beq.n	80044a0 <TIM_DMADelayPulseCplt+0x44>
 8004466:	6aa3      	ldr	r3, [r4, #40]	; 0x28
 8004468:	4283      	cmp	r3, r0
 800446a:	d00b      	beq.n	8004484 <TIM_DMADelayPulseCplt+0x28>
 800446c:	6ae3      	ldr	r3, [r4, #44]	; 0x2c
 800446e:	4283      	cmp	r3, r0
 8004470:	d023      	beq.n	80044ba <TIM_DMADelayPulseCplt+0x5e>
 8004472:	6b23      	ldr	r3, [r4, #48]	; 0x30
 8004474:	4283      	cmp	r3, r0
 8004476:	d029      	beq.n	80044cc <TIM_DMADelayPulseCplt+0x70>
 8004478:	4620      	mov	r0, r4
 800447a:	f7fc f883 	bl	8000584 <HAL_TIM_PWM_PulseFinishedCallback>
 800447e:	2300      	movs	r3, #0
 8004480:	7723      	strb	r3, [r4, #28]
 8004482:	bd10      	pop	{r4, pc}
 8004484:	2202      	movs	r2, #2
 8004486:	7722      	strb	r2, [r4, #28]
 8004488:	69db      	ldr	r3, [r3, #28]
 800448a:	2b00      	cmp	r3, #0
 800448c:	d1f4      	bne.n	8004478 <TIM_DMADelayPulseCplt+0x1c>
 800448e:	2301      	movs	r3, #1
 8004490:	f884 303f 	strb.w	r3, [r4, #63]	; 0x3f
 8004494:	4620      	mov	r0, r4
 8004496:	f7fc f875 	bl	8000584 <HAL_TIM_PWM_PulseFinishedCallback>
 800449a:	2300      	movs	r3, #0
 800449c:	7723      	strb	r3, [r4, #28]
 800449e:	bd10      	pop	{r4, pc}
 80044a0:	2201      	movs	r2, #1
 80044a2:	7722      	strb	r2, [r4, #28]
 80044a4:	69db      	ldr	r3, [r3, #28]
 80044a6:	2b00      	cmp	r3, #0
 80044a8:	d1e6      	bne.n	8004478 <TIM_DMADelayPulseCplt+0x1c>
 80044aa:	f884 203e 	strb.w	r2, [r4, #62]	; 0x3e
 80044ae:	4620      	mov	r0, r4
 80044b0:	f7fc f868 	bl	8000584 <HAL_TIM_PWM_PulseFinishedCallback>
 80044b4:	2300      	movs	r3, #0
 80044b6:	7723      	strb	r3, [r4, #28]
 80044b8:	bd10      	pop	{r4, pc}
 80044ba:	2204      	movs	r2, #4
 80044bc:	7722      	strb	r2, [r4, #28]
 80044be:	69db      	ldr	r3, [r3, #28]
 80044c0:	2b00      	cmp	r3, #0
 80044c2:	d1d9      	bne.n	8004478 <TIM_DMADelayPulseCplt+0x1c>
 80044c4:	2301      	movs	r3, #1
 80044c6:	f884 3040 	strb.w	r3, [r4, #64]	; 0x40
 80044ca:	e7d5      	b.n	8004478 <TIM_DMADelayPulseCplt+0x1c>
 80044cc:	2208      	movs	r2, #8
 80044ce:	7722      	strb	r2, [r4, #28]
 80044d0:	69db      	ldr	r3, [r3, #28]
 80044d2:	2b00      	cmp	r3, #0
 80044d4:	d1d0      	bne.n	8004478 <TIM_DMADelayPulseCplt+0x1c>
 80044d6:	2301      	movs	r3, #1
 80044d8:	f884 3041 	strb.w	r3, [r4, #65]	; 0x41
 80044dc:	e7cc      	b.n	8004478 <TIM_DMADelayPulseCplt+0x1c>
 80044de:	bf00      	nop

080044e0 <HAL_TIM_PWM_PulseFinishedHalfCpltCallback>:
 80044e0:	4770      	bx	lr
 80044e2:	bf00      	nop

080044e4 <TIM_DMADelayPulseHalfCplt>:
 80044e4:	b510      	push	{r4, lr}
 80044e6:	6b84      	ldr	r4, [r0, #56]	; 0x38
 80044e8:	6a63      	ldr	r3, [r4, #36]	; 0x24
 80044ea:	4283      	cmp	r3, r0
 80044ec:	d018      	beq.n	8004520 <TIM_DMADelayPulseHalfCplt+0x3c>
 80044ee:	6aa3      	ldr	r3, [r4, #40]	; 0x28
 80044f0:	4283      	cmp	r3, r0
 80044f2:	d00d      	beq.n	8004510 <TIM_DMADelayPulseHalfCplt+0x2c>
 80044f4:	6ae3      	ldr	r3, [r4, #44]	; 0x2c
 80044f6:	4283      	cmp	r3, r0
 80044f8:	d01a      	beq.n	8004530 <TIM_DMADelayPulseHalfCplt+0x4c>
 80044fa:	6b23      	ldr	r3, [r4, #48]	; 0x30
 80044fc:	4283      	cmp	r3, r0
 80044fe:	bf04      	itt	eq
 8004500:	2308      	moveq	r3, #8
 8004502:	7723      	strbeq	r3, [r4, #28]
 8004504:	4620      	mov	r0, r4
 8004506:	f7ff ffeb 	bl	80044e0 <HAL_TIM_PWM_PulseFinishedHalfCpltCallback>
 800450a:	2300      	movs	r3, #0
 800450c:	7723      	strb	r3, [r4, #28]
 800450e:	bd10      	pop	{r4, pc}
 8004510:	2302      	movs	r3, #2
 8004512:	7723      	strb	r3, [r4, #28]
 8004514:	4620      	mov	r0, r4
 8004516:	f7ff ffe3 	bl	80044e0 <HAL_TIM_PWM_PulseFinishedHalfCpltCallback>
 800451a:	2300      	movs	r3, #0
 800451c:	7723      	strb	r3, [r4, #28]
 800451e:	bd10      	pop	{r4, pc}
 8004520:	2301      	movs	r3, #1
 8004522:	7723      	strb	r3, [r4, #28]
 8004524:	4620      	mov	r0, r4
 8004526:	f7ff ffdb 	bl	80044e0 <HAL_TIM_PWM_PulseFinishedHalfCpltCallback>
 800452a:	2300      	movs	r3, #0
 800452c:	7723      	strb	r3, [r4, #28]
 800452e:	bd10      	pop	{r4, pc}
 8004530:	2304      	movs	r3, #4
 8004532:	7723      	strb	r3, [r4, #28]
 8004534:	4620      	mov	r0, r4
 8004536:	f7ff ffd3 	bl	80044e0 <HAL_TIM_PWM_PulseFinishedHalfCpltCallback>
 800453a:	2300      	movs	r3, #0
 800453c:	7723      	strb	r3, [r4, #28]
 800453e:	bd10      	pop	{r4, pc}

08004540 <HAL_TIM_TriggerCallback>:
 8004540:	4770      	bx	lr
 8004542:	bf00      	nop

08004544 <HAL_TIM_IRQHandler>:
 8004544:	6803      	ldr	r3, [r0, #0]
 8004546:	691a      	ldr	r2, [r3, #16]
 8004548:	0791      	lsls	r1, r2, #30
 800454a:	b510      	push	{r4, lr}
 800454c:	4604      	mov	r4, r0
 800454e:	d502      	bpl.n	8004556 <HAL_TIM_IRQHandler+0x12>
 8004550:	68da      	ldr	r2, [r3, #12]
 8004552:	0792      	lsls	r2, r2, #30
 8004554:	d45f      	bmi.n	8004616 <HAL_TIM_IRQHandler+0xd2>
 8004556:	691a      	ldr	r2, [r3, #16]
 8004558:	0750      	lsls	r0, r2, #29
 800455a:	d502      	bpl.n	8004562 <HAL_TIM_IRQHandler+0x1e>
 800455c:	68da      	ldr	r2, [r3, #12]
 800455e:	0751      	lsls	r1, r2, #29
 8004560:	d446      	bmi.n	80045f0 <HAL_TIM_IRQHandler+0xac>
 8004562:	691a      	ldr	r2, [r3, #16]
 8004564:	0712      	lsls	r2, r2, #28
 8004566:	d502      	bpl.n	800456e <HAL_TIM_IRQHandler+0x2a>
 8004568:	68da      	ldr	r2, [r3, #12]
 800456a:	0710      	lsls	r0, r2, #28
 800456c:	d42e      	bmi.n	80045cc <HAL_TIM_IRQHandler+0x88>
 800456e:	691a      	ldr	r2, [r3, #16]
 8004570:	06d2      	lsls	r2, r2, #27
 8004572:	d502      	bpl.n	800457a <HAL_TIM_IRQHandler+0x36>
 8004574:	68da      	ldr	r2, [r3, #12]
 8004576:	06d0      	lsls	r0, r2, #27
 8004578:	d418      	bmi.n	80045ac <HAL_TIM_IRQHandler+0x68>
 800457a:	691a      	ldr	r2, [r3, #16]
 800457c:	07d1      	lsls	r1, r2, #31
 800457e:	d502      	bpl.n	8004586 <HAL_TIM_IRQHandler+0x42>
 8004580:	68da      	ldr	r2, [r3, #12]
 8004582:	07d2      	lsls	r2, r2, #31
 8004584:	d45d      	bmi.n	8004642 <HAL_TIM_IRQHandler+0xfe>
 8004586:	691a      	ldr	r2, [r3, #16]
 8004588:	0610      	lsls	r0, r2, #24
 800458a:	d502      	bpl.n	8004592 <HAL_TIM_IRQHandler+0x4e>
 800458c:	68da      	ldr	r2, [r3, #12]
 800458e:	0611      	lsls	r1, r2, #24
 8004590:	d45f      	bmi.n	8004652 <HAL_TIM_IRQHandler+0x10e>
 8004592:	691a      	ldr	r2, [r3, #16]
 8004594:	0652      	lsls	r2, r2, #25
 8004596:	d502      	bpl.n	800459e <HAL_TIM_IRQHandler+0x5a>
 8004598:	68da      	ldr	r2, [r3, #12]
 800459a:	0650      	lsls	r0, r2, #25
 800459c:	d461      	bmi.n	8004662 <HAL_TIM_IRQHandler+0x11e>
 800459e:	691a      	ldr	r2, [r3, #16]
 80045a0:	0691      	lsls	r1, r2, #26
 80045a2:	d502      	bpl.n	80045aa <HAL_TIM_IRQHandler+0x66>
 80045a4:	68da      	ldr	r2, [r3, #12]
 80045a6:	0692      	lsls	r2, r2, #26
 80045a8:	d443      	bmi.n	8004632 <HAL_TIM_IRQHandler+0xee>
 80045aa:	bd10      	pop	{r4, pc}
 80045ac:	f06f 0110 	mvn.w	r1, #16
 80045b0:	2208      	movs	r2, #8
 80045b2:	6119      	str	r1, [r3, #16]
 80045b4:	7722      	strb	r2, [r4, #28]
 80045b6:	69db      	ldr	r3, [r3, #28]
 80045b8:	f413 7f40 	tst.w	r3, #768	; 0x300
 80045bc:	4620      	mov	r0, r4
 80045be:	d064      	beq.n	800468a <HAL_TIM_IRQHandler+0x146>
 80045c0:	f7ff ff4a 	bl	8004458 <HAL_TIM_IC_CaptureCallback>
 80045c4:	2200      	movs	r2, #0
 80045c6:	6823      	ldr	r3, [r4, #0]
 80045c8:	7722      	strb	r2, [r4, #28]
 80045ca:	e7d6      	b.n	800457a <HAL_TIM_IRQHandler+0x36>
 80045cc:	f06f 0108 	mvn.w	r1, #8
 80045d0:	2204      	movs	r2, #4
 80045d2:	6119      	str	r1, [r3, #16]
 80045d4:	7722      	strb	r2, [r4, #28]
 80045d6:	69db      	ldr	r3, [r3, #28]
 80045d8:	0799      	lsls	r1, r3, #30
 80045da:	4620      	mov	r0, r4
 80045dc:	d152      	bne.n	8004684 <HAL_TIM_IRQHandler+0x140>
 80045de:	f7ff ff39 	bl	8004454 <HAL_TIM_OC_DelayElapsedCallback>
 80045e2:	4620      	mov	r0, r4
 80045e4:	f7fb ffce 	bl	8000584 <HAL_TIM_PWM_PulseFinishedCallback>
 80045e8:	2200      	movs	r2, #0
 80045ea:	6823      	ldr	r3, [r4, #0]
 80045ec:	7722      	strb	r2, [r4, #28]
 80045ee:	e7be      	b.n	800456e <HAL_TIM_IRQHandler+0x2a>
 80045f0:	f06f 0104 	mvn.w	r1, #4
 80045f4:	2202      	movs	r2, #2
 80045f6:	6119      	str	r1, [r3, #16]
 80045f8:	7722      	strb	r2, [r4, #28]
 80045fa:	699b      	ldr	r3, [r3, #24]
 80045fc:	f413 7f40 	tst.w	r3, #768	; 0x300
 8004600:	4620      	mov	r0, r4
 8004602:	d13c      	bne.n	800467e <HAL_TIM_IRQHandler+0x13a>
 8004604:	f7ff ff26 	bl	8004454 <HAL_TIM_OC_DelayElapsedCallback>
 8004608:	4620      	mov	r0, r4
 800460a:	f7fb ffbb 	bl	8000584 <HAL_TIM_PWM_PulseFinishedCallback>
 800460e:	2200      	movs	r2, #0
 8004610:	6823      	ldr	r3, [r4, #0]
 8004612:	7722      	strb	r2, [r4, #28]
 8004614:	e7a5      	b.n	8004562 <HAL_TIM_IRQHandler+0x1e>
 8004616:	f06f 0102 	mvn.w	r1, #2
 800461a:	2201      	movs	r2, #1
 800461c:	6119      	str	r1, [r3, #16]
 800461e:	7702      	strb	r2, [r0, #28]
 8004620:	699b      	ldr	r3, [r3, #24]
 8004622:	079b      	lsls	r3, r3, #30
 8004624:	d025      	beq.n	8004672 <HAL_TIM_IRQHandler+0x12e>
 8004626:	f7ff ff17 	bl	8004458 <HAL_TIM_IC_CaptureCallback>
 800462a:	2200      	movs	r2, #0
 800462c:	6823      	ldr	r3, [r4, #0]
 800462e:	7722      	strb	r2, [r4, #28]
 8004630:	e791      	b.n	8004556 <HAL_TIM_IRQHandler+0x12>
 8004632:	f06f 0220 	mvn.w	r2, #32
 8004636:	4620      	mov	r0, r4
 8004638:	611a      	str	r2, [r3, #16]
 800463a:	e8bd 4010 	ldmia.w	sp!, {r4, lr}
 800463e:	f000 b8a7 	b.w	8004790 <HAL_TIMEx_CommutCallback>
 8004642:	f06f 0201 	mvn.w	r2, #1
 8004646:	611a      	str	r2, [r3, #16]
 8004648:	4620      	mov	r0, r4
 800464a:	f7fc fd4b 	bl	80010e4 <HAL_TIM_PeriodElapsedCallback>
 800464e:	6823      	ldr	r3, [r4, #0]
 8004650:	e799      	b.n	8004586 <HAL_TIM_IRQHandler+0x42>
 8004652:	f06f 0280 	mvn.w	r2, #128	; 0x80
 8004656:	611a      	str	r2, [r3, #16]
 8004658:	4620      	mov	r0, r4
 800465a:	f000 f89b 	bl	8004794 <HAL_TIMEx_BreakCallback>
 800465e:	6823      	ldr	r3, [r4, #0]
 8004660:	e797      	b.n	8004592 <HAL_TIM_IRQHandler+0x4e>
 8004662:	f06f 0240 	mvn.w	r2, #64	; 0x40
 8004666:	611a      	str	r2, [r3, #16]
 8004668:	4620      	mov	r0, r4
 800466a:	f7ff ff69 	bl	8004540 <HAL_TIM_TriggerCallback>
 800466e:	6823      	ldr	r3, [r4, #0]
 8004670:	e795      	b.n	800459e <HAL_TIM_IRQHandler+0x5a>
 8004672:	f7ff feef 	bl	8004454 <HAL_TIM_OC_DelayElapsedCallback>
 8004676:	4620      	mov	r0, r4
 8004678:	f7fb ff84 	bl	8000584 <HAL_TIM_PWM_PulseFinishedCallback>
 800467c:	e7d5      	b.n	800462a <HAL_TIM_IRQHandler+0xe6>
 800467e:	f7ff feeb 	bl	8004458 <HAL_TIM_IC_CaptureCallback>
 8004682:	e7c4      	b.n	800460e <HAL_TIM_IRQHandler+0xca>
 8004684:	f7ff fee8 	bl	8004458 <HAL_TIM_IC_CaptureCallback>
 8004688:	e7ae      	b.n	80045e8 <HAL_TIM_IRQHandler+0xa4>
 800468a:	f7ff fee3 	bl	8004454 <HAL_TIM_OC_DelayElapsedCallback>
 800468e:	4620      	mov	r0, r4
 8004690:	f7fb ff78 	bl	8000584 <HAL_TIM_PWM_PulseFinishedCallback>
 8004694:	e796      	b.n	80045c4 <HAL_TIM_IRQHandler+0x80>
 8004696:	bf00      	nop

08004698 <HAL_TIM_ErrorCallback>:
 8004698:	4770      	bx	lr
 800469a:	bf00      	nop

0800469c <TIM_DMAError>:
 800469c:	b510      	push	{r4, lr}
 800469e:	6b84      	ldr	r4, [r0, #56]	; 0x38
 80046a0:	6a63      	ldr	r3, [r4, #36]	; 0x24
 80046a2:	4283      	cmp	r3, r0
 80046a4:	d01c      	beq.n	80046e0 <TIM_DMAError+0x44>
 80046a6:	6aa3      	ldr	r3, [r4, #40]	; 0x28
 80046a8:	4283      	cmp	r3, r0
 80046aa:	d00e      	beq.n	80046ca <TIM_DMAError+0x2e>
 80046ac:	6ae3      	ldr	r3, [r4, #44]	; 0x2c
 80046ae:	4283      	cmp	r3, r0
 80046b0:	d020      	beq.n	80046f4 <TIM_DMAError+0x58>
 80046b2:	6b23      	ldr	r3, [r4, #48]	; 0x30
 80046b4:	4283      	cmp	r3, r0
 80046b6:	d028      	beq.n	800470a <TIM_DMAError+0x6e>
 80046b8:	2301      	movs	r3, #1
 80046ba:	f884 303d 	strb.w	r3, [r4, #61]	; 0x3d
 80046be:	4620      	mov	r0, r4
 80046c0:	f7ff ffea 	bl	8004698 <HAL_TIM_ErrorCallback>
 80046c4:	2300      	movs	r3, #0
 80046c6:	7723      	strb	r3, [r4, #28]
 80046c8:	bd10      	pop	{r4, pc}
 80046ca:	2301      	movs	r3, #1
 80046cc:	2202      	movs	r2, #2
 80046ce:	f884 303f 	strb.w	r3, [r4, #63]	; 0x3f
 80046d2:	7722      	strb	r2, [r4, #28]
 80046d4:	4620      	mov	r0, r4
 80046d6:	f7ff ffdf 	bl	8004698 <HAL_TIM_ErrorCallback>
 80046da:	2300      	movs	r3, #0
 80046dc:	7723      	strb	r3, [r4, #28]
 80046de:	bd10      	pop	{r4, pc}
 80046e0:	2301      	movs	r3, #1
 80046e2:	7723      	strb	r3, [r4, #28]
 80046e4:	f884 303e 	strb.w	r3, [r4, #62]	; 0x3e
 80046e8:	4620      	mov	r0, r4
 80046ea:	f7ff ffd5 	bl	8004698 <HAL_TIM_ErrorCallback>
 80046ee:	2300      	movs	r3, #0
 80046f0:	7723      	strb	r3, [r4, #28]
 80046f2:	bd10      	pop	{r4, pc}
 80046f4:	2301      	movs	r3, #1
 80046f6:	2204      	movs	r2, #4
 80046f8:	f884 3040 	strb.w	r3, [r4, #64]	; 0x40
 80046fc:	7722      	strb	r2, [r4, #28]
 80046fe:	4620      	mov	r0, r4
 8004700:	f7ff ffca 	bl	8004698 <HAL_TIM_ErrorCallback>
 8004704:	2300      	movs	r3, #0
 8004706:	7723      	strb	r3, [r4, #28]
 8004708:	bd10      	pop	{r4, pc}
 800470a:	2301      	movs	r3, #1
 800470c:	2208      	movs	r2, #8
 800470e:	f884 3041 	strb.w	r3, [r4, #65]	; 0x41
 8004712:	7722      	strb	r2, [r4, #28]
 8004714:	4620      	mov	r0, r4
 8004716:	f7ff ffbf 	bl	8004698 <HAL_TIM_ErrorCallback>
 800471a:	2300      	movs	r3, #0
 800471c:	7723      	strb	r3, [r4, #28]
 800471e:	bd10      	pop	{r4, pc}

08004720 <HAL_TIMEx_MasterConfigSynchronization>:
 8004720:	f890 303c 	ldrb.w	r3, [r0, #60]	; 0x3c
 8004724:	2b01      	cmp	r3, #1
 8004726:	d02f      	beq.n	8004788 <HAL_TIMEx_MasterConfigSynchronization+0x68>
 8004728:	6803      	ldr	r3, [r0, #0]
 800472a:	2202      	movs	r2, #2
 800472c:	b430      	push	{r4, r5}
 800472e:	f880 203d 	strb.w	r2, [r0, #61]	; 0x3d
 8004732:	685a      	ldr	r2, [r3, #4]
 8004734:	680d      	ldr	r5, [r1, #0]
 8004736:	689c      	ldr	r4, [r3, #8]
 8004738:	f022 0270 	bic.w	r2, r2, #112	; 0x70
 800473c:	432a      	orrs	r2, r5
 800473e:	605a      	str	r2, [r3, #4]
 8004740:	4a12      	ldr	r2, [pc, #72]	; (800478c <HAL_TIMEx_MasterConfigSynchronization+0x6c>)
 8004742:	4293      	cmp	r3, r2
 8004744:	d012      	beq.n	800476c <HAL_TIMEx_MasterConfigSynchronization+0x4c>
 8004746:	f1b3 4f80 	cmp.w	r3, #1073741824	; 0x40000000
 800474a:	d00f      	beq.n	800476c <HAL_TIMEx_MasterConfigSynchronization+0x4c>
 800474c:	f5a2 427c 	sub.w	r2, r2, #64512	; 0xfc00
 8004750:	4293      	cmp	r3, r2
 8004752:	d00b      	beq.n	800476c <HAL_TIMEx_MasterConfigSynchronization+0x4c>
 8004754:	f502 6280 	add.w	r2, r2, #1024	; 0x400
 8004758:	4293      	cmp	r3, r2
 800475a:	d007      	beq.n	800476c <HAL_TIMEx_MasterConfigSynchronization+0x4c>
 800475c:	f502 6280 	add.w	r2, r2, #1024	; 0x400
 8004760:	4293      	cmp	r3, r2
 8004762:	d003      	beq.n	800476c <HAL_TIMEx_MasterConfigSynchronization+0x4c>
 8004764:	f502 329a 	add.w	r2, r2, #78848	; 0x13400
 8004768:	4293      	cmp	r3, r2
 800476a:	d104      	bne.n	8004776 <HAL_TIMEx_MasterConfigSynchronization+0x56>
 800476c:	684a      	ldr	r2, [r1, #4]
 800476e:	f024 0480 	bic.w	r4, r4, #128	; 0x80
 8004772:	4314      	orrs	r4, r2
 8004774:	609c      	str	r4, [r3, #8]
 8004776:	2300      	movs	r3, #0
 8004778:	2201      	movs	r2, #1
 800477a:	f880 203d 	strb.w	r2, [r0, #61]	; 0x3d
 800477e:	f880 303c 	strb.w	r3, [r0, #60]	; 0x3c
 8004782:	bc30      	pop	{r4, r5}
 8004784:	4618      	mov	r0, r3
 8004786:	4770      	bx	lr
 8004788:	2002      	movs	r0, #2
 800478a:	4770      	bx	lr
 800478c:	40010000 	.word	0x40010000

08004790 <HAL_TIMEx_CommutCallback>:
 8004790:	4770      	bx	lr
 8004792:	bf00      	nop

08004794 <HAL_TIMEx_BreakCallback>:
 8004794:	4770      	bx	lr
 8004796:	bf00      	nop

08004798 <USB_CoreInit>:
 8004798:	b084      	sub	sp, #16
 800479a:	b082      	sub	sp, #8
 800479c:	f10d 0c0c 	add.w	ip, sp, #12
 80047a0:	e88c 000e 	stmia.w	ip, {r1, r2, r3}
 80047a4:	9a08      	ldr	r2, [sp, #32]
 80047a6:	2a01      	cmp	r2, #1
 80047a8:	4603      	mov	r3, r0
 80047aa:	d12c      	bne.n	8004806 <USB_CoreInit+0x6e>
 80047ac:	6b82      	ldr	r2, [r0, #56]	; 0x38
 80047ae:	990f      	ldr	r1, [sp, #60]	; 0x3c
 80047b0:	f422 3280 	bic.w	r2, r2, #65536	; 0x10000
 80047b4:	6382      	str	r2, [r0, #56]	; 0x38
 80047b6:	68c2      	ldr	r2, [r0, #12]
 80047b8:	f422 0284 	bic.w	r2, r2, #4325376	; 0x420000
 80047bc:	f022 0240 	bic.w	r2, r2, #64	; 0x40
 80047c0:	60c2      	str	r2, [r0, #12]
 80047c2:	68c2      	ldr	r2, [r0, #12]
 80047c4:	2901      	cmp	r1, #1
 80047c6:	f422 1240 	bic.w	r2, r2, #3145728	; 0x300000
 80047ca:	60c2      	str	r2, [r0, #12]
 80047cc:	d05f      	beq.n	800488e <USB_CoreInit+0xf6>
 80047ce:	2200      	movs	r2, #0
 80047d0:	4931      	ldr	r1, [pc, #196]	; (8004898 <USB_CoreInit+0x100>)
 80047d2:	9200      	str	r2, [sp, #0]
 80047d4:	e002      	b.n	80047dc <USB_CoreInit+0x44>
 80047d6:	691a      	ldr	r2, [r3, #16]
 80047d8:	2a00      	cmp	r2, #0
 80047da:	db2d      	blt.n	8004838 <USB_CoreInit+0xa0>
 80047dc:	9a00      	ldr	r2, [sp, #0]
 80047de:	3201      	adds	r2, #1
 80047e0:	9200      	str	r2, [sp, #0]
 80047e2:	9a00      	ldr	r2, [sp, #0]
 80047e4:	428a      	cmp	r2, r1
 80047e6:	d9f6      	bls.n	80047d6 <USB_CoreInit+0x3e>
 80047e8:	2003      	movs	r0, #3
 80047ea:	9a06      	ldr	r2, [sp, #24]
 80047ec:	2a01      	cmp	r2, #1
 80047ee:	d107      	bne.n	8004800 <USB_CoreInit+0x68>
 80047f0:	689a      	ldr	r2, [r3, #8]
 80047f2:	f042 0206 	orr.w	r2, r2, #6
 80047f6:	609a      	str	r2, [r3, #8]
 80047f8:	689a      	ldr	r2, [r3, #8]
 80047fa:	f042 0220 	orr.w	r2, r2, #32
 80047fe:	609a      	str	r2, [r3, #8]
 8004800:	b002      	add	sp, #8
 8004802:	b004      	add	sp, #16
 8004804:	4770      	bx	lr
 8004806:	68c2      	ldr	r2, [r0, #12]
 8004808:	4923      	ldr	r1, [pc, #140]	; (8004898 <USB_CoreInit+0x100>)
 800480a:	2000      	movs	r0, #0
 800480c:	f042 0240 	orr.w	r2, r2, #64	; 0x40
 8004810:	60da      	str	r2, [r3, #12]
 8004812:	9001      	str	r0, [sp, #4]
 8004814:	e002      	b.n	800481c <USB_CoreInit+0x84>
 8004816:	691a      	ldr	r2, [r3, #16]
 8004818:	2a00      	cmp	r2, #0
 800481a:	db25      	blt.n	8004868 <USB_CoreInit+0xd0>
 800481c:	9a01      	ldr	r2, [sp, #4]
 800481e:	3201      	adds	r2, #1
 8004820:	9201      	str	r2, [sp, #4]
 8004822:	9a01      	ldr	r2, [sp, #4]
 8004824:	428a      	cmp	r2, r1
 8004826:	d9f6      	bls.n	8004816 <USB_CoreInit+0x7e>
 8004828:	2003      	movs	r0, #3
 800482a:	9a0c      	ldr	r2, [sp, #48]	; 0x30
 800482c:	b9ba      	cbnz	r2, 800485e <USB_CoreInit+0xc6>
 800482e:	6b9a      	ldr	r2, [r3, #56]	; 0x38
 8004830:	f442 3280 	orr.w	r2, r2, #65536	; 0x10000
 8004834:	639a      	str	r2, [r3, #56]	; 0x38
 8004836:	e7d8      	b.n	80047ea <USB_CoreInit+0x52>
 8004838:	2200      	movs	r2, #0
 800483a:	9200      	str	r2, [sp, #0]
 800483c:	691a      	ldr	r2, [r3, #16]
 800483e:	4916      	ldr	r1, [pc, #88]	; (8004898 <USB_CoreInit+0x100>)
 8004840:	f042 0201 	orr.w	r2, r2, #1
 8004844:	611a      	str	r2, [r3, #16]
 8004846:	e003      	b.n	8004850 <USB_CoreInit+0xb8>
 8004848:	6918      	ldr	r0, [r3, #16]
 800484a:	f010 0001 	ands.w	r0, r0, #1
 800484e:	d0cc      	beq.n	80047ea <USB_CoreInit+0x52>
 8004850:	9a00      	ldr	r2, [sp, #0]
 8004852:	3201      	adds	r2, #1
 8004854:	9200      	str	r2, [sp, #0]
 8004856:	9a00      	ldr	r2, [sp, #0]
 8004858:	428a      	cmp	r2, r1
 800485a:	d9f5      	bls.n	8004848 <USB_CoreInit+0xb0>
 800485c:	e7c4      	b.n	80047e8 <USB_CoreInit+0x50>
 800485e:	6b9a      	ldr	r2, [r3, #56]	; 0x38
 8004860:	f422 3280 	bic.w	r2, r2, #65536	; 0x10000
 8004864:	639a      	str	r2, [r3, #56]	; 0x38
 8004866:	e7c0      	b.n	80047ea <USB_CoreInit+0x52>
 8004868:	2200      	movs	r2, #0
 800486a:	9201      	str	r2, [sp, #4]
 800486c:	691a      	ldr	r2, [r3, #16]
 800486e:	490a      	ldr	r1, [pc, #40]	; (8004898 <USB_CoreInit+0x100>)
 8004870:	f042 0201 	orr.w	r2, r2, #1
 8004874:	611a      	str	r2, [r3, #16]
 8004876:	e003      	b.n	8004880 <USB_CoreInit+0xe8>
 8004878:	6918      	ldr	r0, [r3, #16]
 800487a:	f010 0001 	ands.w	r0, r0, #1
 800487e:	d0d4      	beq.n	800482a <USB_CoreInit+0x92>
 8004880:	9a01      	ldr	r2, [sp, #4]
 8004882:	3201      	adds	r2, #1
 8004884:	9201      	str	r2, [sp, #4]
 8004886:	9a01      	ldr	r2, [sp, #4]
 8004888:	428a      	cmp	r2, r1
 800488a:	d9f5      	bls.n	8004878 <USB_CoreInit+0xe0>
 800488c:	e7cc      	b.n	8004828 <USB_CoreInit+0x90>
 800488e:	68c2      	ldr	r2, [r0, #12]
 8004890:	f442 1280 	orr.w	r2, r2, #1048576	; 0x100000
 8004894:	60c2      	str	r2, [r0, #12]
 8004896:	e79a      	b.n	80047ce <USB_CoreInit+0x36>
 8004898:	00030d40 	.word	0x00030d40

0800489c <USB_SetTurnaroundTime>:
 800489c:	2a02      	cmp	r2, #2
 800489e:	4603      	mov	r3, r0
 80048a0:	d00b      	beq.n	80048ba <USB_SetTurnaroundTime+0x1e>
 80048a2:	f44f 5c10 	mov.w	ip, #9216	; 0x2400
 80048a6:	68d9      	ldr	r1, [r3, #12]
 80048a8:	f421 5170 	bic.w	r1, r1, #15360	; 0x3c00
 80048ac:	60d9      	str	r1, [r3, #12]
 80048ae:	68da      	ldr	r2, [r3, #12]
 80048b0:	ea42 020c 	orr.w	r2, r2, ip
 80048b4:	2000      	movs	r0, #0
 80048b6:	60da      	str	r2, [r3, #12]
 80048b8:	4770      	bx	lr
 80048ba:	4a26      	ldr	r2, [pc, #152]	; (8004954 <USB_SetTurnaroundTime+0xb8>)
 80048bc:	4826      	ldr	r0, [pc, #152]	; (8004958 <USB_SetTurnaroundTime+0xbc>)
 80048be:	440a      	add	r2, r1
 80048c0:	4282      	cmp	r2, r0
 80048c2:	d932      	bls.n	800492a <USB_SetTurnaroundTime+0x8e>
 80048c4:	4a25      	ldr	r2, [pc, #148]	; (800495c <USB_SetTurnaroundTime+0xc0>)
 80048c6:	4826      	ldr	r0, [pc, #152]	; (8004960 <USB_SetTurnaroundTime+0xc4>)
 80048c8:	440a      	add	r2, r1
 80048ca:	4282      	cmp	r2, r0
 80048cc:	d930      	bls.n	8004930 <USB_SetTurnaroundTime+0x94>
 80048ce:	4825      	ldr	r0, [pc, #148]	; (8004964 <USB_SetTurnaroundTime+0xc8>)
 80048d0:	f5a1 0274 	sub.w	r2, r1, #15990784	; 0xf40000
 80048d4:	f5a2 5210 	sub.w	r2, r2, #9216	; 0x2400
 80048d8:	4282      	cmp	r2, r0
 80048da:	d92c      	bls.n	8004936 <USB_SetTurnaroundTime+0x9a>
 80048dc:	4822      	ldr	r0, [pc, #136]	; (8004968 <USB_SetTurnaroundTime+0xcc>)
 80048de:	f1a1 7283 	sub.w	r2, r1, #17170432	; 0x1060000
 80048e2:	f5a2 42e7 	sub.w	r2, r2, #29568	; 0x7380
 80048e6:	4282      	cmp	r2, r0
 80048e8:	d328      	bcc.n	800493c <USB_SetTurnaroundTime+0xa0>
 80048ea:	4a20      	ldr	r2, [pc, #128]	; (800496c <USB_SetTurnaroundTime+0xd0>)
 80048ec:	4820      	ldr	r0, [pc, #128]	; (8004970 <USB_SetTurnaroundTime+0xd4>)
 80048ee:	440a      	add	r2, r1
 80048f0:	4282      	cmp	r2, r0
 80048f2:	d926      	bls.n	8004942 <USB_SetTurnaroundTime+0xa6>
 80048f4:	4a1f      	ldr	r2, [pc, #124]	; (8004974 <USB_SetTurnaroundTime+0xd8>)
 80048f6:	4820      	ldr	r0, [pc, #128]	; (8004978 <USB_SetTurnaroundTime+0xdc>)
 80048f8:	440a      	add	r2, r1
 80048fa:	4282      	cmp	r2, r0
 80048fc:	d324      	bcc.n	8004948 <USB_SetTurnaroundTime+0xac>
 80048fe:	4a1f      	ldr	r2, [pc, #124]	; (800497c <USB_SetTurnaroundTime+0xe0>)
 8004900:	481f      	ldr	r0, [pc, #124]	; (8004980 <USB_SetTurnaroundTime+0xe4>)
 8004902:	440a      	add	r2, r1
 8004904:	4282      	cmp	r2, r0
 8004906:	d3cc      	bcc.n	80048a2 <USB_SetTurnaroundTime+0x6>
 8004908:	481e      	ldr	r0, [pc, #120]	; (8004984 <USB_SetTurnaroundTime+0xe8>)
 800490a:	f1a1 72b7 	sub.w	r2, r1, #23986176	; 0x16e0000
 800490e:	f5a2 5258 	sub.w	r2, r2, #13824	; 0x3600
 8004912:	4282      	cmp	r2, r0
 8004914:	d31b      	bcc.n	800494e <USB_SetTurnaroundTime+0xb2>
 8004916:	4a1c      	ldr	r2, [pc, #112]	; (8004988 <USB_SetTurnaroundTime+0xec>)
 8004918:	481c      	ldr	r0, [pc, #112]	; (800498c <USB_SetTurnaroundTime+0xf0>)
 800491a:	440a      	add	r2, r1
 800491c:	4282      	cmp	r2, r0
 800491e:	bf34      	ite	cc
 8004920:	f44f 5ce0 	movcc.w	ip, #7168	; 0x1c00
 8004924:	f44f 5cc0 	movcs.w	ip, #6144	; 0x1800
 8004928:	e7bd      	b.n	80048a6 <USB_SetTurnaroundTime+0xa>
 800492a:	f44f 5c70 	mov.w	ip, #15360	; 0x3c00
 800492e:	e7ba      	b.n	80048a6 <USB_SetTurnaroundTime+0xa>
 8004930:	f44f 5c60 	mov.w	ip, #14336	; 0x3800
 8004934:	e7b7      	b.n	80048a6 <USB_SetTurnaroundTime+0xa>
 8004936:	f44f 5c50 	mov.w	ip, #13312	; 0x3400
 800493a:	e7b4      	b.n	80048a6 <USB_SetTurnaroundTime+0xa>
 800493c:	f44f 5c40 	mov.w	ip, #12288	; 0x3000
 8004940:	e7b1      	b.n	80048a6 <USB_SetTurnaroundTime+0xa>
 8004942:	f44f 5c30 	mov.w	ip, #11264	; 0x2c00
 8004946:	e7ae      	b.n	80048a6 <USB_SetTurnaroundTime+0xa>
 8004948:	f44f 5c20 	mov.w	ip, #10240	; 0x2800
 800494c:	e7ab      	b.n	80048a6 <USB_SetTurnaroundTime+0xa>
 800494e:	f44f 5c00 	mov.w	ip, #8192	; 0x2000
 8004952:	e7a8      	b.n	80048a6 <USB_SetTurnaroundTime+0xa>
 8004954:	ff275340 	.word	0xff275340
 8004958:	000c34ff 	.word	0x000c34ff
 800495c:	ff1b1e40 	.word	0xff1b1e40
 8004960:	000f423f 	.word	0x000f423f
 8004964:	00124f7f 	.word	0x00124f7f
 8004968:	0013d620 	.word	0x0013d620
 800496c:	fee5b660 	.word	0xfee5b660
 8004970:	0016e35f 	.word	0x0016e35f
 8004974:	feced300 	.word	0xfeced300
 8004978:	001b7740 	.word	0x001b7740
 800497c:	feb35bc0 	.word	0xfeb35bc0
 8004980:	002191c0 	.word	0x002191c0
 8004984:	00387520 	.word	0x00387520
 8004988:	fe5954e0 	.word	0xfe5954e0
 800498c:	00419ce0 	.word	0x00419ce0

08004990 <USB_EnableGlobalInt>:
 8004990:	4603      	mov	r3, r0
 8004992:	2000      	movs	r0, #0
 8004994:	689a      	ldr	r2, [r3, #8]
 8004996:	f042 0201 	orr.w	r2, r2, #1
 800499a:	609a      	str	r2, [r3, #8]
 800499c:	4770      	bx	lr
 800499e:	bf00      	nop

080049a0 <USB_DisableGlobalInt>:
 80049a0:	4603      	mov	r3, r0
 80049a2:	2000      	movs	r0, #0
 80049a4:	689a      	ldr	r2, [r3, #8]
 80049a6:	f022 0201 	bic.w	r2, r2, #1
 80049aa:	609a      	str	r2, [r3, #8]
 80049ac:	4770      	bx	lr
 80049ae:	bf00      	nop

080049b0 <USB_SetCurrentMode>:
 80049b0:	b538      	push	{r3, r4, r5, lr}
 80049b2:	68c3      	ldr	r3, [r0, #12]
 80049b4:	2901      	cmp	r1, #1
 80049b6:	f023 43c0 	bic.w	r3, r3, #1610612736	; 0x60000000
 80049ba:	4605      	mov	r5, r0
 80049bc:	60c3      	str	r3, [r0, #12]
 80049be:	d018      	beq.n	80049f2 <USB_SetCurrentMode+0x42>
 80049c0:	b9a9      	cbnz	r1, 80049ee <USB_SetCurrentMode+0x3e>
 80049c2:	68c3      	ldr	r3, [r0, #12]
 80049c4:	f043 4380 	orr.w	r3, r3, #1073741824	; 0x40000000
 80049c8:	460c      	mov	r4, r1
 80049ca:	60c3      	str	r3, [r0, #12]
 80049cc:	e001      	b.n	80049d2 <USB_SetCurrentMode+0x22>
 80049ce:	2c32      	cmp	r4, #50	; 0x32
 80049d0:	d00d      	beq.n	80049ee <USB_SetCurrentMode+0x3e>
 80049d2:	2001      	movs	r0, #1
 80049d4:	f7fc fdc2 	bl	800155c <HAL_Delay>
 80049d8:	696b      	ldr	r3, [r5, #20]
 80049da:	07db      	lsls	r3, r3, #31
 80049dc:	f104 0401 	add.w	r4, r4, #1
 80049e0:	d4f5      	bmi.n	80049ce <USB_SetCurrentMode+0x1e>
 80049e2:	f1a4 0032 	sub.w	r0, r4, #50	; 0x32
 80049e6:	fab0 f080 	clz	r0, r0
 80049ea:	0940      	lsrs	r0, r0, #5
 80049ec:	bd38      	pop	{r3, r4, r5, pc}
 80049ee:	2001      	movs	r0, #1
 80049f0:	bd38      	pop	{r3, r4, r5, pc}
 80049f2:	68c3      	ldr	r3, [r0, #12]
 80049f4:	f043 5300 	orr.w	r3, r3, #536870912	; 0x20000000
 80049f8:	2400      	movs	r4, #0
 80049fa:	60c3      	str	r3, [r0, #12]
 80049fc:	e001      	b.n	8004a02 <USB_SetCurrentMode+0x52>
 80049fe:	2c32      	cmp	r4, #50	; 0x32
 8004a00:	d0f5      	beq.n	80049ee <USB_SetCurrentMode+0x3e>
 8004a02:	2001      	movs	r0, #1
 8004a04:	f7fc fdaa 	bl	800155c <HAL_Delay>
 8004a08:	696b      	ldr	r3, [r5, #20]
 8004a0a:	07da      	lsls	r2, r3, #31
 8004a0c:	f104 0401 	add.w	r4, r4, #1
 8004a10:	d5f5      	bpl.n	80049fe <USB_SetCurrentMode+0x4e>
 8004a12:	f1a4 0032 	sub.w	r0, r4, #50	; 0x32
 8004a16:	fab0 f080 	clz	r0, r0
 8004a1a:	0940      	lsrs	r0, r0, #5
 8004a1c:	e7e6      	b.n	80049ec <USB_SetCurrentMode+0x3c>
 8004a1e:	bf00      	nop

08004a20 <USB_DevInit>:
 8004a20:	b084      	sub	sp, #16
 8004a22:	e92d 43f0 	stmdb	sp!, {r4, r5, r6, r7, r8, r9, lr}
 8004a26:	b083      	sub	sp, #12
 8004a28:	ac0b      	add	r4, sp, #44	; 0x2c
 8004a2a:	9d15      	ldr	r5, [sp, #84]	; 0x54
 8004a2c:	e884 000e 	stmia.w	r4, {r1, r2, r3}
 8004a30:	2300      	movs	r3, #0
 8004a32:	f8c0 3104 	str.w	r3, [r0, #260]	; 0x104
 8004a36:	460c      	mov	r4, r1
 8004a38:	f8c0 3108 	str.w	r3, [r0, #264]	; 0x108
 8004a3c:	f8c0 310c 	str.w	r3, [r0, #268]	; 0x10c
 8004a40:	f8c0 3110 	str.w	r3, [r0, #272]	; 0x110
 8004a44:	f8c0 3114 	str.w	r3, [r0, #276]	; 0x114
 8004a48:	f8c0 3118 	str.w	r3, [r0, #280]	; 0x118
 8004a4c:	f8c0 311c 	str.w	r3, [r0, #284]	; 0x11c
 8004a50:	f8c0 3120 	str.w	r3, [r0, #288]	; 0x120
 8004a54:	f8c0 3124 	str.w	r3, [r0, #292]	; 0x124
 8004a58:	f8c0 3128 	str.w	r3, [r0, #296]	; 0x128
 8004a5c:	f8c0 312c 	str.w	r3, [r0, #300]	; 0x12c
 8004a60:	f8c0 3130 	str.w	r3, [r0, #304]	; 0x130
 8004a64:	f8c0 3134 	str.w	r3, [r0, #308]	; 0x134
 8004a68:	f8c0 3138 	str.w	r3, [r0, #312]	; 0x138
 8004a6c:	f8c0 313c 	str.w	r3, [r0, #316]	; 0x13c
 8004a70:	2d00      	cmp	r5, #0
 8004a72:	f040 80ae 	bne.w	8004bd2 <USB_DevInit+0x1b2>
 8004a76:	f8d0 3804 	ldr.w	r3, [r0, #2052]	; 0x804
 8004a7a:	f500 6c00 	add.w	ip, r0, #2048	; 0x800
 8004a7e:	f043 0302 	orr.w	r3, r3, #2
 8004a82:	f8cc 3004 	str.w	r3, [ip, #4]
 8004a86:	6b83      	ldr	r3, [r0, #56]	; 0x38
 8004a88:	f443 1300 	orr.w	r3, r3, #2097152	; 0x200000
 8004a8c:	6383      	str	r3, [r0, #56]	; 0x38
 8004a8e:	6b83      	ldr	r3, [r0, #56]	; 0x38
 8004a90:	f423 2300 	bic.w	r3, r3, #524288	; 0x80000
 8004a94:	6383      	str	r3, [r0, #56]	; 0x38
 8004a96:	6b83      	ldr	r3, [r0, #56]	; 0x38
 8004a98:	f423 2380 	bic.w	r3, r3, #262144	; 0x40000
 8004a9c:	6383      	str	r3, [r0, #56]	; 0x38
 8004a9e:	2300      	movs	r3, #0
 8004aa0:	f8c0 3e00 	str.w	r3, [r0, #3584]	; 0xe00
 8004aa4:	f8dc 3000 	ldr.w	r3, [ip]
 8004aa8:	f8cc 3000 	str.w	r3, [ip]
 8004aac:	9b10      	ldr	r3, [sp, #64]	; 0x40
 8004aae:	2b01      	cmp	r3, #1
 8004ab0:	f000 80be 	beq.w	8004c30 <USB_DevInit+0x210>
 8004ab4:	f8dc 3000 	ldr.w	r3, [ip]
 8004ab8:	f043 0303 	orr.w	r3, r3, #3
 8004abc:	f8cc 3000 	str.w	r3, [ip]
 8004ac0:	2300      	movs	r3, #0
 8004ac2:	4a62      	ldr	r2, [pc, #392]	; (8004c4c <USB_DevInit+0x22c>)
 8004ac4:	9300      	str	r3, [sp, #0]
 8004ac6:	e003      	b.n	8004ad0 <USB_DevInit+0xb0>
 8004ac8:	6903      	ldr	r3, [r0, #16]
 8004aca:	2b00      	cmp	r3, #0
 8004acc:	f2c0 809d 	blt.w	8004c0a <USB_DevInit+0x1ea>
 8004ad0:	9b00      	ldr	r3, [sp, #0]
 8004ad2:	3301      	adds	r3, #1
 8004ad4:	9300      	str	r3, [sp, #0]
 8004ad6:	9b00      	ldr	r3, [sp, #0]
 8004ad8:	4293      	cmp	r3, r2
 8004ada:	d9f5      	bls.n	8004ac8 <USB_DevInit+0xa8>
 8004adc:	2101      	movs	r1, #1
 8004ade:	2300      	movs	r3, #0
 8004ae0:	4a5a      	ldr	r2, [pc, #360]	; (8004c4c <USB_DevInit+0x22c>)
 8004ae2:	9301      	str	r3, [sp, #4]
 8004ae4:	e002      	b.n	8004aec <USB_DevInit+0xcc>
 8004ae6:	6903      	ldr	r3, [r0, #16]
 8004ae8:	2b00      	cmp	r3, #0
 8004aea:	db7d      	blt.n	8004be8 <USB_DevInit+0x1c8>
 8004aec:	9b01      	ldr	r3, [sp, #4]
 8004aee:	3301      	adds	r3, #1
 8004af0:	9301      	str	r3, [sp, #4]
 8004af2:	9b01      	ldr	r3, [sp, #4]
 8004af4:	4293      	cmp	r3, r2
 8004af6:	d9f6      	bls.n	8004ae6 <USB_DevInit+0xc6>
 8004af8:	2101      	movs	r1, #1
 8004afa:	2200      	movs	r2, #0
 8004afc:	f8cc 2010 	str.w	r2, [ip, #16]
 8004b00:	f8cc 2014 	str.w	r2, [ip, #20]
 8004b04:	f8cc 201c 	str.w	r2, [ip, #28]
 8004b08:	b1e4      	cbz	r4, 8004b44 <USB_DevInit+0x124>
 8004b0a:	f500 6310 	add.w	r3, r0, #2304	; 0x900
 8004b0e:	4617      	mov	r7, r2
 8004b10:	f04f 4890 	mov.w	r8, #1207959552	; 0x48000000
 8004b14:	f04f 6900 	mov.w	r9, #134217728	; 0x8000000
 8004b18:	f64f 3e7f 	movw	lr, #64383	; 0xfb7f
 8004b1c:	e008      	b.n	8004b30 <USB_DevInit+0x110>
 8004b1e:	601f      	str	r7, [r3, #0]
 8004b20:	3201      	adds	r2, #1
 8004b22:	4294      	cmp	r4, r2
 8004b24:	611f      	str	r7, [r3, #16]
 8004b26:	f8c3 e008 	str.w	lr, [r3, #8]
 8004b2a:	f103 0320 	add.w	r3, r3, #32
 8004b2e:	d032      	beq.n	8004b96 <USB_DevInit+0x176>
 8004b30:	681e      	ldr	r6, [r3, #0]
 8004b32:	2e00      	cmp	r6, #0
 8004b34:	daf3      	bge.n	8004b1e <USB_DevInit+0xfe>
 8004b36:	b112      	cbz	r2, 8004b3e <USB_DevInit+0x11e>
 8004b38:	f8c3 8000 	str.w	r8, [r3]
 8004b3c:	e7f0      	b.n	8004b20 <USB_DevInit+0x100>
 8004b3e:	f8c3 9000 	str.w	r9, [r3]
 8004b42:	e7ed      	b.n	8004b20 <USB_DevInit+0x100>
 8004b44:	f8dc 3010 	ldr.w	r3, [ip, #16]
 8004b48:	f423 7380 	bic.w	r3, r3, #256	; 0x100
 8004b4c:	f8cc 3010 	str.w	r3, [ip, #16]
 8004b50:	2200      	movs	r2, #0
 8004b52:	9b0e      	ldr	r3, [sp, #56]	; 0x38
 8004b54:	6182      	str	r2, [r0, #24]
 8004b56:	f06f 4280 	mvn.w	r2, #1073741824	; 0x40000000
 8004b5a:	6142      	str	r2, [r0, #20]
 8004b5c:	b91b      	cbnz	r3, 8004b66 <USB_DevInit+0x146>
 8004b5e:	6983      	ldr	r3, [r0, #24]
 8004b60:	f043 0310 	orr.w	r3, r3, #16
 8004b64:	6183      	str	r3, [r0, #24]
 8004b66:	6982      	ldr	r2, [r0, #24]
 8004b68:	4b39      	ldr	r3, [pc, #228]	; (8004c50 <USB_DevInit+0x230>)
 8004b6a:	4313      	orrs	r3, r2
 8004b6c:	9a11      	ldr	r2, [sp, #68]	; 0x44
 8004b6e:	6183      	str	r3, [r0, #24]
 8004b70:	b11a      	cbz	r2, 8004b7a <USB_DevInit+0x15a>
 8004b72:	6983      	ldr	r3, [r0, #24]
 8004b74:	f043 0308 	orr.w	r3, r3, #8
 8004b78:	6183      	str	r3, [r0, #24]
 8004b7a:	2d01      	cmp	r5, #1
 8004b7c:	d105      	bne.n	8004b8a <USB_DevInit+0x16a>
 8004b7e:	6983      	ldr	r3, [r0, #24]
 8004b80:	f043 4380 	orr.w	r3, r3, #1073741824	; 0x40000000
 8004b84:	f043 0304 	orr.w	r3, r3, #4
 8004b88:	6183      	str	r3, [r0, #24]
 8004b8a:	4608      	mov	r0, r1
 8004b8c:	b003      	add	sp, #12
 8004b8e:	e8bd 43f0 	ldmia.w	sp!, {r4, r5, r6, r7, r8, r9, lr}
 8004b92:	b004      	add	sp, #16
 8004b94:	4770      	bx	lr
 8004b96:	2200      	movs	r2, #0
 8004b98:	f500 6330 	add.w	r3, r0, #2816	; 0xb00
 8004b9c:	4617      	mov	r7, r2
 8004b9e:	f04f 4890 	mov.w	r8, #1207959552	; 0x48000000
 8004ba2:	f04f 6900 	mov.w	r9, #134217728	; 0x8000000
 8004ba6:	f64f 3e7f 	movw	lr, #64383	; 0xfb7f
 8004baa:	e008      	b.n	8004bbe <USB_DevInit+0x19e>
 8004bac:	601f      	str	r7, [r3, #0]
 8004bae:	3201      	adds	r2, #1
 8004bb0:	4294      	cmp	r4, r2
 8004bb2:	611f      	str	r7, [r3, #16]
 8004bb4:	f8c3 e008 	str.w	lr, [r3, #8]
 8004bb8:	f103 0320 	add.w	r3, r3, #32
 8004bbc:	d0c2      	beq.n	8004b44 <USB_DevInit+0x124>
 8004bbe:	681e      	ldr	r6, [r3, #0]
 8004bc0:	2e00      	cmp	r6, #0
 8004bc2:	daf3      	bge.n	8004bac <USB_DevInit+0x18c>
 8004bc4:	b112      	cbz	r2, 8004bcc <USB_DevInit+0x1ac>
 8004bc6:	f8c3 8000 	str.w	r8, [r3]
 8004bca:	e7f0      	b.n	8004bae <USB_DevInit+0x18e>
 8004bcc:	f8c3 9000 	str.w	r9, [r3]
 8004bd0:	e7ed      	b.n	8004bae <USB_DevInit+0x18e>
 8004bd2:	6b83      	ldr	r3, [r0, #56]	; 0x38
 8004bd4:	f423 1300 	bic.w	r3, r3, #2097152	; 0x200000
 8004bd8:	6383      	str	r3, [r0, #56]	; 0x38
 8004bda:	6b83      	ldr	r3, [r0, #56]	; 0x38
 8004bdc:	f443 2300 	orr.w	r3, r3, #524288	; 0x80000
 8004be0:	f500 6c00 	add.w	ip, r0, #2048	; 0x800
 8004be4:	6383      	str	r3, [r0, #56]	; 0x38
 8004be6:	e75a      	b.n	8004a9e <USB_DevInit+0x7e>
 8004be8:	2300      	movs	r3, #0
 8004bea:	9301      	str	r3, [sp, #4]
 8004bec:	2310      	movs	r3, #16
 8004bee:	4a17      	ldr	r2, [pc, #92]	; (8004c4c <USB_DevInit+0x22c>)
 8004bf0:	6103      	str	r3, [r0, #16]
 8004bf2:	e003      	b.n	8004bfc <USB_DevInit+0x1dc>
 8004bf4:	6903      	ldr	r3, [r0, #16]
 8004bf6:	06db      	lsls	r3, r3, #27
 8004bf8:	f57f af7f 	bpl.w	8004afa <USB_DevInit+0xda>
 8004bfc:	9b01      	ldr	r3, [sp, #4]
 8004bfe:	3301      	adds	r3, #1
 8004c00:	9301      	str	r3, [sp, #4]
 8004c02:	9b01      	ldr	r3, [sp, #4]
 8004c04:	4293      	cmp	r3, r2
 8004c06:	d9f5      	bls.n	8004bf4 <USB_DevInit+0x1d4>
 8004c08:	e776      	b.n	8004af8 <USB_DevInit+0xd8>
 8004c0a:	2300      	movs	r3, #0
 8004c0c:	9300      	str	r3, [sp, #0]
 8004c0e:	f44f 6384 	mov.w	r3, #1056	; 0x420
 8004c12:	4a0e      	ldr	r2, [pc, #56]	; (8004c4c <USB_DevInit+0x22c>)
 8004c14:	6103      	str	r3, [r0, #16]
 8004c16:	e004      	b.n	8004c22 <USB_DevInit+0x202>
 8004c18:	6901      	ldr	r1, [r0, #16]
 8004c1a:	f011 0120 	ands.w	r1, r1, #32
 8004c1e:	f43f af5e 	beq.w	8004ade <USB_DevInit+0xbe>
 8004c22:	9b00      	ldr	r3, [sp, #0]
 8004c24:	3301      	adds	r3, #1
 8004c26:	9300      	str	r3, [sp, #0]
 8004c28:	9b00      	ldr	r3, [sp, #0]
 8004c2a:	4293      	cmp	r3, r2
 8004c2c:	d9f4      	bls.n	8004c18 <USB_DevInit+0x1f8>
 8004c2e:	e755      	b.n	8004adc <USB_DevInit+0xbc>
 8004c30:	9b0d      	ldr	r3, [sp, #52]	; 0x34
 8004c32:	b923      	cbnz	r3, 8004c3e <USB_DevInit+0x21e>
 8004c34:	f8dc 3000 	ldr.w	r3, [ip]
 8004c38:	f8cc 3000 	str.w	r3, [ip]
 8004c3c:	e740      	b.n	8004ac0 <USB_DevInit+0xa0>
 8004c3e:	f8dc 3000 	ldr.w	r3, [ip]
 8004c42:	f043 0301 	orr.w	r3, r3, #1
 8004c46:	f8cc 3000 	str.w	r3, [ip]
 8004c4a:	e739      	b.n	8004ac0 <USB_DevInit+0xa0>
 8004c4c:	00030d40 	.word	0x00030d40
 8004c50:	803c3800 	.word	0x803c3800

08004c54 <USB_FlushTxFifo>:
 8004c54:	b082      	sub	sp, #8
 8004c56:	2300      	movs	r3, #0
 8004c58:	4a12      	ldr	r2, [pc, #72]	; (8004ca4 <USB_FlushTxFifo+0x50>)
 8004c5a:	9301      	str	r3, [sp, #4]
 8004c5c:	e002      	b.n	8004c64 <USB_FlushTxFifo+0x10>
 8004c5e:	6903      	ldr	r3, [r0, #16]
 8004c60:	2b00      	cmp	r3, #0
 8004c62:	db08      	blt.n	8004c76 <USB_FlushTxFifo+0x22>
 8004c64:	9b01      	ldr	r3, [sp, #4]
 8004c66:	3301      	adds	r3, #1
 8004c68:	9301      	str	r3, [sp, #4]
 8004c6a:	9b01      	ldr	r3, [sp, #4]
 8004c6c:	4293      	cmp	r3, r2
 8004c6e:	d9f6      	bls.n	8004c5e <USB_FlushTxFifo+0xa>
 8004c70:	2003      	movs	r0, #3
 8004c72:	b002      	add	sp, #8
 8004c74:	4770      	bx	lr
 8004c76:	0189      	lsls	r1, r1, #6
 8004c78:	2300      	movs	r3, #0
 8004c7a:	f041 0120 	orr.w	r1, r1, #32
 8004c7e:	9301      	str	r3, [sp, #4]
 8004c80:	4a08      	ldr	r2, [pc, #32]	; (8004ca4 <USB_FlushTxFifo+0x50>)
 8004c82:	6101      	str	r1, [r0, #16]
 8004c84:	e003      	b.n	8004c8e <USB_FlushTxFifo+0x3a>
 8004c86:	6903      	ldr	r3, [r0, #16]
 8004c88:	f013 0320 	ands.w	r3, r3, #32
 8004c8c:	d006      	beq.n	8004c9c <USB_FlushTxFifo+0x48>
 8004c8e:	9b01      	ldr	r3, [sp, #4]
 8004c90:	3301      	adds	r3, #1
 8004c92:	9301      	str	r3, [sp, #4]
 8004c94:	9b01      	ldr	r3, [sp, #4]
 8004c96:	4293      	cmp	r3, r2
 8004c98:	d9f5      	bls.n	8004c86 <USB_FlushTxFifo+0x32>
 8004c9a:	e7e9      	b.n	8004c70 <USB_FlushTxFifo+0x1c>
 8004c9c:	4618      	mov	r0, r3
 8004c9e:	b002      	add	sp, #8
 8004ca0:	4770      	bx	lr
 8004ca2:	bf00      	nop
 8004ca4:	00030d40 	.word	0x00030d40

08004ca8 <USB_GetDevSpeed>:
 8004ca8:	f8d0 3808 	ldr.w	r3, [r0, #2056]	; 0x808
 8004cac:	f013 0006 	ands.w	r0, r3, #6
 8004cb0:	d004      	beq.n	8004cbc <USB_GetDevSpeed+0x14>
 8004cb2:	f013 0f02 	tst.w	r3, #2
 8004cb6:	bf14      	ite	ne
 8004cb8:	2002      	movne	r0, #2
 8004cba:	200f      	moveq	r0, #15
 8004cbc:	4770      	bx	lr
 8004cbe:	bf00      	nop

08004cc0 <USB_ActivateEndpoint>:
 8004cc0:	b430      	push	{r4, r5}
 8004cc2:	784b      	ldrb	r3, [r1, #1]
 8004cc4:	780a      	ldrb	r2, [r1, #0]
 8004cc6:	2b01      	cmp	r3, #1
 8004cc8:	d022      	beq.n	8004d10 <USB_ActivateEndpoint+0x50>
 8004cca:	f8d0 481c 	ldr.w	r4, [r0, #2076]	; 0x81c
 8004cce:	f002 0c0f 	and.w	ip, r2, #15
 8004cd2:	f44f 3380 	mov.w	r3, #65536	; 0x10000
 8004cd6:	fa03 f30c 	lsl.w	r3, r3, ip
 8004cda:	4323      	orrs	r3, r4
 8004cdc:	eb00 1242 	add.w	r2, r0, r2, lsl #5
 8004ce0:	f8c0 381c 	str.w	r3, [r0, #2076]	; 0x81c
 8004ce4:	f8d2 3b00 	ldr.w	r3, [r2, #2816]	; 0xb00
 8004ce8:	041b      	lsls	r3, r3, #16
 8004cea:	d40e      	bmi.n	8004d0a <USB_ActivateEndpoint+0x4a>
 8004cec:	68cb      	ldr	r3, [r1, #12]
 8004cee:	f8d2 0b00 	ldr.w	r0, [r2, #2816]	; 0xb00
 8004cf2:	7909      	ldrb	r1, [r1, #4]
 8004cf4:	f3c3 030a 	ubfx	r3, r3, #0, #11
 8004cf8:	4303      	orrs	r3, r0
 8004cfa:	ea43 4381 	orr.w	r3, r3, r1, lsl #18
 8004cfe:	f043 5380 	orr.w	r3, r3, #268435456	; 0x10000000
 8004d02:	f443 4300 	orr.w	r3, r3, #32768	; 0x8000
 8004d06:	f8c2 3b00 	str.w	r3, [r2, #2816]	; 0xb00
 8004d0a:	2000      	movs	r0, #0
 8004d0c:	bc30      	pop	{r4, r5}
 8004d0e:	4770      	bx	lr
 8004d10:	f8d0 581c 	ldr.w	r5, [r0, #2076]	; 0x81c
 8004d14:	f002 0c0f 	and.w	ip, r2, #15
 8004d18:	fa03 f30c 	lsl.w	r3, r3, ip
 8004d1c:	f500 6400 	add.w	r4, r0, #2048	; 0x800
 8004d20:	432b      	orrs	r3, r5
 8004d22:	eb00 1042 	add.w	r0, r0, r2, lsl #5
 8004d26:	61e3      	str	r3, [r4, #28]
 8004d28:	f8d0 3900 	ldr.w	r3, [r0, #2304]	; 0x900
 8004d2c:	041c      	lsls	r4, r3, #16
 8004d2e:	d4ec      	bmi.n	8004d0a <USB_ActivateEndpoint+0x4a>
 8004d30:	68cb      	ldr	r3, [r1, #12]
 8004d32:	f8d0 4900 	ldr.w	r4, [r0, #2304]	; 0x900
 8004d36:	7909      	ldrb	r1, [r1, #4]
 8004d38:	f3c3 030a 	ubfx	r3, r3, #0, #11
 8004d3c:	4323      	orrs	r3, r4
 8004d3e:	ea43 4381 	orr.w	r3, r3, r1, lsl #18
 8004d42:	ea43 5282 	orr.w	r2, r3, r2, lsl #22
 8004d46:	f042 5280 	orr.w	r2, r2, #268435456	; 0x10000000
 8004d4a:	f442 4200 	orr.w	r2, r2, #32768	; 0x8000
 8004d4e:	f8c0 2900 	str.w	r2, [r0, #2304]	; 0x900
 8004d52:	bc30      	pop	{r4, r5}
 8004d54:	2000      	movs	r0, #0
 8004d56:	4770      	bx	lr

08004d58 <USB_DeactivateEndpoint>:
 8004d58:	b410      	push	{r4}
 8004d5a:	784a      	ldrb	r2, [r1, #1]
 8004d5c:	780b      	ldrb	r3, [r1, #0]
 8004d5e:	2a01      	cmp	r2, #1
 8004d60:	eb00 1243 	add.w	r2, r0, r3, lsl #5
 8004d64:	d02c      	beq.n	8004dc0 <USB_DeactivateEndpoint+0x68>
 8004d66:	f8d2 1b00 	ldr.w	r1, [r2, #2816]	; 0xb00
 8004d6a:	2900      	cmp	r1, #0
 8004d6c:	db1b      	blt.n	8004da6 <USB_DeactivateEndpoint+0x4e>
 8004d6e:	f8d0 483c 	ldr.w	r4, [r0, #2108]	; 0x83c
 8004d72:	f44f 3180 	mov.w	r1, #65536	; 0x10000
 8004d76:	f003 030f 	and.w	r3, r3, #15
 8004d7a:	fa01 f303 	lsl.w	r3, r1, r3
 8004d7e:	ea24 0403 	bic.w	r4, r4, r3
 8004d82:	f8c0 483c 	str.w	r4, [r0, #2108]	; 0x83c
 8004d86:	f8d0 481c 	ldr.w	r4, [r0, #2076]	; 0x81c
 8004d8a:	4922      	ldr	r1, [pc, #136]	; (8004e14 <USB_DeactivateEndpoint+0xbc>)
 8004d8c:	ea24 0303 	bic.w	r3, r4, r3
 8004d90:	f8c0 381c 	str.w	r3, [r0, #2076]	; 0x81c
 8004d94:	f8d2 3b00 	ldr.w	r3, [r2, #2816]	; 0xb00
 8004d98:	f85d 4b04 	ldr.w	r4, [sp], #4
 8004d9c:	4019      	ands	r1, r3
 8004d9e:	2000      	movs	r0, #0
 8004da0:	f8c2 1b00 	str.w	r1, [r2, #2816]	; 0xb00
 8004da4:	4770      	bx	lr
 8004da6:	f8d2 1b00 	ldr.w	r1, [r2, #2816]	; 0xb00
 8004daa:	f041 6100 	orr.w	r1, r1, #134217728	; 0x8000000
 8004dae:	f8c2 1b00 	str.w	r1, [r2, #2816]	; 0xb00
 8004db2:	f8d2 1b00 	ldr.w	r1, [r2, #2816]	; 0xb00
 8004db6:	f041 4180 	orr.w	r1, r1, #1073741824	; 0x40000000
 8004dba:	f8c2 1b00 	str.w	r1, [r2, #2816]	; 0xb00
 8004dbe:	e7d6      	b.n	8004d6e <USB_DeactivateEndpoint+0x16>
 8004dc0:	f8d2 1900 	ldr.w	r1, [r2, #2304]	; 0x900
 8004dc4:	2900      	cmp	r1, #0
 8004dc6:	da0b      	bge.n	8004de0 <USB_DeactivateEndpoint+0x88>
 8004dc8:	f8d2 1900 	ldr.w	r1, [r2, #2304]	; 0x900
 8004dcc:	f041 6100 	orr.w	r1, r1, #134217728	; 0x8000000
 8004dd0:	f8c2 1900 	str.w	r1, [r2, #2304]	; 0x900
 8004dd4:	f8d2 1900 	ldr.w	r1, [r2, #2304]	; 0x900
 8004dd8:	f041 4180 	orr.w	r1, r1, #1073741824	; 0x40000000
 8004ddc:	f8c2 1900 	str.w	r1, [r2, #2304]	; 0x900
 8004de0:	f8d0 183c 	ldr.w	r1, [r0, #2108]	; 0x83c
 8004de4:	f003 040f 	and.w	r4, r3, #15
 8004de8:	2301      	movs	r3, #1
 8004dea:	40a3      	lsls	r3, r4
 8004dec:	ea21 0103 	bic.w	r1, r1, r3
 8004df0:	f8c0 183c 	str.w	r1, [r0, #2108]	; 0x83c
 8004df4:	f8d0 481c 	ldr.w	r4, [r0, #2076]	; 0x81c
 8004df8:	4907      	ldr	r1, [pc, #28]	; (8004e18 <USB_DeactivateEndpoint+0xc0>)
 8004dfa:	ea24 0303 	bic.w	r3, r4, r3
 8004dfe:	f8c0 381c 	str.w	r3, [r0, #2076]	; 0x81c
 8004e02:	f8d2 3900 	ldr.w	r3, [r2, #2304]	; 0x900
 8004e06:	f85d 4b04 	ldr.w	r4, [sp], #4
 8004e0a:	4019      	ands	r1, r3
 8004e0c:	2000      	movs	r0, #0
 8004e0e:	f8c2 1900 	str.w	r1, [r2, #2304]	; 0x900
 8004e12:	4770      	bx	lr
 8004e14:	eff37800 	.word	0xeff37800
 8004e18:	ec337800 	.word	0xec337800

08004e1c <USB_EPStartXfer>:
 8004e1c:	e92d 41f0 	stmdb	sp!, {r4, r5, r6, r7, r8, lr}
 8004e20:	784c      	ldrb	r4, [r1, #1]
 8004e22:	f891 c000 	ldrb.w	ip, [r1]
 8004e26:	2c01      	cmp	r4, #1
 8004e28:	d04f      	beq.n	8004eca <USB_EPStartXfer+0xae>
 8004e2a:	eb00 1c4c 	add.w	ip, r0, ip, lsl #5
 8004e2e:	f50c 6330 	add.w	r3, ip, #2816	; 0xb00
 8004e32:	691c      	ldr	r4, [r3, #16]
 8004e34:	0ce4      	lsrs	r4, r4, #19
 8004e36:	04e4      	lsls	r4, r4, #19
 8004e38:	611c      	str	r4, [r3, #16]
 8004e3a:	691c      	ldr	r4, [r3, #16]
 8004e3c:	f024 54ff 	bic.w	r4, r4, #534773760	; 0x1fe00000
 8004e40:	f424 14c0 	bic.w	r4, r4, #1572864	; 0x180000
 8004e44:	611c      	str	r4, [r3, #16]
 8004e46:	698c      	ldr	r4, [r1, #24]
 8004e48:	b374      	cbz	r4, 8004ea8 <USB_EPStartXfer+0x8c>
 8004e4a:	68cd      	ldr	r5, [r1, #12]
 8004e4c:	4e78      	ldr	r6, [pc, #480]	; (8005030 <USB_EPStartXfer+0x214>)
 8004e4e:	442c      	add	r4, r5
 8004e50:	3c01      	subs	r4, #1
 8004e52:	fbb4 f4f5 	udiv	r4, r4, r5
 8004e56:	b2a4      	uxth	r4, r4
 8004e58:	fb04 f505 	mul.w	r5, r4, r5
 8004e5c:	ea06 44c4 	and.w	r4, r6, r4, lsl #19
 8004e60:	691e      	ldr	r6, [r3, #16]
 8004e62:	61cd      	str	r5, [r1, #28]
 8004e64:	4334      	orrs	r4, r6
 8004e66:	611c      	str	r4, [r3, #16]
 8004e68:	691c      	ldr	r4, [r3, #16]
 8004e6a:	f3c5 0512 	ubfx	r5, r5, #0, #19
 8004e6e:	4325      	orrs	r5, r4
 8004e70:	2a01      	cmp	r2, #1
 8004e72:	611d      	str	r5, [r3, #16]
 8004e74:	d024      	beq.n	8004ec0 <USB_EPStartXfer+0xa4>
 8004e76:	790b      	ldrb	r3, [r1, #4]
 8004e78:	2b01      	cmp	r3, #1
 8004e7a:	d10c      	bne.n	8004e96 <USB_EPStartXfer+0x7a>
 8004e7c:	f8d0 3808 	ldr.w	r3, [r0, #2056]	; 0x808
 8004e80:	f413 7f80 	tst.w	r3, #256	; 0x100
 8004e84:	f8dc 3b00 	ldr.w	r3, [ip, #2816]	; 0xb00
 8004e88:	bf0c      	ite	eq
 8004e8a:	f043 5300 	orreq.w	r3, r3, #536870912	; 0x20000000
 8004e8e:	f043 5380 	orrne.w	r3, r3, #268435456	; 0x10000000
 8004e92:	f8cc 3b00 	str.w	r3, [ip, #2816]	; 0xb00
 8004e96:	f8dc 3b00 	ldr.w	r3, [ip, #2816]	; 0xb00
 8004e9a:	f043 4304 	orr.w	r3, r3, #2214592512	; 0x84000000
 8004e9e:	f8cc 3b00 	str.w	r3, [ip, #2816]	; 0xb00
 8004ea2:	2000      	movs	r0, #0
 8004ea4:	e8bd 81f0 	ldmia.w	sp!, {r4, r5, r6, r7, r8, pc}
 8004ea8:	68cc      	ldr	r4, [r1, #12]
 8004eaa:	691d      	ldr	r5, [r3, #16]
 8004eac:	f3c4 0412 	ubfx	r4, r4, #0, #19
 8004eb0:	432c      	orrs	r4, r5
 8004eb2:	611c      	str	r4, [r3, #16]
 8004eb4:	691c      	ldr	r4, [r3, #16]
 8004eb6:	2a01      	cmp	r2, #1
 8004eb8:	f444 2400 	orr.w	r4, r4, #524288	; 0x80000
 8004ebc:	611c      	str	r4, [r3, #16]
 8004ebe:	d1da      	bne.n	8004e76 <USB_EPStartXfer+0x5a>
 8004ec0:	690a      	ldr	r2, [r1, #16]
 8004ec2:	2a00      	cmp	r2, #0
 8004ec4:	d0d7      	beq.n	8004e76 <USB_EPStartXfer+0x5a>
 8004ec6:	615a      	str	r2, [r3, #20]
 8004ec8:	e7d5      	b.n	8004e76 <USB_EPStartXfer+0x5a>
 8004eca:	698e      	ldr	r6, [r1, #24]
 8004ecc:	eb00 154c 	add.w	r5, r0, ip, lsl #5
 8004ed0:	b3de      	cbz	r6, 8004f4a <USB_EPStartXfer+0x12e>
 8004ed2:	f8d5 3910 	ldr.w	r3, [r5, #2320]	; 0x910
 8004ed6:	68cf      	ldr	r7, [r1, #12]
 8004ed8:	0cdb      	lsrs	r3, r3, #19
 8004eda:	04db      	lsls	r3, r3, #19
 8004edc:	f8c5 3910 	str.w	r3, [r5, #2320]	; 0x910
 8004ee0:	f8d5 3910 	ldr.w	r3, [r5, #2320]	; 0x910
 8004ee4:	f023 53ff 	bic.w	r3, r3, #534773760	; 0x1fe00000
 8004ee8:	f423 13c0 	bic.w	r3, r3, #1572864	; 0x180000
 8004eec:	f8c5 3910 	str.w	r3, [r5, #2320]	; 0x910
 8004ef0:	4b4f      	ldr	r3, [pc, #316]	; (8005030 <USB_EPStartXfer+0x214>)
 8004ef2:	f8d5 8910 	ldr.w	r8, [r5, #2320]	; 0x910
 8004ef6:	eb06 0e07 	add.w	lr, r6, r7
 8004efa:	f10e 3eff 	add.w	lr, lr, #4294967295
 8004efe:	fbbe fef7 	udiv	lr, lr, r7
 8004f02:	ea03 43ce 	and.w	r3, r3, lr, lsl #19
 8004f06:	ea43 0308 	orr.w	r3, r3, r8
 8004f0a:	f8c5 3910 	str.w	r3, [r5, #2320]	; 0x910
 8004f0e:	f8d5 7910 	ldr.w	r7, [r5, #2320]	; 0x910
 8004f12:	f3c6 0312 	ubfx	r3, r6, #0, #19
 8004f16:	433b      	orrs	r3, r7
 8004f18:	f8c5 3910 	str.w	r3, [r5, #2320]	; 0x910
 8004f1c:	790f      	ldrb	r7, [r1, #4]
 8004f1e:	2f01      	cmp	r7, #1
 8004f20:	f505 6310 	add.w	r3, r5, #2304	; 0x900
 8004f24:	d053      	beq.n	8004fce <USB_EPStartXfer+0x1b2>
 8004f26:	2a01      	cmp	r2, #1
 8004f28:	d06d      	beq.n	8005006 <USB_EPStartXfer+0x1ea>
 8004f2a:	f8d5 3900 	ldr.w	r3, [r5, #2304]	; 0x900
 8004f2e:	f043 4304 	orr.w	r3, r3, #2214592512	; 0x84000000
 8004f32:	f8c5 3900 	str.w	r3, [r5, #2304]	; 0x900
 8004f36:	f8d0 3834 	ldr.w	r3, [r0, #2100]	; 0x834
 8004f3a:	f00c 0c0f 	and.w	ip, ip, #15
 8004f3e:	fa04 f40c 	lsl.w	r4, r4, ip
 8004f42:	431c      	orrs	r4, r3
 8004f44:	f8c0 4834 	str.w	r4, [r0, #2100]	; 0x834
 8004f48:	e7ab      	b.n	8004ea2 <USB_EPStartXfer+0x86>
 8004f4a:	f8d5 4910 	ldr.w	r4, [r5, #2320]	; 0x910
 8004f4e:	f024 54ff 	bic.w	r4, r4, #534773760	; 0x1fe00000
 8004f52:	f424 14c0 	bic.w	r4, r4, #1572864	; 0x180000
 8004f56:	f8c5 4910 	str.w	r4, [r5, #2320]	; 0x910
 8004f5a:	f8d5 4910 	ldr.w	r4, [r5, #2320]	; 0x910
 8004f5e:	f444 2400 	orr.w	r4, r4, #524288	; 0x80000
 8004f62:	f8c5 4910 	str.w	r4, [r5, #2320]	; 0x910
 8004f66:	f8d5 4910 	ldr.w	r4, [r5, #2320]	; 0x910
 8004f6a:	0ce4      	lsrs	r4, r4, #19
 8004f6c:	04e4      	lsls	r4, r4, #19
 8004f6e:	f8c5 4910 	str.w	r4, [r5, #2320]	; 0x910
 8004f72:	2a01      	cmp	r2, #1
 8004f74:	f505 6310 	add.w	r3, r5, #2304	; 0x900
 8004f78:	790f      	ldrb	r7, [r1, #4]
 8004f7a:	d039      	beq.n	8004ff0 <USB_EPStartXfer+0x1d4>
 8004f7c:	f8d5 4900 	ldr.w	r4, [r5, #2304]	; 0x900
 8004f80:	2f01      	cmp	r7, #1
 8004f82:	f044 4404 	orr.w	r4, r4, #2214592512	; 0x84000000
 8004f86:	f8c5 4900 	str.w	r4, [r5, #2304]	; 0x900
 8004f8a:	d18a      	bne.n	8004ea2 <USB_EPStartXfer+0x86>
 8004f8c:	f8d0 4808 	ldr.w	r4, [r0, #2056]	; 0x808
 8004f90:	f414 7f80 	tst.w	r4, #256	; 0x100
 8004f94:	681c      	ldr	r4, [r3, #0]
 8004f96:	bf0c      	ite	eq
 8004f98:	f044 5400 	orreq.w	r4, r4, #536870912	; 0x20000000
 8004f9c:	f044 5480 	orrne.w	r4, r4, #268435456	; 0x10000000
 8004fa0:	601c      	str	r4, [r3, #0]
 8004fa2:	2a00      	cmp	r2, #0
 8004fa4:	f47f af7d 	bne.w	8004ea2 <USB_EPStartXfer+0x86>
 8004fa8:	b2b6      	uxth	r6, r6
 8004faa:	3603      	adds	r6, #3
 8004fac:	08b6      	lsrs	r6, r6, #2
 8004fae:	f43f af78 	beq.w	8004ea2 <USB_EPStartXfer+0x86>
 8004fb2:	690b      	ldr	r3, [r1, #16]
 8004fb4:	eb00 3c0c 	add.w	ip, r0, ip, lsl #12
 8004fb8:	f50c 5c80 	add.w	ip, ip, #4096	; 0x1000
 8004fbc:	eb03 0186 	add.w	r1, r3, r6, lsl #2
 8004fc0:	f853 2b04 	ldr.w	r2, [r3], #4
 8004fc4:	f8cc 2000 	str.w	r2, [ip]
 8004fc8:	428b      	cmp	r3, r1
 8004fca:	d1f9      	bne.n	8004fc0 <USB_EPStartXfer+0x1a4>
 8004fcc:	e769      	b.n	8004ea2 <USB_EPStartXfer+0x86>
 8004fce:	691c      	ldr	r4, [r3, #16]
 8004fd0:	f024 44c0 	bic.w	r4, r4, #1610612736	; 0x60000000
 8004fd4:	611c      	str	r4, [r3, #16]
 8004fd6:	691c      	ldr	r4, [r3, #16]
 8004fd8:	2a01      	cmp	r2, #1
 8004fda:	f044 5400 	orr.w	r4, r4, #536870912	; 0x20000000
 8004fde:	611c      	str	r4, [r3, #16]
 8004fe0:	d016      	beq.n	8005010 <USB_EPStartXfer+0x1f4>
 8004fe2:	f8d5 4900 	ldr.w	r4, [r5, #2304]	; 0x900
 8004fe6:	f044 4404 	orr.w	r4, r4, #2214592512	; 0x84000000
 8004fea:	f8c5 4900 	str.w	r4, [r5, #2304]	; 0x900
 8004fee:	e7cd      	b.n	8004f8c <USB_EPStartXfer+0x170>
 8004ff0:	694a      	ldr	r2, [r1, #20]
 8004ff2:	b95a      	cbnz	r2, 800500c <USB_EPStartXfer+0x1f0>
 8004ff4:	2f01      	cmp	r7, #1
 8004ff6:	d00e      	beq.n	8005016 <USB_EPStartXfer+0x1fa>
 8004ff8:	681a      	ldr	r2, [r3, #0]
 8004ffa:	f042 4204 	orr.w	r2, r2, #2214592512	; 0x84000000
 8004ffe:	601a      	str	r2, [r3, #0]
 8005000:	2000      	movs	r0, #0
 8005002:	e8bd 81f0 	ldmia.w	sp!, {r4, r5, r6, r7, r8, pc}
 8005006:	694a      	ldr	r2, [r1, #20]
 8005008:	2a00      	cmp	r2, #0
 800500a:	d0f5      	beq.n	8004ff8 <USB_EPStartXfer+0x1dc>
 800500c:	615a      	str	r2, [r3, #20]
 800500e:	e7f1      	b.n	8004ff4 <USB_EPStartXfer+0x1d8>
 8005010:	694a      	ldr	r2, [r1, #20]
 8005012:	2a00      	cmp	r2, #0
 8005014:	d1fa      	bne.n	800500c <USB_EPStartXfer+0x1f0>
 8005016:	f8d0 2808 	ldr.w	r2, [r0, #2056]	; 0x808
 800501a:	f412 7f80 	tst.w	r2, #256	; 0x100
 800501e:	681a      	ldr	r2, [r3, #0]
 8005020:	bf0c      	ite	eq
 8005022:	f042 5200 	orreq.w	r2, r2, #536870912	; 0x20000000
 8005026:	f042 5280 	orrne.w	r2, r2, #268435456	; 0x10000000
 800502a:	601a      	str	r2, [r3, #0]
 800502c:	e7e4      	b.n	8004ff8 <USB_EPStartXfer+0x1dc>
 800502e:	bf00      	nop
 8005030:	1ff80000 	.word	0x1ff80000

08005034 <USB_EP0StartXfer>:
 8005034:	784b      	ldrb	r3, [r1, #1]
 8005036:	2b01      	cmp	r3, #1
 8005038:	b4f0      	push	{r4, r5, r6, r7}
 800503a:	780c      	ldrb	r4, [r1, #0]
 800503c:	d028      	beq.n	8005090 <USB_EP0StartXfer+0x5c>
 800503e:	eb00 1044 	add.w	r0, r0, r4, lsl #5
 8005042:	f500 6330 	add.w	r3, r0, #2816	; 0xb00
 8005046:	691c      	ldr	r4, [r3, #16]
 8005048:	0ce4      	lsrs	r4, r4, #19
 800504a:	04e4      	lsls	r4, r4, #19
 800504c:	611c      	str	r4, [r3, #16]
 800504e:	691c      	ldr	r4, [r3, #16]
 8005050:	f024 54ff 	bic.w	r4, r4, #534773760	; 0x1fe00000
 8005054:	f424 14c0 	bic.w	r4, r4, #1572864	; 0x180000
 8005058:	611c      	str	r4, [r3, #16]
 800505a:	698c      	ldr	r4, [r1, #24]
 800505c:	b9ac      	cbnz	r4, 800508a <USB_EP0StartXfer+0x56>
 800505e:	68cc      	ldr	r4, [r1, #12]
 8005060:	691d      	ldr	r5, [r3, #16]
 8005062:	61cc      	str	r4, [r1, #28]
 8005064:	f445 2500 	orr.w	r5, r5, #524288	; 0x80000
 8005068:	611d      	str	r5, [r3, #16]
 800506a:	691d      	ldr	r5, [r3, #16]
 800506c:	f3c4 0412 	ubfx	r4, r4, #0, #19
 8005070:	432c      	orrs	r4, r5
 8005072:	2a01      	cmp	r2, #1
 8005074:	611c      	str	r4, [r3, #16]
 8005076:	d043      	beq.n	8005100 <USB_EP0StartXfer+0xcc>
 8005078:	f8d0 3b00 	ldr.w	r3, [r0, #2816]	; 0xb00
 800507c:	f043 4304 	orr.w	r3, r3, #2214592512	; 0x84000000
 8005080:	f8c0 3b00 	str.w	r3, [r0, #2816]	; 0xb00
 8005084:	2000      	movs	r0, #0
 8005086:	bcf0      	pop	{r4, r5, r6, r7}
 8005088:	4770      	bx	lr
 800508a:	68cc      	ldr	r4, [r1, #12]
 800508c:	618c      	str	r4, [r1, #24]
 800508e:	e7e7      	b.n	8005060 <USB_EP0StartXfer+0x2c>
 8005090:	698d      	ldr	r5, [r1, #24]
 8005092:	2d00      	cmp	r5, #0
 8005094:	d039      	beq.n	800510a <USB_EP0StartXfer+0xd6>
 8005096:	eb00 1c44 	add.w	ip, r0, r4, lsl #5
 800509a:	68ce      	ldr	r6, [r1, #12]
 800509c:	f8dc 3910 	ldr.w	r3, [ip, #2320]	; 0x910
 80050a0:	0cdb      	lsrs	r3, r3, #19
 80050a2:	04db      	lsls	r3, r3, #19
 80050a4:	f8cc 3910 	str.w	r3, [ip, #2320]	; 0x910
 80050a8:	f8dc 3910 	ldr.w	r3, [ip, #2320]	; 0x910
 80050ac:	f023 53ff 	bic.w	r3, r3, #534773760	; 0x1fe00000
 80050b0:	f423 13c0 	bic.w	r3, r3, #1572864	; 0x180000
 80050b4:	42b5      	cmp	r5, r6
 80050b6:	f8cc 3910 	str.w	r3, [ip, #2320]	; 0x910
 80050ba:	f50c 6310 	add.w	r3, ip, #2304	; 0x900
 80050be:	d952      	bls.n	8005166 <USB_EP0StartXfer+0x132>
 80050c0:	691d      	ldr	r5, [r3, #16]
 80050c2:	618e      	str	r6, [r1, #24]
 80050c4:	f445 2500 	orr.w	r5, r5, #524288	; 0x80000
 80050c8:	611d      	str	r5, [r3, #16]
 80050ca:	691f      	ldr	r7, [r3, #16]
 80050cc:	f3c6 0512 	ubfx	r5, r6, #0, #19
 80050d0:	433d      	orrs	r5, r7
 80050d2:	2a01      	cmp	r2, #1
 80050d4:	611d      	str	r5, [r3, #16]
 80050d6:	d03c      	beq.n	8005152 <USB_EP0StartXfer+0x11e>
 80050d8:	f8dc 3900 	ldr.w	r3, [ip, #2304]	; 0x900
 80050dc:	f043 4304 	orr.w	r3, r3, #2214592512	; 0x84000000
 80050e0:	f8cc 3900 	str.w	r3, [ip, #2304]	; 0x900
 80050e4:	2e00      	cmp	r6, #0
 80050e6:	d0cd      	beq.n	8005084 <USB_EP0StartXfer+0x50>
 80050e8:	f8d0 3834 	ldr.w	r3, [r0, #2100]	; 0x834
 80050ec:	f004 020f 	and.w	r2, r4, #15
 80050f0:	2401      	movs	r4, #1
 80050f2:	4094      	lsls	r4, r2
 80050f4:	431c      	orrs	r4, r3
 80050f6:	f8c0 4834 	str.w	r4, [r0, #2100]	; 0x834
 80050fa:	2000      	movs	r0, #0
 80050fc:	bcf0      	pop	{r4, r5, r6, r7}
 80050fe:	4770      	bx	lr
 8005100:	690a      	ldr	r2, [r1, #16]
 8005102:	2a00      	cmp	r2, #0
 8005104:	d0b8      	beq.n	8005078 <USB_EP0StartXfer+0x44>
 8005106:	615a      	str	r2, [r3, #20]
 8005108:	e7b6      	b.n	8005078 <USB_EP0StartXfer+0x44>
 800510a:	eb00 1044 	add.w	r0, r0, r4, lsl #5
 800510e:	2a01      	cmp	r2, #1
 8005110:	f8d0 5910 	ldr.w	r5, [r0, #2320]	; 0x910
 8005114:	f025 55ff 	bic.w	r5, r5, #534773760	; 0x1fe00000
 8005118:	f425 15c0 	bic.w	r5, r5, #1572864	; 0x180000
 800511c:	f8c0 5910 	str.w	r5, [r0, #2320]	; 0x910
 8005120:	f8d0 5910 	ldr.w	r5, [r0, #2320]	; 0x910
 8005124:	f445 2500 	orr.w	r5, r5, #524288	; 0x80000
 8005128:	f8c0 5910 	str.w	r5, [r0, #2320]	; 0x910
 800512c:	f8d0 5910 	ldr.w	r5, [r0, #2320]	; 0x910
 8005130:	ea4f 45d5 	mov.w	r5, r5, lsr #19
 8005134:	ea4f 45c5 	mov.w	r5, r5, lsl #19
 8005138:	f500 6310 	add.w	r3, r0, #2304	; 0x900
 800513c:	611d      	str	r5, [r3, #16]
 800513e:	d008      	beq.n	8005152 <USB_EP0StartXfer+0x11e>
 8005140:	f8d0 3900 	ldr.w	r3, [r0, #2304]	; 0x900
 8005144:	f043 4304 	orr.w	r3, r3, #2214592512	; 0x84000000
 8005148:	f8c0 3900 	str.w	r3, [r0, #2304]	; 0x900
 800514c:	bcf0      	pop	{r4, r5, r6, r7}
 800514e:	2000      	movs	r0, #0
 8005150:	4770      	bx	lr
 8005152:	694a      	ldr	r2, [r1, #20]
 8005154:	b102      	cbz	r2, 8005158 <USB_EP0StartXfer+0x124>
 8005156:	615a      	str	r2, [r3, #20]
 8005158:	681a      	ldr	r2, [r3, #0]
 800515a:	f042 4204 	orr.w	r2, r2, #2214592512	; 0x84000000
 800515e:	2000      	movs	r0, #0
 8005160:	bcf0      	pop	{r4, r5, r6, r7}
 8005162:	601a      	str	r2, [r3, #0]
 8005164:	4770      	bx	lr
 8005166:	691e      	ldr	r6, [r3, #16]
 8005168:	f446 2600 	orr.w	r6, r6, #524288	; 0x80000
 800516c:	611e      	str	r6, [r3, #16]
 800516e:	691e      	ldr	r6, [r3, #16]
 8005170:	f3c5 0512 	ubfx	r5, r5, #0, #19
 8005174:	4335      	orrs	r5, r6
 8005176:	2a01      	cmp	r2, #1
 8005178:	611d      	str	r5, [r3, #16]
 800517a:	d0ea      	beq.n	8005152 <USB_EP0StartXfer+0x11e>
 800517c:	f8dc 3900 	ldr.w	r3, [ip, #2304]	; 0x900
 8005180:	f043 4304 	orr.w	r3, r3, #2214592512	; 0x84000000
 8005184:	f8cc 3900 	str.w	r3, [ip, #2304]	; 0x900
 8005188:	e7ae      	b.n	80050e8 <USB_EP0StartXfer+0xb4>
 800518a:	bf00      	nop

0800518c <USB_EPStopXfer>:
 800518c:	784b      	ldrb	r3, [r1, #1]
 800518e:	b082      	sub	sp, #8
 8005190:	2200      	movs	r2, #0
 8005192:	2b01      	cmp	r3, #1
 8005194:	9201      	str	r2, [sp, #4]
 8005196:	780b      	ldrb	r3, [r1, #0]
 8005198:	d020      	beq.n	80051dc <USB_EPStopXfer+0x50>
 800519a:	f500 6030 	add.w	r0, r0, #2816	; 0xb00
 800519e:	eb00 1043 	add.w	r0, r0, r3, lsl #5
 80051a2:	6803      	ldr	r3, [r0, #0]
 80051a4:	2b00      	cmp	r3, #0
 80051a6:	db02      	blt.n	80051ae <USB_EPStopXfer+0x22>
 80051a8:	2000      	movs	r0, #0
 80051aa:	b002      	add	sp, #8
 80051ac:	4770      	bx	lr
 80051ae:	6803      	ldr	r3, [r0, #0]
 80051b0:	f043 6300 	orr.w	r3, r3, #134217728	; 0x8000000
 80051b4:	6003      	str	r3, [r0, #0]
 80051b6:	6803      	ldr	r3, [r0, #0]
 80051b8:	f043 4380 	orr.w	r3, r3, #1073741824	; 0x40000000
 80051bc:	f242 7210 	movw	r2, #10000	; 0x2710
 80051c0:	6003      	str	r3, [r0, #0]
 80051c2:	e002      	b.n	80051ca <USB_EPStopXfer+0x3e>
 80051c4:	6803      	ldr	r3, [r0, #0]
 80051c6:	2b00      	cmp	r3, #0
 80051c8:	daee      	bge.n	80051a8 <USB_EPStopXfer+0x1c>
 80051ca:	9b01      	ldr	r3, [sp, #4]
 80051cc:	3301      	adds	r3, #1
 80051ce:	9301      	str	r3, [sp, #4]
 80051d0:	9b01      	ldr	r3, [sp, #4]
 80051d2:	4293      	cmp	r3, r2
 80051d4:	d9f6      	bls.n	80051c4 <USB_EPStopXfer+0x38>
 80051d6:	2001      	movs	r0, #1
 80051d8:	b002      	add	sp, #8
 80051da:	4770      	bx	lr
 80051dc:	f500 6010 	add.w	r0, r0, #2304	; 0x900
 80051e0:	eb00 1343 	add.w	r3, r0, r3, lsl #5
 80051e4:	681a      	ldr	r2, [r3, #0]
 80051e6:	2a00      	cmp	r2, #0
 80051e8:	dade      	bge.n	80051a8 <USB_EPStopXfer+0x1c>
 80051ea:	681a      	ldr	r2, [r3, #0]
 80051ec:	f042 6200 	orr.w	r2, r2, #134217728	; 0x8000000
 80051f0:	601a      	str	r2, [r3, #0]
 80051f2:	681a      	ldr	r2, [r3, #0]
 80051f4:	f042 4280 	orr.w	r2, r2, #1073741824	; 0x40000000
 80051f8:	f242 7110 	movw	r1, #10000	; 0x2710
 80051fc:	601a      	str	r2, [r3, #0]
 80051fe:	e002      	b.n	8005206 <USB_EPStopXfer+0x7a>
 8005200:	681a      	ldr	r2, [r3, #0]
 8005202:	2a00      	cmp	r2, #0
 8005204:	dad0      	bge.n	80051a8 <USB_EPStopXfer+0x1c>
 8005206:	9a01      	ldr	r2, [sp, #4]
 8005208:	3201      	adds	r2, #1
 800520a:	9201      	str	r2, [sp, #4]
 800520c:	9a01      	ldr	r2, [sp, #4]
 800520e:	428a      	cmp	r2, r1
 8005210:	d9f6      	bls.n	8005200 <USB_EPStopXfer+0x74>
 8005212:	e7e0      	b.n	80051d6 <USB_EPStopXfer+0x4a>

08005214 <USB_WritePacket>:
 8005214:	b410      	push	{r4}
 8005216:	f89d 4004 	ldrb.w	r4, [sp, #4]
 800521a:	b964      	cbnz	r4, 8005236 <USB_WritePacket+0x22>
 800521c:	3303      	adds	r3, #3
 800521e:	089b      	lsrs	r3, r3, #2
 8005220:	d009      	beq.n	8005236 <USB_WritePacket+0x22>
 8005222:	3201      	adds	r2, #1
 8005224:	eb00 3002 	add.w	r0, r0, r2, lsl #12
 8005228:	eb01 0383 	add.w	r3, r1, r3, lsl #2
 800522c:	f851 2b04 	ldr.w	r2, [r1], #4
 8005230:	6002      	str	r2, [r0, #0]
 8005232:	428b      	cmp	r3, r1
 8005234:	d1fa      	bne.n	800522c <USB_WritePacket+0x18>
 8005236:	2000      	movs	r0, #0
 8005238:	f85d 4b04 	ldr.w	r4, [sp], #4
 800523c:	4770      	bx	lr
 800523e:	bf00      	nop

08005240 <USB_ReadPacket>:
 8005240:	ea5f 0c92 	movs.w	ip, r2, lsr #2
 8005244:	b570      	push	{r4, r5, r6, lr}
 8005246:	4605      	mov	r5, r0
 8005248:	f002 0603 	and.w	r6, r2, #3
 800524c:	d01e      	beq.n	800528c <USB_ReadPacket+0x4c>
 800524e:	f500 5e80 	add.w	lr, r0, #4096	; 0x1000
 8005252:	460a      	mov	r2, r1
 8005254:	2300      	movs	r3, #0
 8005256:	3301      	adds	r3, #1
 8005258:	f8de 4000 	ldr.w	r4, [lr]
 800525c:	f842 4b04 	str.w	r4, [r2], #4
 8005260:	459c      	cmp	ip, r3
 8005262:	d1f8      	bne.n	8005256 <USB_ReadPacket+0x16>
 8005264:	eb01 008c 	add.w	r0, r1, ip, lsl #2
 8005268:	b17e      	cbz	r6, 800528a <USB_ReadPacket+0x4a>
 800526a:	f505 5580 	add.w	r5, r5, #4096	; 0x1000
 800526e:	1e73      	subs	r3, r6, #1
 8005270:	682a      	ldr	r2, [r5, #0]
 8005272:	7002      	strb	r2, [r0, #0]
 8005274:	b29b      	uxth	r3, r3
 8005276:	b13b      	cbz	r3, 8005288 <USB_ReadPacket+0x48>
 8005278:	2b01      	cmp	r3, #1
 800527a:	ea4f 2112 	mov.w	r1, r2, lsr #8
 800527e:	bf18      	it	ne
 8005280:	0c12      	lsrne	r2, r2, #16
 8005282:	7041      	strb	r1, [r0, #1]
 8005284:	bf18      	it	ne
 8005286:	7082      	strbne	r2, [r0, #2]
 8005288:	4430      	add	r0, r6
 800528a:	bd70      	pop	{r4, r5, r6, pc}
 800528c:	4608      	mov	r0, r1
 800528e:	e7eb      	b.n	8005268 <USB_ReadPacket+0x28>

08005290 <USB_EPSetStall>:
 8005290:	784a      	ldrb	r2, [r1, #1]
 8005292:	780b      	ldrb	r3, [r1, #0]
 8005294:	2a01      	cmp	r2, #1
 8005296:	eb00 1043 	add.w	r0, r0, r3, lsl #5
 800529a:	d00c      	beq.n	80052b6 <USB_EPSetStall+0x26>
 800529c:	f8d0 2b00 	ldr.w	r2, [r0, #2816]	; 0xb00
 80052a0:	2a00      	cmp	r2, #0
 80052a2:	db00      	blt.n	80052a6 <USB_EPSetStall+0x16>
 80052a4:	b9d3      	cbnz	r3, 80052dc <USB_EPSetStall+0x4c>
 80052a6:	f8d0 3b00 	ldr.w	r3, [r0, #2816]	; 0xb00
 80052aa:	f443 1300 	orr.w	r3, r3, #2097152	; 0x200000
 80052ae:	f8c0 3b00 	str.w	r3, [r0, #2816]	; 0xb00
 80052b2:	2000      	movs	r0, #0
 80052b4:	4770      	bx	lr
 80052b6:	f8d0 2900 	ldr.w	r2, [r0, #2304]	; 0x900
 80052ba:	2a00      	cmp	r2, #0
 80052bc:	db06      	blt.n	80052cc <USB_EPSetStall+0x3c>
 80052be:	b12b      	cbz	r3, 80052cc <USB_EPSetStall+0x3c>
 80052c0:	f8d0 3900 	ldr.w	r3, [r0, #2304]	; 0x900
 80052c4:	f023 4380 	bic.w	r3, r3, #1073741824	; 0x40000000
 80052c8:	f8c0 3900 	str.w	r3, [r0, #2304]	; 0x900
 80052cc:	f8d0 3900 	ldr.w	r3, [r0, #2304]	; 0x900
 80052d0:	f443 1300 	orr.w	r3, r3, #2097152	; 0x200000
 80052d4:	f8c0 3900 	str.w	r3, [r0, #2304]	; 0x900
 80052d8:	2000      	movs	r0, #0
 80052da:	4770      	bx	lr
 80052dc:	f8d0 3b00 	ldr.w	r3, [r0, #2816]	; 0xb00
 80052e0:	f023 4380 	bic.w	r3, r3, #1073741824	; 0x40000000
 80052e4:	f8c0 3b00 	str.w	r3, [r0, #2816]	; 0xb00
 80052e8:	e7dd      	b.n	80052a6 <USB_EPSetStall+0x16>
 80052ea:	bf00      	nop

080052ec <USB_EPClearStall>:
 80052ec:	784a      	ldrb	r2, [r1, #1]
 80052ee:	780b      	ldrb	r3, [r1, #0]
 80052f0:	2a01      	cmp	r2, #1
 80052f2:	eb00 1043 	add.w	r0, r0, r3, lsl #5
 80052f6:	d013      	beq.n	8005320 <USB_EPClearStall+0x34>
 80052f8:	f8d0 3b00 	ldr.w	r3, [r0, #2816]	; 0xb00
 80052fc:	f423 1300 	bic.w	r3, r3, #2097152	; 0x200000
 8005300:	f8c0 3b00 	str.w	r3, [r0, #2816]	; 0xb00
 8005304:	790b      	ldrb	r3, [r1, #4]
 8005306:	3b02      	subs	r3, #2
 8005308:	2b01      	cmp	r3, #1
 800530a:	d901      	bls.n	8005310 <USB_EPClearStall+0x24>
 800530c:	2000      	movs	r0, #0
 800530e:	4770      	bx	lr
 8005310:	f8d0 3b00 	ldr.w	r3, [r0, #2816]	; 0xb00
 8005314:	f043 5380 	orr.w	r3, r3, #268435456	; 0x10000000
 8005318:	f8c0 3b00 	str.w	r3, [r0, #2816]	; 0xb00
 800531c:	2000      	movs	r0, #0
 800531e:	4770      	bx	lr
 8005320:	f8d0 3900 	ldr.w	r3, [r0, #2304]	; 0x900
 8005324:	f423 1300 	bic.w	r3, r3, #2097152	; 0x200000
 8005328:	f8c0 3900 	str.w	r3, [r0, #2304]	; 0x900
 800532c:	790b      	ldrb	r3, [r1, #4]
 800532e:	3b02      	subs	r3, #2
 8005330:	2b01      	cmp	r3, #1
 8005332:	d8eb      	bhi.n	800530c <USB_EPClearStall+0x20>
 8005334:	f8d0 3900 	ldr.w	r3, [r0, #2304]	; 0x900
 8005338:	f043 5380 	orr.w	r3, r3, #268435456	; 0x10000000
 800533c:	f8c0 3900 	str.w	r3, [r0, #2304]	; 0x900
 8005340:	2000      	movs	r0, #0
 8005342:	4770      	bx	lr

08005344 <USB_SetDevAddress>:
 8005344:	f8d0 3800 	ldr.w	r3, [r0, #2048]	; 0x800
 8005348:	f423 63fe 	bic.w	r3, r3, #2032	; 0x7f0
 800534c:	f8c0 3800 	str.w	r3, [r0, #2048]	; 0x800
 8005350:	f8d0 3800 	ldr.w	r3, [r0, #2048]	; 0x800
 8005354:	0109      	lsls	r1, r1, #4
 8005356:	f401 61fe 	and.w	r1, r1, #2032	; 0x7f0
 800535a:	4319      	orrs	r1, r3
 800535c:	f8c0 1800 	str.w	r1, [r0, #2048]	; 0x800
 8005360:	2000      	movs	r0, #0
 8005362:	4770      	bx	lr

08005364 <USB_DevConnect>:
 8005364:	f8d0 2e00 	ldr.w	r2, [r0, #3584]	; 0xe00
 8005368:	4603      	mov	r3, r0
 800536a:	f022 0203 	bic.w	r2, r2, #3
 800536e:	f8c3 2e00 	str.w	r2, [r3, #3584]	; 0xe00
 8005372:	f8d3 3804 	ldr.w	r3, [r3, #2052]	; 0x804
 8005376:	f500 6100 	add.w	r1, r0, #2048	; 0x800
 800537a:	f023 0302 	bic.w	r3, r3, #2
 800537e:	2000      	movs	r0, #0
 8005380:	604b      	str	r3, [r1, #4]
 8005382:	4770      	bx	lr

08005384 <USB_DevDisconnect>:
 8005384:	f8d0 2e00 	ldr.w	r2, [r0, #3584]	; 0xe00
 8005388:	4603      	mov	r3, r0
 800538a:	f022 0203 	bic.w	r2, r2, #3
 800538e:	f8c3 2e00 	str.w	r2, [r3, #3584]	; 0xe00
 8005392:	f8d3 3804 	ldr.w	r3, [r3, #2052]	; 0x804
 8005396:	f500 6100 	add.w	r1, r0, #2048	; 0x800
 800539a:	f043 0302 	orr.w	r3, r3, #2
 800539e:	2000      	movs	r0, #0
 80053a0:	604b      	str	r3, [r1, #4]
 80053a2:	4770      	bx	lr

080053a4 <USB_ReadInterrupts>:
 80053a4:	6942      	ldr	r2, [r0, #20]
 80053a6:	6980      	ldr	r0, [r0, #24]
 80053a8:	4010      	ands	r0, r2
 80053aa:	4770      	bx	lr

080053ac <USB_ReadDevAllOutEpInterrupt>:
 80053ac:	f8d0 3818 	ldr.w	r3, [r0, #2072]	; 0x818
 80053b0:	f500 6000 	add.w	r0, r0, #2048	; 0x800
 80053b4:	69c0      	ldr	r0, [r0, #28]
 80053b6:	4018      	ands	r0, r3
 80053b8:	0c00      	lsrs	r0, r0, #16
 80053ba:	4770      	bx	lr

080053bc <USB_ReadDevAllInEpInterrupt>:
 80053bc:	f8d0 3818 	ldr.w	r3, [r0, #2072]	; 0x818
 80053c0:	f500 6000 	add.w	r0, r0, #2048	; 0x800
 80053c4:	69c0      	ldr	r0, [r0, #28]
 80053c6:	4018      	ands	r0, r3
 80053c8:	b280      	uxth	r0, r0
 80053ca:	4770      	bx	lr

080053cc <USB_ReadDevOutEPInterrupt>:
 80053cc:	eb00 1141 	add.w	r1, r0, r1, lsl #5
 80053d0:	f500 6000 	add.w	r0, r0, #2048	; 0x800
 80053d4:	f8d1 2b08 	ldr.w	r2, [r1, #2824]	; 0xb08
 80053d8:	6940      	ldr	r0, [r0, #20]
 80053da:	4010      	ands	r0, r2
 80053dc:	4770      	bx	lr
 80053de:	bf00      	nop

080053e0 <USB_ReadDevInEPInterrupt>:
 80053e0:	f8d0 2810 	ldr.w	r2, [r0, #2064]	; 0x810
 80053e4:	f8d0 3834 	ldr.w	r3, [r0, #2100]	; 0x834
 80053e8:	eb00 1041 	add.w	r0, r0, r1, lsl #5
 80053ec:	f001 010f 	and.w	r1, r1, #15
 80053f0:	40cb      	lsrs	r3, r1
 80053f2:	01db      	lsls	r3, r3, #7
 80053f4:	f8d0 0908 	ldr.w	r0, [r0, #2312]	; 0x908
 80053f8:	b2db      	uxtb	r3, r3
 80053fa:	4313      	orrs	r3, r2
 80053fc:	4018      	ands	r0, r3
 80053fe:	4770      	bx	lr

08005400 <USB_GetMode>:
 8005400:	6940      	ldr	r0, [r0, #20]
 8005402:	f000 0001 	and.w	r0, r0, #1
 8005406:	4770      	bx	lr

08005408 <USB_ActivateSetup>:
 8005408:	f8d0 2900 	ldr.w	r2, [r0, #2304]	; 0x900
 800540c:	4603      	mov	r3, r0
 800540e:	f422 62ff 	bic.w	r2, r2, #2040	; 0x7f8
 8005412:	f022 0207 	bic.w	r2, r2, #7
 8005416:	f8c3 2900 	str.w	r2, [r3, #2304]	; 0x900
 800541a:	f8d3 3804 	ldr.w	r3, [r3, #2052]	; 0x804
 800541e:	f500 6100 	add.w	r1, r0, #2048	; 0x800
 8005422:	f443 7380 	orr.w	r3, r3, #256	; 0x100
 8005426:	2000      	movs	r0, #0
 8005428:	604b      	str	r3, [r1, #4]
 800542a:	4770      	bx	lr

0800542c <USB_EP0_OutStart>:
 800542c:	b410      	push	{r4}
 800542e:	4b14      	ldr	r3, [pc, #80]	; (8005480 <USB_EP0_OutStart+0x54>)
 8005430:	6c04      	ldr	r4, [r0, #64]	; 0x40
 8005432:	429c      	cmp	r4, r3
 8005434:	d81a      	bhi.n	800546c <USB_EP0_OutStart+0x40>
 8005436:	f500 6030 	add.w	r0, r0, #2816	; 0xb00
 800543a:	2300      	movs	r3, #0
 800543c:	6103      	str	r3, [r0, #16]
 800543e:	6903      	ldr	r3, [r0, #16]
 8005440:	f443 2300 	orr.w	r3, r3, #524288	; 0x80000
 8005444:	6103      	str	r3, [r0, #16]
 8005446:	6903      	ldr	r3, [r0, #16]
 8005448:	f043 0318 	orr.w	r3, r3, #24
 800544c:	6103      	str	r3, [r0, #16]
 800544e:	6903      	ldr	r3, [r0, #16]
 8005450:	2901      	cmp	r1, #1
 8005452:	f043 43c0 	orr.w	r3, r3, #1610612736	; 0x60000000
 8005456:	6103      	str	r3, [r0, #16]
 8005458:	d104      	bne.n	8005464 <USB_EP0_OutStart+0x38>
 800545a:	6142      	str	r2, [r0, #20]
 800545c:	6803      	ldr	r3, [r0, #0]
 800545e:	f043 2380 	orr.w	r3, r3, #2147516416	; 0x80008000
 8005462:	6003      	str	r3, [r0, #0]
 8005464:	2000      	movs	r0, #0
 8005466:	f85d 4b04 	ldr.w	r4, [sp], #4
 800546a:	4770      	bx	lr
 800546c:	f8d0 3b00 	ldr.w	r3, [r0, #2816]	; 0xb00
 8005470:	2b00      	cmp	r3, #0
 8005472:	f500 6030 	add.w	r0, r0, #2816	; 0xb00
 8005476:	dae0      	bge.n	800543a <USB_EP0_OutStart+0xe>
 8005478:	2000      	movs	r0, #0
 800547a:	f85d 4b04 	ldr.w	r4, [sp], #4
 800547e:	4770      	bx	lr
 8005480:	4f54300a 	.word	0x4f54300a

08005484 <MX_USB_DEVICE_Init>:
 8005484:	b508      	push	{r3, lr}
 8005486:	f000 fccb 	bl	8005e20 <USBD_COMPOSITE_Mount_Class>
 800548a:	4918      	ldr	r1, [pc, #96]	; (80054ec <MX_USB_DEVICE_Init+0x68>)
 800548c:	4818      	ldr	r0, [pc, #96]	; (80054f0 <MX_USB_DEVICE_Init+0x6c>)
 800548e:	2200      	movs	r2, #0
 8005490:	f000 fe60 	bl	8006154 <USBD_Init>
 8005494:	b970      	cbnz	r0, 80054b4 <MX_USB_DEVICE_Init+0x30>
 8005496:	4917      	ldr	r1, [pc, #92]	; (80054f4 <MX_USB_DEVICE_Init+0x70>)
 8005498:	4815      	ldr	r0, [pc, #84]	; (80054f0 <MX_USB_DEVICE_Init+0x6c>)
 800549a:	f000 fe6d 	bl	8006178 <USBD_RegisterClass>
 800549e:	b988      	cbnz	r0, 80054c4 <MX_USB_DEVICE_Init+0x40>
 80054a0:	4915      	ldr	r1, [pc, #84]	; (80054f8 <MX_USB_DEVICE_Init+0x74>)
 80054a2:	4813      	ldr	r0, [pc, #76]	; (80054f0 <MX_USB_DEVICE_Init+0x6c>)
 80054a4:	f000 fb32 	bl	8005b0c <USBD_CDC_ACM_RegisterInterface>
 80054a8:	b9a0      	cbnz	r0, 80054d4 <MX_USB_DEVICE_Init+0x50>
 80054aa:	4811      	ldr	r0, [pc, #68]	; (80054f0 <MX_USB_DEVICE_Init+0x6c>)
 80054ac:	f000 fe8a 	bl	80061c4 <USBD_Start>
 80054b0:	b9b8      	cbnz	r0, 80054e2 <MX_USB_DEVICE_Init+0x5e>
 80054b2:	bd08      	pop	{r3, pc}
 80054b4:	f7fb fe20 	bl	80010f8 <Error_Handler>
 80054b8:	490e      	ldr	r1, [pc, #56]	; (80054f4 <MX_USB_DEVICE_Init+0x70>)
 80054ba:	480d      	ldr	r0, [pc, #52]	; (80054f0 <MX_USB_DEVICE_Init+0x6c>)
 80054bc:	f000 fe5c 	bl	8006178 <USBD_RegisterClass>
 80054c0:	2800      	cmp	r0, #0
 80054c2:	d0ed      	beq.n	80054a0 <MX_USB_DEVICE_Init+0x1c>
 80054c4:	f7fb fe18 	bl	80010f8 <Error_Handler>
 80054c8:	490b      	ldr	r1, [pc, #44]	; (80054f8 <MX_USB_DEVICE_Init+0x74>)
 80054ca:	4809      	ldr	r0, [pc, #36]	; (80054f0 <MX_USB_DEVICE_Init+0x6c>)
 80054cc:	f000 fb1e 	bl	8005b0c <USBD_CDC_ACM_RegisterInterface>
 80054d0:	2800      	cmp	r0, #0
 80054d2:	d0ea      	beq.n	80054aa <MX_USB_DEVICE_Init+0x26>
 80054d4:	f7fb fe10 	bl	80010f8 <Error_Handler>
 80054d8:	4805      	ldr	r0, [pc, #20]	; (80054f0 <MX_USB_DEVICE_Init+0x6c>)
 80054da:	f000 fe73 	bl	80061c4 <USBD_Start>
 80054de:	2800      	cmp	r0, #0
 80054e0:	d0e7      	beq.n	80054b2 <MX_USB_DEVICE_Init+0x2e>
 80054e2:	e8bd 4008 	ldmia.w	sp!, {r3, lr}
 80054e6:	f7fb be07 	b.w	80010f8 <Error_Handler>
 80054ea:	bf00      	nop
 80054ec:	20000128 	.word	0x20000128
 80054f0:	200023a8 	.word	0x200023a8
 80054f4:	20000258 	.word	0x20000258
 80054f8:	20000114 	.word	0x20000114

080054fc <CDC_DeInit>:
 80054fc:	2000      	movs	r0, #0
 80054fe:	4770      	bx	lr

08005500 <CDC_TransmitCplt>:
 8005500:	2000      	movs	r0, #0
 8005502:	4770      	bx	lr

08005504 <CDC_Init>:
 8005504:	b508      	push	{r3, lr}
 8005506:	4a04      	ldr	r2, [pc, #16]	; (8005518 <CDC_Init+0x14>)
 8005508:	4904      	ldr	r1, [pc, #16]	; (800551c <CDC_Init+0x18>)
 800550a:	eb02 12c0 	add.w	r2, r2, r0, lsl #7
 800550e:	f000 fb13 	bl	8005b38 <USBD_CDC_SetRxBuffer>
 8005512:	2000      	movs	r0, #0
 8005514:	bd08      	pop	{r3, pc}
 8005516:	bf00      	nop
 8005518:	200026cc 	.word	0x200026cc
 800551c:	200023a8 	.word	0x200023a8

08005520 <CDC_Receive>:
 8005520:	b570      	push	{r4, r5, r6, lr}
 8005522:	4605      	mov	r5, r0
 8005524:	4608      	mov	r0, r1
 8005526:	b672      	cpsid	i
 8005528:	4e10      	ldr	r6, [pc, #64]	; (800556c <CDC_Receive+0x4c>)
 800552a:	6813      	ldr	r3, [r2, #0]
 800552c:	6831      	ldr	r1, [r6, #0]
 800552e:	b17b      	cbz	r3, 8005550 <CDC_Receive+0x30>
 8005530:	4b0f      	ldr	r3, [pc, #60]	; (8005570 <CDC_Receive+0x50>)
 8005532:	f100 3cff 	add.w	ip, r0, #4294967295
 8005536:	eb01 0e03 	add.w	lr, r1, r3
 800553a:	4663      	mov	r3, ip
 800553c:	f81c 4f01 	ldrb.w	r4, [ip, #1]!
 8005540:	f80e 4f01 	strb.w	r4, [lr, #1]!
 8005544:	3302      	adds	r3, #2
 8005546:	6814      	ldr	r4, [r2, #0]
 8005548:	1a1b      	subs	r3, r3, r0
 800554a:	429c      	cmp	r4, r3
 800554c:	d8f5      	bhi.n	800553a <CDC_Receive+0x1a>
 800554e:	4421      	add	r1, r4
 8005550:	6031      	str	r1, [r6, #0]
 8005552:	b662      	cpsie	i
 8005554:	4907      	ldr	r1, [pc, #28]	; (8005574 <CDC_Receive+0x54>)
 8005556:	4602      	mov	r2, r0
 8005558:	4628      	mov	r0, r5
 800555a:	f000 faed 	bl	8005b38 <USBD_CDC_SetRxBuffer>
 800555e:	4905      	ldr	r1, [pc, #20]	; (8005574 <CDC_Receive+0x54>)
 8005560:	4628      	mov	r0, r5
 8005562:	f000 fb1b 	bl	8005b9c <USBD_CDC_ReceivePacket>
 8005566:	2000      	movs	r0, #0
 8005568:	bd70      	pop	{r4, r5, r6, pc}
 800556a:	bf00      	nop
 800556c:	20001cf4 	.word	0x20001cf4
 8005570:	20000cf3 	.word	0x20000cf3
 8005574:	200023a8 	.word	0x200023a8

08005578 <CDC_Control>:
 8005578:	2920      	cmp	r1, #32
 800557a:	d022      	beq.n	80055c2 <CDC_Control+0x4a>
 800557c:	2921      	cmp	r1, #33	; 0x21
 800557e:	d12c      	bne.n	80055da <CDC_Control+0x62>
 8005580:	4b17      	ldr	r3, [pc, #92]	; (80055e0 <CDC_Control+0x68>)
 8005582:	f853 1030 	ldr.w	r1, [r3, r0, lsl #3]
 8005586:	7011      	strb	r1, [r2, #0]
 8005588:	b410      	push	{r4}
 800558a:	f853 4030 	ldr.w	r4, [r3, r0, lsl #3]
 800558e:	ea4f 2c14 	mov.w	ip, r4, lsr #8
 8005592:	f882 c001 	strb.w	ip, [r2, #1]
 8005596:	f853 4030 	ldr.w	r4, [r3, r0, lsl #3]
 800559a:	ea4f 4c14 	mov.w	ip, r4, lsr #16
 800559e:	f882 c002 	strb.w	ip, [r2, #2]
 80055a2:	eb03 01c0 	add.w	r1, r3, r0, lsl #3
 80055a6:	f853 3030 	ldr.w	r3, [r3, r0, lsl #3]
 80055aa:	f85d 4b04 	ldr.w	r4, [sp], #4
 80055ae:	0e1b      	lsrs	r3, r3, #24
 80055b0:	70d3      	strb	r3, [r2, #3]
 80055b2:	790b      	ldrb	r3, [r1, #4]
 80055b4:	7113      	strb	r3, [r2, #4]
 80055b6:	794b      	ldrb	r3, [r1, #5]
 80055b8:	7153      	strb	r3, [r2, #5]
 80055ba:	798b      	ldrb	r3, [r1, #6]
 80055bc:	7193      	strb	r3, [r2, #6]
 80055be:	2000      	movs	r0, #0
 80055c0:	4770      	bx	lr
 80055c2:	4b07      	ldr	r3, [pc, #28]	; (80055e0 <CDC_Control+0x68>)
 80055c4:	6811      	ldr	r1, [r2, #0]
 80055c6:	f843 1030 	str.w	r1, [r3, r0, lsl #3]
 80055ca:	eb03 00c0 	add.w	r0, r3, r0, lsl #3
 80055ce:	7913      	ldrb	r3, [r2, #4]
 80055d0:	7103      	strb	r3, [r0, #4]
 80055d2:	7953      	ldrb	r3, [r2, #5]
 80055d4:	7143      	strb	r3, [r0, #5]
 80055d6:	7993      	ldrb	r3, [r2, #6]
 80055d8:	7183      	strb	r3, [r0, #6]
 80055da:	2000      	movs	r0, #0
 80055dc:	4770      	bx	lr
 80055de:	bf00      	nop
 80055e0:	200026c4 	.word	0x200026c4

080055e4 <CDC_Transmit>:
 80055e4:	b538      	push	{r3, r4, r5, lr}
 80055e6:	4d0b      	ldr	r5, [pc, #44]	; (8005614 <CDC_Transmit+0x30>)
 80055e8:	f44f 7307 	mov.w	r3, #540	; 0x21c
 80055ec:	fb03 5500 	mla	r5, r3, r0, r5
 80055f0:	f8d5 3214 	ldr.w	r3, [r5, #532]	; 0x214
 80055f4:	b10b      	cbz	r3, 80055fa <CDC_Transmit+0x16>
 80055f6:	2001      	movs	r0, #1
 80055f8:	bd38      	pop	{r3, r4, r5, pc}
 80055fa:	468c      	mov	ip, r1
 80055fc:	4604      	mov	r4, r0
 80055fe:	4613      	mov	r3, r2
 8005600:	4905      	ldr	r1, [pc, #20]	; (8005618 <CDC_Transmit+0x34>)
 8005602:	4662      	mov	r2, ip
 8005604:	f000 fa8a 	bl	8005b1c <USBD_CDC_SetTxBuffer>
 8005608:	4620      	mov	r0, r4
 800560a:	4903      	ldr	r1, [pc, #12]	; (8005618 <CDC_Transmit+0x34>)
 800560c:	e8bd 4038 	ldmia.w	sp!, {r3, r4, r5, lr}
 8005610:	f000 ba9e 	b.w	8005b50 <USBD_CDC_TransmitPacket>
 8005614:	2000294c 	.word	0x2000294c
 8005618:	200023a8 	.word	0x200023a8

0800561c <USBD_DeviceDescriptor>:
 800561c:	2312      	movs	r3, #18
 800561e:	4801      	ldr	r0, [pc, #4]	; (8005624 <USBD_DeviceDescriptor+0x8>)
 8005620:	800b      	strh	r3, [r1, #0]
 8005622:	4770      	bx	lr
 8005624:	20000144 	.word	0x20000144

08005628 <USBD_LangIDStrDescriptor>:
 8005628:	2304      	movs	r3, #4
 800562a:	4801      	ldr	r0, [pc, #4]	; (8005630 <USBD_LangIDStrDescriptor+0x8>)
 800562c:	800b      	strh	r3, [r1, #0]
 800562e:	4770      	bx	lr
 8005630:	20000158 	.word	0x20000158

08005634 <USBD_ManufacturerStrDescriptor>:
 8005634:	b510      	push	{r4, lr}
 8005636:	4c04      	ldr	r4, [pc, #16]	; (8005648 <USBD_ManufacturerStrDescriptor+0x14>)
 8005638:	4804      	ldr	r0, [pc, #16]	; (800564c <USBD_ManufacturerStrDescriptor+0x18>)
 800563a:	460a      	mov	r2, r1
 800563c:	4621      	mov	r1, r4
 800563e:	f001 f9ab 	bl	8006998 <USBD_GetString>
 8005642:	4620      	mov	r0, r4
 8005644:	bd10      	pop	{r4, pc}
 8005646:	bf00      	nop
 8005648:	2000274c 	.word	0x2000274c
 800564c:	08009778 	.word	0x08009778

08005650 <USBD_ProductStrDescriptor>:
 8005650:	b510      	push	{r4, lr}
 8005652:	4c04      	ldr	r4, [pc, #16]	; (8005664 <USBD_ProductStrDescriptor+0x14>)
 8005654:	4804      	ldr	r0, [pc, #16]	; (8005668 <USBD_ProductStrDescriptor+0x18>)
 8005656:	460a      	mov	r2, r1
 8005658:	4621      	mov	r1, r4
 800565a:	f001 f99d 	bl	8006998 <USBD_GetString>
 800565e:	4620      	mov	r0, r4
 8005660:	bd10      	pop	{r4, pc}
 8005662:	bf00      	nop
 8005664:	2000274c 	.word	0x2000274c
 8005668:	0800978c 	.word	0x0800978c

0800566c <USBD_ConfigStrDescriptor>:
 800566c:	b510      	push	{r4, lr}
 800566e:	4c04      	ldr	r4, [pc, #16]	; (8005680 <USBD_ConfigStrDescriptor+0x14>)
 8005670:	4804      	ldr	r0, [pc, #16]	; (8005684 <USBD_ConfigStrDescriptor+0x18>)
 8005672:	460a      	mov	r2, r1
 8005674:	4621      	mov	r1, r4
 8005676:	f001 f98f 	bl	8006998 <USBD_GetString>
 800567a:	4620      	mov	r0, r4
 800567c:	bd10      	pop	{r4, pc}
 800567e:	bf00      	nop
 8005680:	2000274c 	.word	0x2000274c
 8005684:	080097a4 	.word	0x080097a4

08005688 <USBD_InterfaceStrDescriptor>:
 8005688:	b510      	push	{r4, lr}
 800568a:	4c04      	ldr	r4, [pc, #16]	; (800569c <USBD_InterfaceStrDescriptor+0x14>)
 800568c:	4804      	ldr	r0, [pc, #16]	; (80056a0 <USBD_InterfaceStrDescriptor+0x18>)
 800568e:	460a      	mov	r2, r1
 8005690:	4621      	mov	r1, r4
 8005692:	f001 f981 	bl	8006998 <USBD_GetString>
 8005696:	4620      	mov	r0, r4
 8005698:	bd10      	pop	{r4, pc}
 800569a:	bf00      	nop
 800569c:	2000274c 	.word	0x2000274c
 80056a0:	080097b4 	.word	0x080097b4

080056a4 <USBD_SerialStrDescriptor>:
 80056a4:	4a45      	ldr	r2, [pc, #276]	; (80057bc <USBD_SerialStrDescriptor+0x118>)
 80056a6:	f8d2 0a10 	ldr.w	r0, [r2, #2576]	; 0xa10
 80056aa:	f8d2 3a18 	ldr.w	r3, [r2, #2584]	; 0xa18
 80056ae:	f04f 0c1a 	mov.w	ip, #26
 80056b2:	18c3      	adds	r3, r0, r3
 80056b4:	f8a1 c000 	strh.w	ip, [r1]
 80056b8:	d101      	bne.n	80056be <USBD_SerialStrDescriptor+0x1a>
 80056ba:	4841      	ldr	r0, [pc, #260]	; (80057c0 <USBD_SerialStrDescriptor+0x11c>)
 80056bc:	4770      	bx	lr
 80056be:	f8d2 1a14 	ldr.w	r1, [r2, #2580]	; 0xa14
 80056c2:	4a3f      	ldr	r2, [pc, #252]	; (80057c0 <USBD_SerialStrDescriptor+0x11c>)
 80056c4:	0f18      	lsrs	r0, r3, #28
 80056c6:	f1b3 4f20 	cmp.w	r3, #2684354560	; 0xa0000000
 80056ca:	bf2c      	ite	cs
 80056cc:	3037      	addcs	r0, #55	; 0x37
 80056ce:	3030      	addcc	r0, #48	; 0x30
 80056d0:	7090      	strb	r0, [r2, #2]
 80056d2:	f3c3 6003 	ubfx	r0, r3, #24, #4
 80056d6:	2809      	cmp	r0, #9
 80056d8:	bf8c      	ite	hi
 80056da:	3037      	addhi	r0, #55	; 0x37
 80056dc:	3030      	addls	r0, #48	; 0x30
 80056de:	7110      	strb	r0, [r2, #4]
 80056e0:	f3c3 5003 	ubfx	r0, r3, #20, #4
 80056e4:	2809      	cmp	r0, #9
 80056e6:	bf8c      	ite	hi
 80056e8:	3037      	addhi	r0, #55	; 0x37
 80056ea:	3030      	addls	r0, #48	; 0x30
 80056ec:	7190      	strb	r0, [r2, #6]
 80056ee:	f3c3 4003 	ubfx	r0, r3, #16, #4
 80056f2:	2809      	cmp	r0, #9
 80056f4:	bf8c      	ite	hi
 80056f6:	3037      	addhi	r0, #55	; 0x37
 80056f8:	3030      	addls	r0, #48	; 0x30
 80056fa:	7210      	strb	r0, [r2, #8]
 80056fc:	f3c3 3003 	ubfx	r0, r3, #12, #4
 8005700:	2809      	cmp	r0, #9
 8005702:	bf8c      	ite	hi
 8005704:	3037      	addhi	r0, #55	; 0x37
 8005706:	3030      	addls	r0, #48	; 0x30
 8005708:	7290      	strb	r0, [r2, #10]
 800570a:	f3c3 2003 	ubfx	r0, r3, #8, #4
 800570e:	2809      	cmp	r0, #9
 8005710:	bf8c      	ite	hi
 8005712:	3037      	addhi	r0, #55	; 0x37
 8005714:	3030      	addls	r0, #48	; 0x30
 8005716:	7310      	strb	r0, [r2, #12]
 8005718:	f3c3 1003 	ubfx	r0, r3, #4, #4
 800571c:	2809      	cmp	r0, #9
 800571e:	f003 030f 	and.w	r3, r3, #15
 8005722:	bf8c      	ite	hi
 8005724:	3037      	addhi	r0, #55	; 0x37
 8005726:	3030      	addls	r0, #48	; 0x30
 8005728:	2b09      	cmp	r3, #9
 800572a:	bf94      	ite	ls
 800572c:	3330      	addls	r3, #48	; 0x30
 800572e:	3337      	addhi	r3, #55	; 0x37
 8005730:	7413      	strb	r3, [r2, #16]
 8005732:	2300      	movs	r3, #0
 8005734:	f1b1 4f20 	cmp.w	r1, #2684354560	; 0xa0000000
 8005738:	7453      	strb	r3, [r2, #17]
 800573a:	ea4f 7311 	mov.w	r3, r1, lsr #28
 800573e:	bf2c      	ite	cs
 8005740:	3337      	addcs	r3, #55	; 0x37
 8005742:	3330      	addcc	r3, #48	; 0x30
 8005744:	7493      	strb	r3, [r2, #18]
 8005746:	f3c1 6303 	ubfx	r3, r1, #24, #4
 800574a:	2b09      	cmp	r3, #9
 800574c:	bf8c      	ite	hi
 800574e:	3337      	addhi	r3, #55	; 0x37
 8005750:	3330      	addls	r3, #48	; 0x30
 8005752:	7513      	strb	r3, [r2, #20]
 8005754:	f3c1 5303 	ubfx	r3, r1, #20, #4
 8005758:	2b09      	cmp	r3, #9
 800575a:	f04f 0c00 	mov.w	ip, #0
 800575e:	bf8c      	ite	hi
 8005760:	3337      	addhi	r3, #55	; 0x37
 8005762:	3330      	addls	r3, #48	; 0x30
 8005764:	f882 c003 	strb.w	ip, [r2, #3]
 8005768:	f04f 0c00 	mov.w	ip, #0
 800576c:	f882 c005 	strb.w	ip, [r2, #5]
 8005770:	7390      	strb	r0, [r2, #14]
 8005772:	f04f 0c00 	mov.w	ip, #0
 8005776:	2000      	movs	r0, #0
 8005778:	7593      	strb	r3, [r2, #22]
 800577a:	f3c1 4303 	ubfx	r3, r1, #16, #4
 800577e:	2b09      	cmp	r3, #9
 8005780:	f882 c007 	strb.w	ip, [r2, #7]
 8005784:	73d0      	strb	r0, [r2, #15]
 8005786:	f04f 0c00 	mov.w	ip, #0
 800578a:	f04f 0000 	mov.w	r0, #0
 800578e:	bf94      	ite	ls
 8005790:	3330      	addls	r3, #48	; 0x30
 8005792:	3337      	addhi	r3, #55	; 0x37
 8005794:	f882 c009 	strb.w	ip, [r2, #9]
 8005798:	74d0      	strb	r0, [r2, #19]
 800579a:	f04f 0c00 	mov.w	ip, #0
 800579e:	2000      	movs	r0, #0
 80057a0:	f882 c00b 	strb.w	ip, [r2, #11]
 80057a4:	7550      	strb	r0, [r2, #21]
 80057a6:	f04f 0c00 	mov.w	ip, #0
 80057aa:	2000      	movs	r0, #0
 80057ac:	7613      	strb	r3, [r2, #24]
 80057ae:	2300      	movs	r3, #0
 80057b0:	75d0      	strb	r0, [r2, #23]
 80057b2:	f882 c00d 	strb.w	ip, [r2, #13]
 80057b6:	4802      	ldr	r0, [pc, #8]	; (80057c0 <USBD_SerialStrDescriptor+0x11c>)
 80057b8:	7653      	strb	r3, [r2, #25]
 80057ba:	4770      	bx	lr
 80057bc:	1fff7000 	.word	0x1fff7000
 80057c0:	2000015c 	.word	0x2000015c

080057c4 <USBD_CDC_EP0_RxReady>:
 80057c4:	b538      	push	{r3, r4, r5, lr}
 80057c6:	f8d0 32bc 	ldr.w	r3, [r0, #700]	; 0x2bc
 80057ca:	b123      	cbz	r3, 80057d6 <USBD_CDC_EP0_RxReady+0x12>
 80057cc:	4c08      	ldr	r4, [pc, #32]	; (80057f0 <USBD_CDC_EP0_RxReady+0x2c>)
 80057ce:	f894 1200 	ldrb.w	r1, [r4, #512]	; 0x200
 80057d2:	29ff      	cmp	r1, #255	; 0xff
 80057d4:	d101      	bne.n	80057da <USBD_CDC_EP0_RxReady+0x16>
 80057d6:	2000      	movs	r0, #0
 80057d8:	bd38      	pop	{r3, r4, r5, pc}
 80057da:	689d      	ldr	r5, [r3, #8]
 80057dc:	f894 3201 	ldrb.w	r3, [r4, #513]	; 0x201
 80057e0:	4622      	mov	r2, r4
 80057e2:	2000      	movs	r0, #0
 80057e4:	47a8      	blx	r5
 80057e6:	23ff      	movs	r3, #255	; 0xff
 80057e8:	f884 3200 	strb.w	r3, [r4, #512]	; 0x200
 80057ec:	2000      	movs	r0, #0
 80057ee:	bd38      	pop	{r3, r4, r5, pc}
 80057f0:	2000294c 	.word	0x2000294c

080057f4 <USBD_CDC_GetFSCfgDesc>:
 80057f4:	234b      	movs	r3, #75	; 0x4b
 80057f6:	8003      	strh	r3, [r0, #0]
 80057f8:	4800      	ldr	r0, [pc, #0]	; (80057fc <USBD_CDC_GetFSCfgDesc+0x8>)
 80057fa:	4770      	bx	lr
 80057fc:	200001b4 	.word	0x200001b4

08005800 <USBD_CDC_GetHSCfgDesc>:
 8005800:	234b      	movs	r3, #75	; 0x4b
 8005802:	8003      	strh	r3, [r0, #0]
 8005804:	4800      	ldr	r0, [pc, #0]	; (8005808 <USBD_CDC_GetHSCfgDesc+0x8>)
 8005806:	4770      	bx	lr
 8005808:	20000200 	.word	0x20000200

0800580c <USBD_CDC_GetDeviceQualifierDescriptor>:
 800580c:	230a      	movs	r3, #10
 800580e:	8003      	strh	r3, [r0, #0]
 8005810:	4800      	ldr	r0, [pc, #0]	; (8005814 <USBD_CDC_GetDeviceQualifierDescriptor+0x8>)
 8005812:	4770      	bx	lr
 8005814:	2000024c 	.word	0x2000024c

08005818 <USBD_CDC_DataOut>:
 8005818:	b510      	push	{r4, lr}
 800581a:	4604      	mov	r4, r0
 800581c:	f001 fa4a 	bl	8006cb4 <USBD_LL_GetRxDataSize>
 8005820:	4a06      	ldr	r2, [pc, #24]	; (800583c <USBD_CDC_DataOut+0x24>)
 8005822:	f8d4 32bc 	ldr.w	r3, [r4, #700]	; 0x2bc
 8005826:	f8d2 1204 	ldr.w	r1, [r2, #516]	; 0x204
 800582a:	68db      	ldr	r3, [r3, #12]
 800582c:	f8c2 020c 	str.w	r0, [r2, #524]	; 0x20c
 8005830:	f502 7203 	add.w	r2, r2, #524	; 0x20c
 8005834:	2000      	movs	r0, #0
 8005836:	4798      	blx	r3
 8005838:	2000      	movs	r0, #0
 800583a:	bd10      	pop	{r4, pc}
 800583c:	2000294c 	.word	0x2000294c

08005840 <USBD_CDC_DataIn>:
 8005840:	eb01 0c81 	add.w	ip, r1, r1, lsl #2
 8005844:	eb00 0c8c 	add.w	ip, r0, ip, lsl #2
 8005848:	b538      	push	{r3, r4, r5, lr}
 800584a:	f8dc 4018 	ldr.w	r4, [ip, #24]
 800584e:	460b      	mov	r3, r1
 8005850:	4602      	mov	r2, r0
 8005852:	b164      	cbz	r4, 800586e <USBD_CDC_DataIn+0x2e>
 8005854:	f8d0 5310 	ldr.w	r5, [r0, #784]	; 0x310
 8005858:	eb01 0ec1 	add.w	lr, r1, r1, lsl #3
 800585c:	eb05 0e8e 	add.w	lr, r5, lr, lsl #2
 8005860:	f8de 5048 	ldr.w	r5, [lr, #72]	; 0x48
 8005864:	fbb4 fef5 	udiv	lr, r4, r5
 8005868:	fb05 441e 	mls	r4, r5, lr, r4
 800586c:	b174      	cbz	r4, 800588c <USBD_CDC_DataIn+0x4c>
 800586e:	f8d2 22bc 	ldr.w	r2, [r2, #700]	; 0x2bc
 8005872:	490a      	ldr	r1, [pc, #40]	; (800589c <USBD_CDC_DataIn+0x5c>)
 8005874:	6914      	ldr	r4, [r2, #16]
 8005876:	2000      	movs	r0, #0
 8005878:	f8c1 0214 	str.w	r0, [r1, #532]	; 0x214
 800587c:	b124      	cbz	r4, 8005888 <USBD_CDC_DataIn+0x48>
 800587e:	f501 7204 	add.w	r2, r1, #528	; 0x210
 8005882:	f8d1 1208 	ldr.w	r1, [r1, #520]	; 0x208
 8005886:	47a0      	blx	r4
 8005888:	2000      	movs	r0, #0
 800588a:	bd38      	pop	{r3, r4, r5, pc}
 800588c:	f8cc 4018 	str.w	r4, [ip, #24]
 8005890:	4623      	mov	r3, r4
 8005892:	4622      	mov	r2, r4
 8005894:	f001 f9f2 	bl	8006c7c <USBD_LL_Transmit>
 8005898:	2000      	movs	r0, #0
 800589a:	bd38      	pop	{r3, r4, r5, pc}
 800589c:	2000294c 	.word	0x2000294c

080058a0 <USBD_CDC_Setup>:
 80058a0:	b5f0      	push	{r4, r5, r6, r7, lr}
 80058a2:	780b      	ldrb	r3, [r1, #0]
 80058a4:	b083      	sub	sp, #12
 80058a6:	2700      	movs	r7, #0
 80058a8:	f013 0560 	ands.w	r5, r3, #96	; 0x60
 80058ac:	460c      	mov	r4, r1
 80058ae:	f88d 7005 	strb.w	r7, [sp, #5]
 80058b2:	f8ad 7006 	strh.w	r7, [sp, #6]
 80058b6:	4606      	mov	r6, r0
 80058b8:	d024      	beq.n	8005904 <USBD_CDC_Setup+0x64>
 80058ba:	2d20      	cmp	r5, #32
 80058bc:	d11a      	bne.n	80058f4 <USBD_CDC_Setup+0x54>
 80058be:	88cd      	ldrh	r5, [r1, #6]
 80058c0:	2d00      	cmp	r5, #0
 80058c2:	d03d      	beq.n	8005940 <USBD_CDC_Setup+0xa0>
 80058c4:	061b      	lsls	r3, r3, #24
 80058c6:	d555      	bpl.n	8005974 <USBD_CDC_Setup+0xd4>
 80058c8:	f8d0 22bc 	ldr.w	r2, [r0, #700]	; 0x2bc
 80058cc:	7849      	ldrb	r1, [r1, #1]
 80058ce:	462b      	mov	r3, r5
 80058d0:	4638      	mov	r0, r7
 80058d2:	6895      	ldr	r5, [r2, #8]
 80058d4:	4a30      	ldr	r2, [pc, #192]	; (8005998 <USBD_CDC_Setup+0xf8>)
 80058d6:	47a8      	blx	r5
 80058d8:	88e2      	ldrh	r2, [r4, #6]
 80058da:	492f      	ldr	r1, [pc, #188]	; (8005998 <USBD_CDC_Setup+0xf8>)
 80058dc:	2a07      	cmp	r2, #7
 80058de:	bf28      	it	cs
 80058e0:	2207      	movcs	r2, #7
 80058e2:	4630      	mov	r0, r6
 80058e4:	f001 f882 	bl	80069ec <USBD_CtlSendData>
 80058e8:	463d      	mov	r5, r7
 80058ea:	e008      	b.n	80058fe <USBD_CDC_Setup+0x5e>
 80058ec:	f890 329c 	ldrb.w	r3, [r0, #668]	; 0x29c
 80058f0:	2b03      	cmp	r3, #3
 80058f2:	d04a      	beq.n	800598a <USBD_CDC_Setup+0xea>
 80058f4:	4621      	mov	r1, r4
 80058f6:	4630      	mov	r0, r6
 80058f8:	f001 f842 	bl	8006980 <USBD_CtlError>
 80058fc:	2503      	movs	r5, #3
 80058fe:	4628      	mov	r0, r5
 8005900:	b003      	add	sp, #12
 8005902:	bdf0      	pop	{r4, r5, r6, r7, pc}
 8005904:	784f      	ldrb	r7, [r1, #1]
 8005906:	2f0b      	cmp	r7, #11
 8005908:	d8f4      	bhi.n	80058f4 <USBD_CDC_Setup+0x54>
 800590a:	a301      	add	r3, pc, #4	; (adr r3, 8005910 <USBD_CDC_Setup+0x70>)
 800590c:	f853 f027 	ldr.w	pc, [r3, r7, lsl #2]
 8005910:	080058ed 	.word	0x080058ed
 8005914:	080058ff 	.word	0x080058ff
 8005918:	080058f5 	.word	0x080058f5
 800591c:	080058f5 	.word	0x080058f5
 8005920:	080058f5 	.word	0x080058f5
 8005924:	080058f5 	.word	0x080058f5
 8005928:	080058f5 	.word	0x080058f5
 800592c:	080058f5 	.word	0x080058f5
 8005930:	080058f5 	.word	0x080058f5
 8005934:	080058f5 	.word	0x080058f5
 8005938:	08005961 	.word	0x08005961
 800593c:	08005957 	.word	0x08005957
 8005940:	f8d0 22bc 	ldr.w	r2, [r0, #700]	; 0x2bc
 8005944:	462b      	mov	r3, r5
 8005946:	6896      	ldr	r6, [r2, #8]
 8005948:	4628      	mov	r0, r5
 800594a:	460a      	mov	r2, r1
 800594c:	7849      	ldrb	r1, [r1, #1]
 800594e:	47b0      	blx	r6
 8005950:	4628      	mov	r0, r5
 8005952:	b003      	add	sp, #12
 8005954:	bdf0      	pop	{r4, r5, r6, r7, pc}
 8005956:	f890 329c 	ldrb.w	r3, [r0, #668]	; 0x29c
 800595a:	2b03      	cmp	r3, #3
 800595c:	d0cf      	beq.n	80058fe <USBD_CDC_Setup+0x5e>
 800595e:	e7c9      	b.n	80058f4 <USBD_CDC_Setup+0x54>
 8005960:	f890 329c 	ldrb.w	r3, [r0, #668]	; 0x29c
 8005964:	2b03      	cmp	r3, #3
 8005966:	d1c5      	bne.n	80058f4 <USBD_CDC_Setup+0x54>
 8005968:	2201      	movs	r2, #1
 800596a:	f10d 0105 	add.w	r1, sp, #5
 800596e:	f001 f83d 	bl	80069ec <USBD_CtlSendData>
 8005972:	e7c4      	b.n	80058fe <USBD_CDC_Setup+0x5e>
 8005974:	4908      	ldr	r1, [pc, #32]	; (8005998 <USBD_CDC_Setup+0xf8>)
 8005976:	7863      	ldrb	r3, [r4, #1]
 8005978:	f881 3200 	strb.w	r3, [r1, #512]	; 0x200
 800597c:	462a      	mov	r2, r5
 800597e:	f881 5201 	strb.w	r5, [r1, #513]	; 0x201
 8005982:	f001 f849 	bl	8006a18 <USBD_CtlPrepareRx>
 8005986:	463d      	mov	r5, r7
 8005988:	e7b9      	b.n	80058fe <USBD_CDC_Setup+0x5e>
 800598a:	2202      	movs	r2, #2
 800598c:	f10d 0106 	add.w	r1, sp, #6
 8005990:	f001 f82c 	bl	80069ec <USBD_CtlSendData>
 8005994:	463d      	mov	r5, r7
 8005996:	e7b2      	b.n	80058fe <USBD_CDC_Setup+0x5e>
 8005998:	2000294c 	.word	0x2000294c

0800599c <USBD_CDC_DeInit>:
 800599c:	b570      	push	{r4, r5, r6, lr}
 800599e:	4d18      	ldr	r5, [pc, #96]	; (8005a00 <USBD_CDC_DeInit+0x64>)
 80059a0:	4e18      	ldr	r6, [pc, #96]	; (8005a04 <USBD_CDC_DeInit+0x68>)
 80059a2:	7829      	ldrb	r1, [r5, #0]
 80059a4:	4604      	mov	r4, r0
 80059a6:	f001 f91d 	bl	8006be4 <USBD_LL_CloseEP>
 80059aa:	782b      	ldrb	r3, [r5, #0]
 80059ac:	7831      	ldrb	r1, [r6, #0]
 80059ae:	f003 030f 	and.w	r3, r3, #15
 80059b2:	eb03 0383 	add.w	r3, r3, r3, lsl #2
 80059b6:	eb04 0383 	add.w	r3, r4, r3, lsl #2
 80059ba:	2500      	movs	r5, #0
 80059bc:	849d      	strh	r5, [r3, #36]	; 0x24
 80059be:	4620      	mov	r0, r4
 80059c0:	f001 f910 	bl	8006be4 <USBD_LL_CloseEP>
 80059c4:	7833      	ldrb	r3, [r6, #0]
 80059c6:	4e10      	ldr	r6, [pc, #64]	; (8005a08 <USBD_CDC_DeInit+0x6c>)
 80059c8:	f003 030f 	and.w	r3, r3, #15
 80059cc:	eb03 0383 	add.w	r3, r3, r3, lsl #2
 80059d0:	eb04 0383 	add.w	r3, r4, r3, lsl #2
 80059d4:	7831      	ldrb	r1, [r6, #0]
 80059d6:	f8a3 5164 	strh.w	r5, [r3, #356]	; 0x164
 80059da:	4620      	mov	r0, r4
 80059dc:	f001 f902 	bl	8006be4 <USBD_LL_CloseEP>
 80059e0:	7833      	ldrb	r3, [r6, #0]
 80059e2:	f8d4 22bc 	ldr.w	r2, [r4, #700]	; 0x2bc
 80059e6:	f003 030f 	and.w	r3, r3, #15
 80059ea:	eb03 0383 	add.w	r3, r3, r3, lsl #2
 80059ee:	eb04 0483 	add.w	r4, r4, r3, lsl #2
 80059f2:	4628      	mov	r0, r5
 80059f4:	6853      	ldr	r3, [r2, #4]
 80059f6:	6265      	str	r5, [r4, #36]	; 0x24
 80059f8:	4798      	blx	r3
 80059fa:	4628      	mov	r0, r5
 80059fc:	bd70      	pop	{r4, r5, r6, pc}
 80059fe:	bf00      	nop
 8005a00:	20002b74 	.word	0x20002b74
 8005a04:	20002b78 	.word	0x20002b78
 8005a08:	20002b68 	.word	0x20002b68

08005a0c <USBD_CDC_Init>:
 8005a0c:	b5f8      	push	{r3, r4, r5, r6, r7, lr}
 8005a0e:	7c03      	ldrb	r3, [r0, #16]
 8005a10:	4d37      	ldr	r5, [pc, #220]	; (8005af0 <USBD_CDC_Init+0xe4>)
 8005a12:	4604      	mov	r4, r0
 8005a14:	2b00      	cmp	r3, #0
 8005a16:	d14e      	bne.n	8005ab6 <USBD_CDC_Init+0xaa>
 8005a18:	7829      	ldrb	r1, [r5, #0]
 8005a1a:	4e36      	ldr	r6, [pc, #216]	; (8005af4 <USBD_CDC_Init+0xe8>)
 8005a1c:	f44f 7300 	mov.w	r3, #512	; 0x200
 8005a20:	2202      	movs	r2, #2
 8005a22:	f001 f8cf 	bl	8006bc4 <USBD_LL_OpenEP>
 8005a26:	782b      	ldrb	r3, [r5, #0]
 8005a28:	4d33      	ldr	r5, [pc, #204]	; (8005af8 <USBD_CDC_Init+0xec>)
 8005a2a:	f003 030f 	and.w	r3, r3, #15
 8005a2e:	eb03 0383 	add.w	r3, r3, r3, lsl #2
 8005a32:	eb04 0383 	add.w	r3, r4, r3, lsl #2
 8005a36:	2701      	movs	r7, #1
 8005a38:	7829      	ldrb	r1, [r5, #0]
 8005a3a:	849f      	strh	r7, [r3, #36]	; 0x24
 8005a3c:	f44f 7300 	mov.w	r3, #512	; 0x200
 8005a40:	2202      	movs	r2, #2
 8005a42:	4620      	mov	r0, r4
 8005a44:	f001 f8be 	bl	8006bc4 <USBD_LL_OpenEP>
 8005a48:	7831      	ldrb	r1, [r6, #0]
 8005a4a:	782b      	ldrb	r3, [r5, #0]
 8005a4c:	f001 020f 	and.w	r2, r1, #15
 8005a50:	f003 030f 	and.w	r3, r3, #15
 8005a54:	eb03 0383 	add.w	r3, r3, r3, lsl #2
 8005a58:	eb02 0282 	add.w	r2, r2, r2, lsl #2
 8005a5c:	eb04 0383 	add.w	r3, r4, r3, lsl #2
 8005a60:	eb04 0282 	add.w	r2, r4, r2, lsl #2
 8005a64:	2010      	movs	r0, #16
 8005a66:	f8a3 7164 	strh.w	r7, [r3, #356]	; 0x164
 8005a6a:	84d0      	strh	r0, [r2, #38]	; 0x26
 8005a6c:	2308      	movs	r3, #8
 8005a6e:	2203      	movs	r2, #3
 8005a70:	4620      	mov	r0, r4
 8005a72:	f001 f8a7 	bl	8006bc4 <USBD_LL_OpenEP>
 8005a76:	7833      	ldrb	r3, [r6, #0]
 8005a78:	f8d4 22bc 	ldr.w	r2, [r4, #700]	; 0x2bc
 8005a7c:	f003 030f 	and.w	r3, r3, #15
 8005a80:	eb03 0383 	add.w	r3, r3, r3, lsl #2
 8005a84:	eb04 0383 	add.w	r3, r4, r3, lsl #2
 8005a88:	2101      	movs	r1, #1
 8005a8a:	6812      	ldr	r2, [r2, #0]
 8005a8c:	8499      	strh	r1, [r3, #36]	; 0x24
 8005a8e:	2000      	movs	r0, #0
 8005a90:	4790      	blx	r2
 8005a92:	4b1a      	ldr	r3, [pc, #104]	; (8005afc <USBD_CDC_Init+0xf0>)
 8005a94:	2200      	movs	r2, #0
 8005a96:	f8c3 2214 	str.w	r2, [r3, #532]	; 0x214
 8005a9a:	f8c3 2218 	str.w	r2, [r3, #536]	; 0x218
 8005a9e:	7c22      	ldrb	r2, [r4, #16]
 8005aa0:	b9e2      	cbnz	r2, 8005adc <USBD_CDC_Init+0xd0>
 8005aa2:	f8d3 2204 	ldr.w	r2, [r3, #516]	; 0x204
 8005aa6:	7829      	ldrb	r1, [r5, #0]
 8005aa8:	f44f 7300 	mov.w	r3, #512	; 0x200
 8005aac:	4620      	mov	r0, r4
 8005aae:	f001 f8f3 	bl	8006c98 <USBD_LL_PrepareReceive>
 8005ab2:	2000      	movs	r0, #0
 8005ab4:	bdf8      	pop	{r3, r4, r5, r6, r7, pc}
 8005ab6:	7829      	ldrb	r1, [r5, #0]
 8005ab8:	4e0e      	ldr	r6, [pc, #56]	; (8005af4 <USBD_CDC_Init+0xe8>)
 8005aba:	2340      	movs	r3, #64	; 0x40
 8005abc:	2202      	movs	r2, #2
 8005abe:	f001 f881 	bl	8006bc4 <USBD_LL_OpenEP>
 8005ac2:	782b      	ldrb	r3, [r5, #0]
 8005ac4:	4d0c      	ldr	r5, [pc, #48]	; (8005af8 <USBD_CDC_Init+0xec>)
 8005ac6:	f003 030f 	and.w	r3, r3, #15
 8005aca:	eb03 0383 	add.w	r3, r3, r3, lsl #2
 8005ace:	eb04 0383 	add.w	r3, r4, r3, lsl #2
 8005ad2:	2701      	movs	r7, #1
 8005ad4:	849f      	strh	r7, [r3, #36]	; 0x24
 8005ad6:	7829      	ldrb	r1, [r5, #0]
 8005ad8:	2340      	movs	r3, #64	; 0x40
 8005ada:	e7b1      	b.n	8005a40 <USBD_CDC_Init+0x34>
 8005adc:	f8d3 2204 	ldr.w	r2, [r3, #516]	; 0x204
 8005ae0:	7829      	ldrb	r1, [r5, #0]
 8005ae2:	2340      	movs	r3, #64	; 0x40
 8005ae4:	4620      	mov	r0, r4
 8005ae6:	f001 f8d7 	bl	8006c98 <USBD_LL_PrepareReceive>
 8005aea:	2000      	movs	r0, #0
 8005aec:	bdf8      	pop	{r3, r4, r5, r6, r7, pc}
 8005aee:	bf00      	nop
 8005af0:	20002b74 	.word	0x20002b74
 8005af4:	20002b68 	.word	0x20002b68
 8005af8:	20002b78 	.word	0x20002b78
 8005afc:	2000294c 	.word	0x2000294c

08005b00 <USBD_CDC_GetOtherSpeedCfgDesc>:
 8005b00:	234b      	movs	r3, #75	; 0x4b
 8005b02:	8003      	strh	r3, [r0, #0]
 8005b04:	4800      	ldr	r0, [pc, #0]	; (8005b08 <USBD_CDC_GetOtherSpeedCfgDesc+0x8>)
 8005b06:	4770      	bx	lr
 8005b08:	200001b4 	.word	0x200001b4

08005b0c <USBD_CDC_ACM_RegisterInterface>:
 8005b0c:	b119      	cbz	r1, 8005b16 <USBD_CDC_ACM_RegisterInterface+0xa>
 8005b0e:	f8c0 12bc 	str.w	r1, [r0, #700]	; 0x2bc
 8005b12:	2000      	movs	r0, #0
 8005b14:	4770      	bx	lr
 8005b16:	2003      	movs	r0, #3
 8005b18:	4770      	bx	lr
 8005b1a:	bf00      	nop

08005b1c <USBD_CDC_SetTxBuffer>:
 8005b1c:	4905      	ldr	r1, [pc, #20]	; (8005b34 <USBD_CDC_SetTxBuffer+0x18>)
 8005b1e:	f44f 7c07 	mov.w	ip, #540	; 0x21c
 8005b22:	fb0c 1000 	mla	r0, ip, r0, r1
 8005b26:	f8c0 2208 	str.w	r2, [r0, #520]	; 0x208
 8005b2a:	f8c0 3210 	str.w	r3, [r0, #528]	; 0x210
 8005b2e:	2000      	movs	r0, #0
 8005b30:	4770      	bx	lr
 8005b32:	bf00      	nop
 8005b34:	2000294c 	.word	0x2000294c

08005b38 <USBD_CDC_SetRxBuffer>:
 8005b38:	4b04      	ldr	r3, [pc, #16]	; (8005b4c <USBD_CDC_SetRxBuffer+0x14>)
 8005b3a:	f44f 7107 	mov.w	r1, #540	; 0x21c
 8005b3e:	fb01 3000 	mla	r0, r1, r0, r3
 8005b42:	f8c0 2204 	str.w	r2, [r0, #516]	; 0x204
 8005b46:	2000      	movs	r0, #0
 8005b48:	4770      	bx	lr
 8005b4a:	bf00      	nop
 8005b4c:	2000294c 	.word	0x2000294c

08005b50 <USBD_CDC_TransmitPacket>:
 8005b50:	4a10      	ldr	r2, [pc, #64]	; (8005b94 <USBD_CDC_TransmitPacket+0x44>)
 8005b52:	f44f 7307 	mov.w	r3, #540	; 0x21c
 8005b56:	fb03 2200 	mla	r2, r3, r0, r2
 8005b5a:	b510      	push	{r4, lr}
 8005b5c:	f8d2 4214 	ldr.w	r4, [r2, #532]	; 0x214
 8005b60:	b10c      	cbz	r4, 8005b66 <USBD_CDC_TransmitPacket+0x16>
 8005b62:	2001      	movs	r0, #1
 8005b64:	bd10      	pop	{r4, pc}
 8005b66:	2301      	movs	r3, #1
 8005b68:	f8c2 3214 	str.w	r3, [r2, #532]	; 0x214
 8005b6c:	4b0a      	ldr	r3, [pc, #40]	; (8005b98 <USBD_CDC_TransmitPacket+0x48>)
 8005b6e:	468c      	mov	ip, r1
 8005b70:	5c19      	ldrb	r1, [r3, r0]
 8005b72:	f8d2 3210 	ldr.w	r3, [r2, #528]	; 0x210
 8005b76:	f8d2 2208 	ldr.w	r2, [r2, #520]	; 0x208
 8005b7a:	f001 000f 	and.w	r0, r1, #15
 8005b7e:	eb00 0080 	add.w	r0, r0, r0, lsl #2
 8005b82:	eb0c 0080 	add.w	r0, ip, r0, lsl #2
 8005b86:	6183      	str	r3, [r0, #24]
 8005b88:	4660      	mov	r0, ip
 8005b8a:	f001 f877 	bl	8006c7c <USBD_LL_Transmit>
 8005b8e:	4620      	mov	r0, r4
 8005b90:	bd10      	pop	{r4, pc}
 8005b92:	bf00      	nop
 8005b94:	2000294c 	.word	0x2000294c
 8005b98:	20002b74 	.word	0x20002b74

08005b9c <USBD_CDC_ReceivePacket>:
 8005b9c:	b508      	push	{r3, lr}
 8005b9e:	7c0a      	ldrb	r2, [r1, #16]
 8005ba0:	460b      	mov	r3, r1
 8005ba2:	b97a      	cbnz	r2, 8005bc4 <USBD_CDC_ReceivePacket+0x28>
 8005ba4:	4a0f      	ldr	r2, [pc, #60]	; (8005be4 <USBD_CDC_ReceivePacket+0x48>)
 8005ba6:	4910      	ldr	r1, [pc, #64]	; (8005be8 <USBD_CDC_ReceivePacket+0x4c>)
 8005ba8:	f44f 7c07 	mov.w	ip, #540	; 0x21c
 8005bac:	fb0c 2200 	mla	r2, ip, r0, r2
 8005bb0:	5c09      	ldrb	r1, [r1, r0]
 8005bb2:	f8d2 2204 	ldr.w	r2, [r2, #516]	; 0x204
 8005bb6:	4618      	mov	r0, r3
 8005bb8:	f44f 7300 	mov.w	r3, #512	; 0x200
 8005bbc:	f001 f86c 	bl	8006c98 <USBD_LL_PrepareReceive>
 8005bc0:	2000      	movs	r0, #0
 8005bc2:	bd08      	pop	{r3, pc}
 8005bc4:	4a07      	ldr	r2, [pc, #28]	; (8005be4 <USBD_CDC_ReceivePacket+0x48>)
 8005bc6:	4908      	ldr	r1, [pc, #32]	; (8005be8 <USBD_CDC_ReceivePacket+0x4c>)
 8005bc8:	f44f 7c07 	mov.w	ip, #540	; 0x21c
 8005bcc:	fb0c 2200 	mla	r2, ip, r0, r2
 8005bd0:	5c09      	ldrb	r1, [r1, r0]
 8005bd2:	f8d2 2204 	ldr.w	r2, [r2, #516]	; 0x204
 8005bd6:	4618      	mov	r0, r3
 8005bd8:	2340      	movs	r3, #64	; 0x40
 8005bda:	f001 f85d 	bl	8006c98 <USBD_LL_PrepareReceive>
 8005bde:	2000      	movs	r0, #0
 8005be0:	bd08      	pop	{r3, pc}
 8005be2:	bf00      	nop
 8005be4:	2000294c 	.word	0x2000294c
 8005be8:	20002b78 	.word	0x20002b78

08005bec <USBD_Update_CDC_ACM_DESC>:
 8005bec:	b410      	push	{r4}
 8005bee:	4c13      	ldr	r4, [pc, #76]	; (8005c3c <USBD_Update_CDC_ACM_DESC+0x50>)
 8005bf0:	f880 3046 	strb.w	r3, [r0, #70]	; 0x46
 8005bf4:	7023      	strb	r3, [r4, #0]
 8005bf6:	4b12      	ldr	r3, [pc, #72]	; (8005c40 <USBD_Update_CDC_ACM_DESC+0x54>)
 8005bf8:	f89d c004 	ldrb.w	ip, [sp, #4]
 8005bfc:	f883 c000 	strb.w	ip, [r3]
 8005c00:	4b10      	ldr	r3, [pc, #64]	; (8005c44 <USBD_Update_CDC_ACM_DESC+0x58>)
 8005c02:	4c11      	ldr	r4, [pc, #68]	; (8005c48 <USBD_Update_CDC_ACM_DESC+0x5c>)
 8005c04:	7019      	strb	r1, [r3, #0]
 8005c06:	4b11      	ldr	r3, [pc, #68]	; (8005c4c <USBD_Update_CDC_ACM_DESC+0x60>)
 8005c08:	72c1      	strb	r1, [r0, #11]
 8005c0a:	74c1      	strb	r1, [r0, #19]
 8005c0c:	f880 102b 	strb.w	r1, [r0, #43]	; 0x2b
 8005c10:	490f      	ldr	r1, [pc, #60]	; (8005c50 <USBD_Update_CDC_ACM_DESC+0x64>)
 8005c12:	701a      	strb	r2, [r3, #0]
 8005c14:	f880 2023 	strb.w	r2, [r0, #35]	; 0x23
 8005c18:	f89d 300c 	ldrb.w	r3, [sp, #12]
 8005c1c:	f880 202c 	strb.w	r2, [r0, #44]	; 0x2c
 8005c20:	f880 2036 	strb.w	r2, [r0, #54]	; 0x36
 8005c24:	f89d 2008 	ldrb.w	r2, [sp, #8]
 8005c28:	7022      	strb	r2, [r4, #0]
 8005c2a:	700b      	strb	r3, [r1, #0]
 8005c2c:	f85d 4b04 	ldr.w	r4, [sp], #4
 8005c30:	f880 c02f 	strb.w	ip, [r0, #47]	; 0x2f
 8005c34:	7643      	strb	r3, [r0, #25]
 8005c36:	f880 203f 	strb.w	r2, [r0, #63]	; 0x3f
 8005c3a:	4770      	bx	lr
 8005c3c:	20002b74 	.word	0x20002b74
 8005c40:	20002b68 	.word	0x20002b68
 8005c44:	20002b6c 	.word	0x20002b6c
 8005c48:	20002b78 	.word	0x20002b78
 8005c4c:	20002b70 	.word	0x20002b70
 8005c50:	20002b7c 	.word	0x20002b7c

08005c54 <USBD_COMPOSITE_Init>:
 8005c54:	b538      	push	{r3, r4, r5, lr}
 8005c56:	4b06      	ldr	r3, [pc, #24]	; (8005c70 <USBD_COMPOSITE_Init+0x1c>)
 8005c58:	681b      	ldr	r3, [r3, #0]
 8005c5a:	4604      	mov	r4, r0
 8005c5c:	460d      	mov	r5, r1
 8005c5e:	4798      	blx	r3
 8005c60:	4b04      	ldr	r3, [pc, #16]	; (8005c74 <USBD_COMPOSITE_Init+0x20>)
 8005c62:	4629      	mov	r1, r5
 8005c64:	681b      	ldr	r3, [r3, #0]
 8005c66:	4620      	mov	r0, r4
 8005c68:	4798      	blx	r3
 8005c6a:	2000      	movs	r0, #0
 8005c6c:	bd38      	pop	{r3, r4, r5, pc}
 8005c6e:	bf00      	nop
 8005c70:	20000178 	.word	0x20000178
 8005c74:	20000368 	.word	0x20000368

08005c78 <USBD_COMPOSITE_DeInit>:
 8005c78:	b538      	push	{r3, r4, r5, lr}
 8005c7a:	4b06      	ldr	r3, [pc, #24]	; (8005c94 <USBD_COMPOSITE_DeInit+0x1c>)
 8005c7c:	685b      	ldr	r3, [r3, #4]
 8005c7e:	4604      	mov	r4, r0
 8005c80:	460d      	mov	r5, r1
 8005c82:	4798      	blx	r3
 8005c84:	4b04      	ldr	r3, [pc, #16]	; (8005c98 <USBD_COMPOSITE_DeInit+0x20>)
 8005c86:	4629      	mov	r1, r5
 8005c88:	685b      	ldr	r3, [r3, #4]
 8005c8a:	4620      	mov	r0, r4
 8005c8c:	4798      	blx	r3
 8005c8e:	2000      	movs	r0, #0
 8005c90:	bd38      	pop	{r3, r4, r5, pc}
 8005c92:	bf00      	nop
 8005c94:	20000178 	.word	0x20000178
 8005c98:	20000368 	.word	0x20000368

08005c9c <USBD_COMPOSITE_EP0_RxReady>:
 8005c9c:	b508      	push	{r3, lr}
 8005c9e:	4b02      	ldr	r3, [pc, #8]	; (8005ca8 <USBD_COMPOSITE_EP0_RxReady+0xc>)
 8005ca0:	691b      	ldr	r3, [r3, #16]
 8005ca2:	4798      	blx	r3
 8005ca4:	2000      	movs	r0, #0
 8005ca6:	bd08      	pop	{r3, pc}
 8005ca8:	20000178 	.word	0x20000178

08005cac <USBD_COMPOSITE_EP0_TxReady>:
 8005cac:	2000      	movs	r0, #0
 8005cae:	4770      	bx	lr

08005cb0 <USBD_COMPOSITE_IsoINIncomplete>:
 8005cb0:	2000      	movs	r0, #0
 8005cb2:	4770      	bx	lr

08005cb4 <USBD_COMPOSITE_GetHSCfgDesc>:
 8005cb4:	2364      	movs	r3, #100	; 0x64
 8005cb6:	8003      	strh	r3, [r0, #0]
 8005cb8:	4800      	ldr	r0, [pc, #0]	; (8005cbc <USBD_COMPOSITE_GetHSCfgDesc+0x8>)
 8005cba:	4770      	bx	lr
 8005cbc:	20002be4 	.word	0x20002be4

08005cc0 <USBD_COMPOSITE_GetFSCfgDesc>:
 8005cc0:	2364      	movs	r3, #100	; 0x64
 8005cc2:	8003      	strh	r3, [r0, #0]
 8005cc4:	4800      	ldr	r0, [pc, #0]	; (8005cc8 <USBD_COMPOSITE_GetFSCfgDesc+0x8>)
 8005cc6:	4770      	bx	lr
 8005cc8:	20002b80 	.word	0x20002b80

08005ccc <USBD_COMPOSITE_GetDeviceQualifierDesc>:
 8005ccc:	230a      	movs	r3, #10
 8005cce:	8003      	strh	r3, [r0, #0]
 8005cd0:	4800      	ldr	r0, [pc, #0]	; (8005cd4 <USBD_COMPOSITE_GetDeviceQualifierDesc+0x8>)
 8005cd2:	4770      	bx	lr
 8005cd4:	20000294 	.word	0x20000294

08005cd8 <USBD_COMPOSITE_GetUsrStringDesc>:
 8005cd8:	4b15      	ldr	r3, [pc, #84]	; (8005d30 <USBD_COMPOSITE_GetUsrStringDesc+0x58>)
 8005cda:	781b      	ldrb	r3, [r3, #0]
 8005cdc:	428b      	cmp	r3, r1
 8005cde:	d31d      	bcc.n	8005d1c <USBD_COMPOSITE_GetUsrStringDesc+0x44>
 8005ce0:	b530      	push	{r4, r5, lr}
 8005ce2:	4b14      	ldr	r3, [pc, #80]	; (8005d34 <USBD_COMPOSITE_GetUsrStringDesc+0x5c>)
 8005ce4:	4614      	mov	r4, r2
 8005ce6:	781a      	ldrb	r2, [r3, #0]
 8005ce8:	b085      	sub	sp, #20
 8005cea:	2300      	movs	r3, #0
 8005cec:	428a      	cmp	r2, r1
 8005cee:	e9cd 3300 	strd	r3, r3, [sp]
 8005cf2:	e9cd 3302 	strd	r3, r3, [sp, #8]
 8005cf6:	460d      	mov	r5, r1
 8005cf8:	d109      	bne.n	8005d0e <USBD_COMPOSITE_GetUsrStringDesc+0x36>
 8005cfa:	4a0f      	ldr	r2, [pc, #60]	; (8005d38 <USBD_COMPOSITE_GetUsrStringDesc+0x60>)
 8005cfc:	2110      	movs	r1, #16
 8005cfe:	4668      	mov	r0, sp
 8005d00:	f002 ffec 	bl	8008cdc <sniprintf>
 8005d04:	490d      	ldr	r1, [pc, #52]	; (8005d3c <USBD_COMPOSITE_GetUsrStringDesc+0x64>)
 8005d06:	4622      	mov	r2, r4
 8005d08:	4668      	mov	r0, sp
 8005d0a:	f000 fe45 	bl	8006998 <USBD_GetString>
 8005d0e:	4b0c      	ldr	r3, [pc, #48]	; (8005d40 <USBD_COMPOSITE_GetUsrStringDesc+0x68>)
 8005d10:	781b      	ldrb	r3, [r3, #0]
 8005d12:	42ab      	cmp	r3, r5
 8005d14:	d004      	beq.n	8005d20 <USBD_COMPOSITE_GetUsrStringDesc+0x48>
 8005d16:	4809      	ldr	r0, [pc, #36]	; (8005d3c <USBD_COMPOSITE_GetUsrStringDesc+0x64>)
 8005d18:	b005      	add	sp, #20
 8005d1a:	bd30      	pop	{r4, r5, pc}
 8005d1c:	2000      	movs	r0, #0
 8005d1e:	4770      	bx	lr
 8005d20:	4906      	ldr	r1, [pc, #24]	; (8005d3c <USBD_COMPOSITE_GetUsrStringDesc+0x64>)
 8005d22:	4808      	ldr	r0, [pc, #32]	; (8005d44 <USBD_COMPOSITE_GetUsrStringDesc+0x6c>)
 8005d24:	4622      	mov	r2, r4
 8005d26:	f000 fe37 	bl	8006998 <USBD_GetString>
 8005d2a:	4804      	ldr	r0, [pc, #16]	; (8005d3c <USBD_COMPOSITE_GetUsrStringDesc+0x64>)
 8005d2c:	b005      	add	sp, #20
 8005d2e:	bd30      	pop	{r4, r5, pc}
 8005d30:	2000029e 	.word	0x2000029e
 8005d34:	20002b7c 	.word	0x20002b7c
 8005d38:	080097c8 	.word	0x080097c8
 8005d3c:	20002c48 	.word	0x20002c48
 8005d40:	20002c89 	.word	0x20002c89
 8005d44:	080097d8 	.word	0x080097d8

08005d48 <USBD_COMPOSITE_Setup>:
 8005d48:	b510      	push	{r4, lr}
 8005d4a:	4a10      	ldr	r2, [pc, #64]	; (8005d8c <USBD_COMPOSITE_Setup+0x44>)
 8005d4c:	f891 c004 	ldrb.w	ip, [r1, #4]
 8005d50:	f892 e000 	ldrb.w	lr, [r2]
 8005d54:	45e6      	cmp	lr, ip
 8005d56:	460b      	mov	r3, r1
 8005d58:	4602      	mov	r2, r0
 8005d5a:	d004      	beq.n	8005d66 <USBD_COMPOSITE_Setup+0x1e>
 8005d5c:	4c0c      	ldr	r4, [pc, #48]	; (8005d90 <USBD_COMPOSITE_Setup+0x48>)
 8005d5e:	f894 e000 	ldrb.w	lr, [r4]
 8005d62:	45e6      	cmp	lr, ip
 8005d64:	d106      	bne.n	8005d74 <USBD_COMPOSITE_Setup+0x2c>
 8005d66:	480b      	ldr	r0, [pc, #44]	; (8005d94 <USBD_COMPOSITE_Setup+0x4c>)
 8005d68:	4619      	mov	r1, r3
 8005d6a:	e8bd 4010 	ldmia.w	sp!, {r4, lr}
 8005d6e:	6883      	ldr	r3, [r0, #8]
 8005d70:	4610      	mov	r0, r2
 8005d72:	4718      	bx	r3
 8005d74:	4b08      	ldr	r3, [pc, #32]	; (8005d98 <USBD_COMPOSITE_Setup+0x50>)
 8005d76:	781b      	ldrb	r3, [r3, #0]
 8005d78:	4563      	cmp	r3, ip
 8005d7a:	d001      	beq.n	8005d80 <USBD_COMPOSITE_Setup+0x38>
 8005d7c:	2003      	movs	r0, #3
 8005d7e:	bd10      	pop	{r4, pc}
 8005d80:	4b06      	ldr	r3, [pc, #24]	; (8005d9c <USBD_COMPOSITE_Setup+0x54>)
 8005d82:	e8bd 4010 	ldmia.w	sp!, {r4, lr}
 8005d86:	689b      	ldr	r3, [r3, #8]
 8005d88:	4718      	bx	r3
 8005d8a:	bf00      	nop
 8005d8c:	20002b6c 	.word	0x20002b6c
 8005d90:	20002b70 	.word	0x20002b70
 8005d94:	20000178 	.word	0x20000178
 8005d98:	20002c88 	.word	0x20002c88
 8005d9c:	20000368 	.word	0x20000368

08005da0 <USBD_COMPOSITE_DataIn>:
 8005da0:	4b0e      	ldr	r3, [pc, #56]	; (8005ddc <USBD_COMPOSITE_DataIn+0x3c>)
 8005da2:	781a      	ldrb	r2, [r3, #0]
 8005da4:	f002 027f 	and.w	r2, r2, #127	; 0x7f
 8005da8:	4291      	cmp	r1, r2
 8005daa:	460b      	mov	r3, r1
 8005dac:	4684      	mov	ip, r0
 8005dae:	d005      	beq.n	8005dbc <USBD_COMPOSITE_DataIn+0x1c>
 8005db0:	4a0b      	ldr	r2, [pc, #44]	; (8005de0 <USBD_COMPOSITE_DataIn+0x40>)
 8005db2:	7812      	ldrb	r2, [r2, #0]
 8005db4:	f002 027f 	and.w	r2, r2, #127	; 0x7f
 8005db8:	4291      	cmp	r1, r2
 8005dba:	d104      	bne.n	8005dc6 <USBD_COMPOSITE_DataIn+0x26>
 8005dbc:	4a09      	ldr	r2, [pc, #36]	; (8005de4 <USBD_COMPOSITE_DataIn+0x44>)
 8005dbe:	4619      	mov	r1, r3
 8005dc0:	4660      	mov	r0, ip
 8005dc2:	6953      	ldr	r3, [r2, #20]
 8005dc4:	4718      	bx	r3
 8005dc6:	4a08      	ldr	r2, [pc, #32]	; (8005de8 <USBD_COMPOSITE_DataIn+0x48>)
 8005dc8:	7812      	ldrb	r2, [r2, #0]
 8005dca:	f002 027f 	and.w	r2, r2, #127	; 0x7f
 8005dce:	428a      	cmp	r2, r1
 8005dd0:	d001      	beq.n	8005dd6 <USBD_COMPOSITE_DataIn+0x36>
 8005dd2:	2003      	movs	r0, #3
 8005dd4:	4770      	bx	lr
 8005dd6:	4b05      	ldr	r3, [pc, #20]	; (8005dec <USBD_COMPOSITE_DataIn+0x4c>)
 8005dd8:	695b      	ldr	r3, [r3, #20]
 8005dda:	4718      	bx	r3
 8005ddc:	20002b74 	.word	0x20002b74
 8005de0:	20002b68 	.word	0x20002b68
 8005de4:	20000178 	.word	0x20000178
 8005de8:	2000029f 	.word	0x2000029f
 8005dec:	20000368 	.word	0x20000368

08005df0 <USBD_COMPOSITE_DataOut>:
 8005df0:	4b04      	ldr	r3, [pc, #16]	; (8005e04 <USBD_COMPOSITE_DataOut+0x14>)
 8005df2:	781b      	ldrb	r3, [r3, #0]
 8005df4:	428b      	cmp	r3, r1
 8005df6:	d102      	bne.n	8005dfe <USBD_COMPOSITE_DataOut+0xe>
 8005df8:	4b03      	ldr	r3, [pc, #12]	; (8005e08 <USBD_COMPOSITE_DataOut+0x18>)
 8005dfa:	699b      	ldr	r3, [r3, #24]
 8005dfc:	4718      	bx	r3
 8005dfe:	2003      	movs	r0, #3
 8005e00:	4770      	bx	lr
 8005e02:	bf00      	nop
 8005e04:	20002b78 	.word	0x20002b78
 8005e08:	20000178 	.word	0x20000178

08005e0c <USBD_COMPOSITE_IsoOutIncomplete>:
 8005e0c:	2000      	movs	r0, #0
 8005e0e:	4770      	bx	lr

08005e10 <USBD_COMPOSITE_SOF>:
 8005e10:	2000      	movs	r0, #0
 8005e12:	4770      	bx	lr

08005e14 <USBD_COMPOSITE_GetOtherSpeedCfgDesc>:
 8005e14:	2364      	movs	r3, #100	; 0x64
 8005e16:	8003      	strh	r3, [r0, #0]
 8005e18:	4800      	ldr	r0, [pc, #0]	; (8005e1c <USBD_COMPOSITE_GetOtherSpeedCfgDesc+0x8>)
 8005e1a:	4770      	bx	lr
 8005e1c:	20002be4 	.word	0x20002be4

08005e20 <USBD_COMPOSITE_Mount_Class>:
 8005e20:	e92d 47f0 	stmdb	sp!, {r4, r5, r6, r7, r8, r9, sl, lr}
 8005e24:	4f3a      	ldr	r7, [pc, #232]	; (8005f10 <USBD_COMPOSITE_Mount_Class+0xf0>)
 8005e26:	4c3b      	ldr	r4, [pc, #236]	; (8005f14 <USBD_COMPOSITE_Mount_Class+0xf4>)
 8005e28:	6afb      	ldr	r3, [r7, #44]	; 0x2c
 8005e2a:	f8df a0fc 	ldr.w	sl, [pc, #252]	; 8005f28 <USBD_COMPOSITE_Mount_Class+0x108>
 8005e2e:	b086      	sub	sp, #24
 8005e30:	2600      	movs	r6, #0
 8005e32:	f8ad 6016 	strh.w	r6, [sp, #22]
 8005e36:	f10d 0016 	add.w	r0, sp, #22
 8005e3a:	4798      	blx	r3
 8005e3c:	7823      	ldrb	r3, [r4, #0]
 8005e3e:	4605      	mov	r5, r0
 8005e40:	4631      	mov	r1, r6
 8005e42:	2281      	movs	r2, #129	; 0x81
 8005e44:	f000 f972 	bl	800612c <USBD_Update_HID_KBD_DESC>
 8005e48:	f105 0109 	add.w	r1, r5, #9
 8005e4c:	f8bd 2016 	ldrh.w	r2, [sp, #22]
 8005e50:	4d31      	ldr	r5, [pc, #196]	; (8005f18 <USBD_COMPOSITE_Mount_Class+0xf8>)
 8005e52:	3a09      	subs	r2, #9
 8005e54:	f105 0009 	add.w	r0, r5, #9
 8005e58:	f002 ff2a 	bl	8008cb0 <memcpy>
 8005e5c:	6abb      	ldr	r3, [r7, #40]	; 0x28
 8005e5e:	f10d 0016 	add.w	r0, sp, #22
 8005e62:	4798      	blx	r3
 8005e64:	7823      	ldrb	r3, [r4, #0]
 8005e66:	4631      	mov	r1, r6
 8005e68:	2281      	movs	r2, #129	; 0x81
 8005e6a:	4e2c      	ldr	r6, [pc, #176]	; (8005f1c <USBD_COMPOSITE_Mount_Class+0xfc>)
 8005e6c:	4607      	mov	r7, r0
 8005e6e:	f000 f95d 	bl	800612c <USBD_Update_HID_KBD_DESC>
 8005e72:	f8bd 2016 	ldrh.w	r2, [sp, #22]
 8005e76:	f107 0109 	add.w	r1, r7, #9
 8005e7a:	3a09      	subs	r2, #9
 8005e7c:	f106 0009 	add.w	r0, r6, #9
 8005e80:	f002 ff16 	bl	8008cb0 <memcpy>
 8005e84:	7823      	ldrb	r3, [r4, #0]
 8005e86:	3301      	adds	r3, #1
 8005e88:	7023      	strb	r3, [r4, #0]
 8005e8a:	f10d 0016 	add.w	r0, sp, #22
 8005e8e:	f8da 302c 	ldr.w	r3, [sl, #44]	; 0x2c
 8005e92:	4798      	blx	r3
 8005e94:	2701      	movs	r7, #1
 8005e96:	7823      	ldrb	r3, [r4, #0]
 8005e98:	9701      	str	r7, [sp, #4]
 8005e9a:	f04f 0983 	mov.w	r9, #131	; 0x83
 8005e9e:	9302      	str	r3, [sp, #8]
 8005ea0:	4639      	mov	r1, r7
 8005ea2:	2382      	movs	r3, #130	; 0x82
 8005ea4:	f8cd 9000 	str.w	r9, [sp]
 8005ea8:	2202      	movs	r2, #2
 8005eaa:	4680      	mov	r8, r0
 8005eac:	f7ff fe9e 	bl	8005bec <USBD_Update_CDC_ACM_DESC>
 8005eb0:	f8bd 2016 	ldrh.w	r2, [sp, #22]
 8005eb4:	f108 0109 	add.w	r1, r8, #9
 8005eb8:	3a09      	subs	r2, #9
 8005eba:	f105 0022 	add.w	r0, r5, #34	; 0x22
 8005ebe:	f002 fef7 	bl	8008cb0 <memcpy>
 8005ec2:	f8da 3028 	ldr.w	r3, [sl, #40]	; 0x28
 8005ec6:	f10d 0016 	add.w	r0, sp, #22
 8005eca:	4798      	blx	r3
 8005ecc:	7823      	ldrb	r3, [r4, #0]
 8005ece:	9302      	str	r3, [sp, #8]
 8005ed0:	e9cd 9700 	strd	r9, r7, [sp]
 8005ed4:	4639      	mov	r1, r7
 8005ed6:	2382      	movs	r3, #130	; 0x82
 8005ed8:	2202      	movs	r2, #2
 8005eda:	4607      	mov	r7, r0
 8005edc:	f7ff fe86 	bl	8005bec <USBD_Update_CDC_ACM_DESC>
 8005ee0:	f8bd 2016 	ldrh.w	r2, [sp, #22]
 8005ee4:	f107 0109 	add.w	r1, r7, #9
 8005ee8:	3a09      	subs	r2, #9
 8005eea:	f106 0022 	add.w	r0, r6, #34	; 0x22
 8005eee:	f002 fedf 	bl	8008cb0 <memcpy>
 8005ef2:	7823      	ldrb	r3, [r4, #0]
 8005ef4:	490a      	ldr	r1, [pc, #40]	; (8005f20 <USBD_COMPOSITE_Mount_Class+0x100>)
 8005ef6:	4a0b      	ldr	r2, [pc, #44]	; (8005f24 <USBD_COMPOSITE_Mount_Class+0x104>)
 8005ef8:	3301      	adds	r3, #1
 8005efa:	7023      	strb	r3, [r4, #0]
 8005efc:	2332      	movs	r3, #50	; 0x32
 8005efe:	e9c6 1200 	strd	r1, r2, [r6]
 8005f02:	e9c5 1200 	strd	r1, r2, [r5]
 8005f06:	7233      	strb	r3, [r6, #8]
 8005f08:	722b      	strb	r3, [r5, #8]
 8005f0a:	b006      	add	sp, #24
 8005f0c:	e8bd 87f0 	ldmia.w	sp!, {r4, r5, r6, r7, r8, r9, sl, pc}
 8005f10:	20000368 	.word	0x20000368
 8005f14:	2000029e 	.word	0x2000029e
 8005f18:	20002b80 	.word	0x20002b80
 8005f1c:	20002be4 	.word	0x20002be4
 8005f20:	00640209 	.word	0x00640209
 8005f24:	c0000103 	.word	0xc0000103
 8005f28:	20000178 	.word	0x20000178

08005f2c <USBD_HID_GetFSCfgDesc>:
 8005f2c:	2322      	movs	r3, #34	; 0x22
 8005f2e:	8003      	strh	r3, [r0, #0]
 8005f30:	4800      	ldr	r0, [pc, #0]	; (8005f34 <USBD_HID_GetFSCfgDesc+0x8>)
 8005f32:	4770      	bx	lr
 8005f34:	200003a4 	.word	0x200003a4

08005f38 <USBD_HID_GetHSCfgDesc>:
 8005f38:	2322      	movs	r3, #34	; 0x22
 8005f3a:	8003      	strh	r3, [r0, #0]
 8005f3c:	4800      	ldr	r0, [pc, #0]	; (8005f40 <USBD_HID_GetHSCfgDesc+0x8>)
 8005f3e:	4770      	bx	lr
 8005f40:	200003c8 	.word	0x200003c8

08005f44 <USBD_HID_DataIn>:
 8005f44:	f8d0 22d4 	ldr.w	r2, [r0, #724]	; 0x2d4
 8005f48:	2300      	movs	r3, #0
 8005f4a:	4618      	mov	r0, r3
 8005f4c:	7313      	strb	r3, [r2, #12]
 8005f4e:	4770      	bx	lr

08005f50 <USBD_HID_GetDeviceQualifierDesc>:
 8005f50:	230a      	movs	r3, #10
 8005f52:	8003      	strh	r3, [r0, #0]
 8005f54:	4800      	ldr	r0, [pc, #0]	; (8005f58 <USBD_HID_GetDeviceQualifierDesc+0x8>)
 8005f56:	4770      	bx	lr
 8005f58:	2000035c 	.word	0x2000035c

08005f5c <USBD_HID_Setup>:
 8005f5c:	b530      	push	{r4, r5, lr}
 8005f5e:	f8d0 32d4 	ldr.w	r3, [r0, #724]	; 0x2d4
 8005f62:	b083      	sub	sp, #12
 8005f64:	2200      	movs	r2, #0
 8005f66:	f8ad 2006 	strh.w	r2, [sp, #6]
 8005f6a:	2b00      	cmp	r3, #0
 8005f6c:	d059      	beq.n	8006022 <USBD_HID_Setup+0xc6>
 8005f6e:	780c      	ldrb	r4, [r1, #0]
 8005f70:	f014 0460 	ands.w	r4, r4, #96	; 0x60
 8005f74:	d022      	beq.n	8005fbc <USBD_HID_Setup+0x60>
 8005f76:	2c20      	cmp	r4, #32
 8005f78:	d005      	beq.n	8005f86 <USBD_HID_Setup+0x2a>
 8005f7a:	f000 fd01 	bl	8006980 <USBD_CtlError>
 8005f7e:	2403      	movs	r4, #3
 8005f80:	4620      	mov	r0, r4
 8005f82:	b003      	add	sp, #12
 8005f84:	bd30      	pop	{r4, r5, pc}
 8005f86:	784a      	ldrb	r2, [r1, #1]
 8005f88:	3a02      	subs	r2, #2
 8005f8a:	2a09      	cmp	r2, #9
 8005f8c:	d8f5      	bhi.n	8005f7a <USBD_HID_Setup+0x1e>
 8005f8e:	a401      	add	r4, pc, #4	; (adr r4, 8005f94 <USBD_HID_Setup+0x38>)
 8005f90:	f854 f022 	ldr.w	pc, [r4, r2, lsl #2]
 8005f94:	08006017 	.word	0x08006017
 8005f98:	0800600b 	.word	0x0800600b
 8005f9c:	08005f7b 	.word	0x08005f7b
 8005fa0:	08005f7b 	.word	0x08005f7b
 8005fa4:	08005f7b 	.word	0x08005f7b
 8005fa8:	08005f7b 	.word	0x08005f7b
 8005fac:	08005f7b 	.word	0x08005f7b
 8005fb0:	08005f7b 	.word	0x08005f7b
 8005fb4:	08006001 	.word	0x08006001
 8005fb8:	08005ff9 	.word	0x08005ff9
 8005fbc:	784d      	ldrb	r5, [r1, #1]
 8005fbe:	2d0b      	cmp	r5, #11
 8005fc0:	d8db      	bhi.n	8005f7a <USBD_HID_Setup+0x1e>
 8005fc2:	a201      	add	r2, pc, #4	; (adr r2, 8005fc8 <USBD_HID_Setup+0x6c>)
 8005fc4:	f852 f025 	ldr.w	pc, [r2, r5, lsl #2]
 8005fc8:	08006039 	.word	0x08006039
 8005fcc:	08005f81 	.word	0x08005f81
 8005fd0:	08005f7b 	.word	0x08005f7b
 8005fd4:	08005f7b 	.word	0x08005f7b
 8005fd8:	08005f7b 	.word	0x08005f7b
 8005fdc:	08005f7b 	.word	0x08005f7b
 8005fe0:	0800604f 	.word	0x0800604f
 8005fe4:	08005f7b 	.word	0x08005f7b
 8005fe8:	08005f7b 	.word	0x08005f7b
 8005fec:	08005f7b 	.word	0x08005f7b
 8005ff0:	0800606b 	.word	0x0800606b
 8005ff4:	0800602b 	.word	0x0800602b
 8005ff8:	788a      	ldrb	r2, [r1, #2]
 8005ffa:	601a      	str	r2, [r3, #0]
 8005ffc:	2400      	movs	r4, #0
 8005ffe:	e7bf      	b.n	8005f80 <USBD_HID_Setup+0x24>
 8006000:	884a      	ldrh	r2, [r1, #2]
 8006002:	0a12      	lsrs	r2, r2, #8
 8006004:	2400      	movs	r4, #0
 8006006:	605a      	str	r2, [r3, #4]
 8006008:	e7ba      	b.n	8005f80 <USBD_HID_Setup+0x24>
 800600a:	2201      	movs	r2, #1
 800600c:	4619      	mov	r1, r3
 800600e:	f000 fced 	bl	80069ec <USBD_CtlSendData>
 8006012:	2400      	movs	r4, #0
 8006014:	e7b4      	b.n	8005f80 <USBD_HID_Setup+0x24>
 8006016:	2201      	movs	r2, #1
 8006018:	1d19      	adds	r1, r3, #4
 800601a:	f000 fce7 	bl	80069ec <USBD_CtlSendData>
 800601e:	2400      	movs	r4, #0
 8006020:	e7ae      	b.n	8005f80 <USBD_HID_Setup+0x24>
 8006022:	2403      	movs	r4, #3
 8006024:	4620      	mov	r0, r4
 8006026:	b003      	add	sp, #12
 8006028:	bd30      	pop	{r4, r5, pc}
 800602a:	f890 229c 	ldrb.w	r2, [r0, #668]	; 0x29c
 800602e:	2a03      	cmp	r2, #3
 8006030:	d1a3      	bne.n	8005f7a <USBD_HID_Setup+0x1e>
 8006032:	788a      	ldrb	r2, [r1, #2]
 8006034:	609a      	str	r2, [r3, #8]
 8006036:	e7a3      	b.n	8005f80 <USBD_HID_Setup+0x24>
 8006038:	f890 329c 	ldrb.w	r3, [r0, #668]	; 0x29c
 800603c:	2b03      	cmp	r3, #3
 800603e:	d19c      	bne.n	8005f7a <USBD_HID_Setup+0x1e>
 8006040:	2202      	movs	r2, #2
 8006042:	f10d 0106 	add.w	r1, sp, #6
 8006046:	f000 fcd1 	bl	80069ec <USBD_CtlSendData>
 800604a:	462c      	mov	r4, r5
 800604c:	e798      	b.n	8005f80 <USBD_HID_Setup+0x24>
 800604e:	884b      	ldrh	r3, [r1, #2]
 8006050:	0a1b      	lsrs	r3, r3, #8
 8006052:	2b22      	cmp	r3, #34	; 0x22
 8006054:	d011      	beq.n	800607a <USBD_HID_Setup+0x11e>
 8006056:	2b21      	cmp	r3, #33	; 0x21
 8006058:	d18f      	bne.n	8005f7a <USBD_HID_Setup+0x1e>
 800605a:	88ca      	ldrh	r2, [r1, #6]
 800605c:	490a      	ldr	r1, [pc, #40]	; (8006088 <USBD_HID_Setup+0x12c>)
 800605e:	2a09      	cmp	r2, #9
 8006060:	bf28      	it	cs
 8006062:	2209      	movcs	r2, #9
 8006064:	f000 fcc2 	bl	80069ec <USBD_CtlSendData>
 8006068:	e78a      	b.n	8005f80 <USBD_HID_Setup+0x24>
 800606a:	f890 229c 	ldrb.w	r2, [r0, #668]	; 0x29c
 800606e:	2a03      	cmp	r2, #3
 8006070:	d183      	bne.n	8005f7a <USBD_HID_Setup+0x1e>
 8006072:	2201      	movs	r2, #1
 8006074:	f103 0108 	add.w	r1, r3, #8
 8006078:	e7f4      	b.n	8006064 <USBD_HID_Setup+0x108>
 800607a:	88ca      	ldrh	r2, [r1, #6]
 800607c:	4903      	ldr	r1, [pc, #12]	; (800608c <USBD_HID_Setup+0x130>)
 800607e:	2abb      	cmp	r2, #187	; 0xbb
 8006080:	bf28      	it	cs
 8006082:	22bb      	movcs	r2, #187	; 0xbb
 8006084:	e7ee      	b.n	8006064 <USBD_HID_Setup+0x108>
 8006086:	bf00      	nop
 8006088:	200003ec 	.word	0x200003ec
 800608c:	200002a0 	.word	0x200002a0

08006090 <USBD_HID_DeInit>:
 8006090:	b538      	push	{r3, r4, r5, lr}
 8006092:	4d0a      	ldr	r5, [pc, #40]	; (80060bc <USBD_HID_DeInit+0x2c>)
 8006094:	7829      	ldrb	r1, [r5, #0]
 8006096:	4604      	mov	r4, r0
 8006098:	f000 fda4 	bl	8006be4 <USBD_LL_CloseEP>
 800609c:	782b      	ldrb	r3, [r5, #0]
 800609e:	f8d4 12d4 	ldr.w	r1, [r4, #724]	; 0x2d4
 80060a2:	f003 030f 	and.w	r3, r3, #15
 80060a6:	eb03 0383 	add.w	r3, r3, r3, lsl #2
 80060aa:	eb04 0383 	add.w	r3, r4, r3, lsl #2
 80060ae:	2200      	movs	r2, #0
 80060b0:	625a      	str	r2, [r3, #36]	; 0x24
 80060b2:	b109      	cbz	r1, 80060b8 <USBD_HID_DeInit+0x28>
 80060b4:	f8c4 22d4 	str.w	r2, [r4, #724]	; 0x2d4
 80060b8:	2000      	movs	r0, #0
 80060ba:	bd38      	pop	{r3, r4, r5, pc}
 80060bc:	2000029f 	.word	0x2000029f

080060c0 <USBD_HID_Init>:
 80060c0:	b570      	push	{r4, r5, r6, lr}
 80060c2:	4e15      	ldr	r6, [pc, #84]	; (8006118 <USBD_HID_Init+0x58>)
 80060c4:	7c03      	ldrb	r3, [r0, #16]
 80060c6:	4d15      	ldr	r5, [pc, #84]	; (800611c <USBD_HID_Init+0x5c>)
 80060c8:	7831      	ldrb	r1, [r6, #0]
 80060ca:	f8c0 52d4 	str.w	r5, [r0, #724]	; 0x2d4
 80060ce:	4604      	mov	r4, r0
 80060d0:	b9c3      	cbnz	r3, 8006104 <USBD_HID_Init+0x44>
 80060d2:	f001 030f 	and.w	r3, r1, #15
 80060d6:	eb03 0383 	add.w	r3, r3, r3, lsl #2
 80060da:	eb00 0383 	add.w	r3, r0, r3, lsl #2
 80060de:	2207      	movs	r2, #7
 80060e0:	84da      	strh	r2, [r3, #38]	; 0x26
 80060e2:	2308      	movs	r3, #8
 80060e4:	2203      	movs	r2, #3
 80060e6:	4620      	mov	r0, r4
 80060e8:	f000 fd6c 	bl	8006bc4 <USBD_LL_OpenEP>
 80060ec:	7833      	ldrb	r3, [r6, #0]
 80060ee:	f003 030f 	and.w	r3, r3, #15
 80060f2:	eb03 0383 	add.w	r3, r3, r3, lsl #2
 80060f6:	eb04 0483 	add.w	r4, r4, r3, lsl #2
 80060fa:	2000      	movs	r0, #0
 80060fc:	2301      	movs	r3, #1
 80060fe:	84a3      	strh	r3, [r4, #36]	; 0x24
 8006100:	7328      	strb	r0, [r5, #12]
 8006102:	bd70      	pop	{r4, r5, r6, pc}
 8006104:	f001 030f 	and.w	r3, r1, #15
 8006108:	eb03 0383 	add.w	r3, r3, r3, lsl #2
 800610c:	eb00 0383 	add.w	r3, r0, r3, lsl #2
 8006110:	220a      	movs	r2, #10
 8006112:	84da      	strh	r2, [r3, #38]	; 0x26
 8006114:	e7e5      	b.n	80060e2 <USBD_HID_Init+0x22>
 8006116:	bf00      	nop
 8006118:	2000029f 	.word	0x2000029f
 800611c:	20002c8c 	.word	0x20002c8c

08006120 <USBD_HID_GetOtherSpeedCfgDesc>:
 8006120:	2322      	movs	r3, #34	; 0x22
 8006122:	8003      	strh	r3, [r0, #0]
 8006124:	4800      	ldr	r0, [pc, #0]	; (8006128 <USBD_HID_GetOtherSpeedCfgDesc+0x8>)
 8006126:	4770      	bx	lr
 8006128:	200003a4 	.word	0x200003a4

0800612c <USBD_Update_HID_KBD_DESC>:
 800612c:	b410      	push	{r4}
 800612e:	4c06      	ldr	r4, [pc, #24]	; (8006148 <USBD_Update_HID_KBD_DESC+0x1c>)
 8006130:	7742      	strb	r2, [r0, #29]
 8006132:	72c1      	strb	r1, [r0, #11]
 8006134:	7443      	strb	r3, [r0, #17]
 8006136:	7022      	strb	r2, [r4, #0]
 8006138:	4804      	ldr	r0, [pc, #16]	; (800614c <USBD_Update_HID_KBD_DESC+0x20>)
 800613a:	4a05      	ldr	r2, [pc, #20]	; (8006150 <USBD_Update_HID_KBD_DESC+0x24>)
 800613c:	7001      	strb	r1, [r0, #0]
 800613e:	7013      	strb	r3, [r2, #0]
 8006140:	f85d 4b04 	ldr.w	r4, [sp], #4
 8006144:	4770      	bx	lr
 8006146:	bf00      	nop
 8006148:	2000029f 	.word	0x2000029f
 800614c:	20002c88 	.word	0x20002c88
 8006150:	20002c89 	.word	0x20002c89

08006154 <USBD_Init>:
 8006154:	b168      	cbz	r0, 8006172 <USBD_Init+0x1e>
 8006156:	2300      	movs	r3, #0
 8006158:	f8c0 32b8 	str.w	r3, [r0, #696]	; 0x2b8
 800615c:	f8c0 3318 	str.w	r3, [r0, #792]	; 0x318
 8006160:	b109      	cbz	r1, 8006166 <USBD_Init+0x12>
 8006162:	f8c0 12b4 	str.w	r1, [r0, #692]	; 0x2b4
 8006166:	2301      	movs	r3, #1
 8006168:	f880 329c 	strb.w	r3, [r0, #668]	; 0x29c
 800616c:	7002      	strb	r2, [r0, #0]
 800616e:	f000 bce1 	b.w	8006b34 <USBD_LL_Init>
 8006172:	2003      	movs	r0, #3
 8006174:	4770      	bx	lr
 8006176:	bf00      	nop

08006178 <USBD_RegisterClass>:
 8006178:	b570      	push	{r4, r5, r6, lr}
 800617a:	b082      	sub	sp, #8
 800617c:	2600      	movs	r6, #0
 800617e:	f8ad 6006 	strh.w	r6, [sp, #6]
 8006182:	b1d1      	cbz	r1, 80061ba <USBD_RegisterClass+0x42>
 8006184:	7c05      	ldrb	r5, [r0, #16]
 8006186:	f8c0 12b8 	str.w	r1, [r0, #696]	; 0x2b8
 800618a:	4604      	mov	r4, r0
 800618c:	b155      	cbz	r5, 80061a4 <USBD_RegisterClass+0x2c>
 800618e:	6acd      	ldr	r5, [r1, #44]	; 0x2c
 8006190:	b12d      	cbz	r5, 800619e <USBD_RegisterClass+0x26>
 8006192:	f10d 0006 	add.w	r0, sp, #6
 8006196:	47a8      	blx	r5
 8006198:	4635      	mov	r5, r6
 800619a:	f8c4 0318 	str.w	r0, [r4, #792]	; 0x318
 800619e:	4628      	mov	r0, r5
 80061a0:	b002      	add	sp, #8
 80061a2:	bd70      	pop	{r4, r5, r6, pc}
 80061a4:	6a8b      	ldr	r3, [r1, #40]	; 0x28
 80061a6:	2b00      	cmp	r3, #0
 80061a8:	d0f9      	beq.n	800619e <USBD_RegisterClass+0x26>
 80061aa:	f10d 0006 	add.w	r0, sp, #6
 80061ae:	4798      	blx	r3
 80061b0:	f8c4 0318 	str.w	r0, [r4, #792]	; 0x318
 80061b4:	4628      	mov	r0, r5
 80061b6:	b002      	add	sp, #8
 80061b8:	bd70      	pop	{r4, r5, r6, pc}
 80061ba:	2503      	movs	r5, #3
 80061bc:	4628      	mov	r0, r5
 80061be:	b002      	add	sp, #8
 80061c0:	bd70      	pop	{r4, r5, r6, pc}
 80061c2:	bf00      	nop

080061c4 <USBD_Start>:
 80061c4:	f000 bcf0 	b.w	8006ba8 <USBD_LL_Start>

080061c8 <USBD_SetClassConfig>:
 80061c8:	f8d0 32b8 	ldr.w	r3, [r0, #696]	; 0x2b8
 80061cc:	b10b      	cbz	r3, 80061d2 <USBD_SetClassConfig+0xa>
 80061ce:	681b      	ldr	r3, [r3, #0]
 80061d0:	4718      	bx	r3
 80061d2:	2003      	movs	r0, #3
 80061d4:	4770      	bx	lr
 80061d6:	bf00      	nop

080061d8 <USBD_ClrClassConfig>:
 80061d8:	b508      	push	{r3, lr}
 80061da:	f8d0 32b8 	ldr.w	r3, [r0, #696]	; 0x2b8
 80061de:	b10b      	cbz	r3, 80061e4 <USBD_ClrClassConfig+0xc>
 80061e0:	685b      	ldr	r3, [r3, #4]
 80061e2:	4798      	blx	r3
 80061e4:	2000      	movs	r0, #0
 80061e6:	bd08      	pop	{r3, pc}

080061e8 <USBD_LL_SetupStage>:
 80061e8:	b538      	push	{r3, r4, r5, lr}
 80061ea:	4604      	mov	r4, r0
 80061ec:	f200 25aa 	addw	r5, r0, #682	; 0x2aa
 80061f0:	4628      	mov	r0, r5
 80061f2:	f000 fbb9 	bl	8006968 <USBD_ParseSetupRequest>
 80061f6:	f894 12aa 	ldrb.w	r1, [r4, #682]	; 0x2aa
 80061fa:	f8b4 22b0 	ldrh.w	r2, [r4, #688]	; 0x2b0
 80061fe:	f8c4 2298 	str.w	r2, [r4, #664]	; 0x298
 8006202:	2301      	movs	r3, #1
 8006204:	f8c4 3294 	str.w	r3, [r4, #660]	; 0x294
 8006208:	f001 031f 	and.w	r3, r1, #31
 800620c:	2b01      	cmp	r3, #1
 800620e:	d009      	beq.n	8006224 <USBD_LL_SetupStage+0x3c>
 8006210:	2b02      	cmp	r3, #2
 8006212:	d013      	beq.n	800623c <USBD_LL_SetupStage+0x54>
 8006214:	b163      	cbz	r3, 8006230 <USBD_LL_SetupStage+0x48>
 8006216:	4620      	mov	r0, r4
 8006218:	f001 0180 	and.w	r1, r1, #128	; 0x80
 800621c:	e8bd 4038 	ldmia.w	sp!, {r3, r4, r5, lr}
 8006220:	f000 bcee 	b.w	8006c00 <USBD_LL_StallEP>
 8006224:	4629      	mov	r1, r5
 8006226:	4620      	mov	r0, r4
 8006228:	e8bd 4038 	ldmia.w	sp!, {r3, r4, r5, lr}
 800622c:	f000 bad2 	b.w	80067d4 <USBD_StdItfReq>
 8006230:	4629      	mov	r1, r5
 8006232:	4620      	mov	r0, r4
 8006234:	e8bd 4038 	ldmia.w	sp!, {r3, r4, r5, lr}
 8006238:	f000 b922 	b.w	8006480 <USBD_StdDevReq>
 800623c:	4629      	mov	r1, r5
 800623e:	4620      	mov	r0, r4
 8006240:	e8bd 4038 	ldmia.w	sp!, {r3, r4, r5, lr}
 8006244:	f000 baf6 	b.w	8006834 <USBD_StdEPReq>

08006248 <USBD_LL_DataOutStage>:
 8006248:	b510      	push	{r4, lr}
 800624a:	4604      	mov	r4, r0
 800624c:	b931      	cbnz	r1, 800625c <USBD_LL_DataOutStage+0x14>
 800624e:	4613      	mov	r3, r2
 8006250:	f8d0 2294 	ldr.w	r2, [r0, #660]	; 0x294
 8006254:	2a03      	cmp	r2, #3
 8006256:	d00d      	beq.n	8006274 <USBD_LL_DataOutStage+0x2c>
 8006258:	2000      	movs	r0, #0
 800625a:	bd10      	pop	{r4, pc}
 800625c:	f890 329c 	ldrb.w	r3, [r0, #668]	; 0x29c
 8006260:	2b03      	cmp	r3, #3
 8006262:	d1f9      	bne.n	8006258 <USBD_LL_DataOutStage+0x10>
 8006264:	f8d0 32b8 	ldr.w	r3, [r0, #696]	; 0x2b8
 8006268:	699b      	ldr	r3, [r3, #24]
 800626a:	2b00      	cmp	r3, #0
 800626c:	d0f4      	beq.n	8006258 <USBD_LL_DataOutStage+0x10>
 800626e:	e8bd 4010 	ldmia.w	sp!, {r4, lr}
 8006272:	4718      	bx	r3
 8006274:	e9d0 1257 	ldrd	r1, r2, [r0, #348]	; 0x15c
 8006278:	4291      	cmp	r1, r2
 800627a:	d808      	bhi.n	800628e <USBD_LL_DataOutStage+0x46>
 800627c:	f890 329c 	ldrb.w	r3, [r0, #668]	; 0x29c
 8006280:	2b03      	cmp	r3, #3
 8006282:	d00e      	beq.n	80062a2 <USBD_LL_DataOutStage+0x5a>
 8006284:	4620      	mov	r0, r4
 8006286:	f000 fbdd 	bl	8006a44 <USBD_CtlSendStatus>
 800628a:	2000      	movs	r0, #0
 800628c:	bd10      	pop	{r4, pc}
 800628e:	1a89      	subs	r1, r1, r2
 8006290:	428a      	cmp	r2, r1
 8006292:	bf28      	it	cs
 8006294:	460a      	movcs	r2, r1
 8006296:	f8c0 115c 	str.w	r1, [r0, #348]	; 0x15c
 800629a:	4619      	mov	r1, r3
 800629c:	f000 fbca 	bl	8006a34 <USBD_CtlContinueRx>
 80062a0:	e7da      	b.n	8006258 <USBD_LL_DataOutStage+0x10>
 80062a2:	f8d0 32b8 	ldr.w	r3, [r0, #696]	; 0x2b8
 80062a6:	691b      	ldr	r3, [r3, #16]
 80062a8:	2b00      	cmp	r3, #0
 80062aa:	d0eb      	beq.n	8006284 <USBD_LL_DataOutStage+0x3c>
 80062ac:	4798      	blx	r3
 80062ae:	e7e9      	b.n	8006284 <USBD_LL_DataOutStage+0x3c>

080062b0 <USBD_LL_DataInStage>:
 80062b0:	b570      	push	{r4, r5, r6, lr}
 80062b2:	4604      	mov	r4, r0
 80062b4:	b951      	cbnz	r1, 80062cc <USBD_LL_DataInStage+0x1c>
 80062b6:	4613      	mov	r3, r2
 80062b8:	f8d0 2294 	ldr.w	r2, [r0, #660]	; 0x294
 80062bc:	2a02      	cmp	r2, #2
 80062be:	d011      	beq.n	80062e4 <USBD_LL_DataInStage+0x34>
 80062c0:	f894 32a0 	ldrb.w	r3, [r4, #672]	; 0x2a0
 80062c4:	2b01      	cmp	r3, #1
 80062c6:	d022      	beq.n	800630e <USBD_LL_DataInStage+0x5e>
 80062c8:	2000      	movs	r0, #0
 80062ca:	bd70      	pop	{r4, r5, r6, pc}
 80062cc:	f890 329c 	ldrb.w	r3, [r0, #668]	; 0x29c
 80062d0:	2b03      	cmp	r3, #3
 80062d2:	d1f9      	bne.n	80062c8 <USBD_LL_DataInStage+0x18>
 80062d4:	f8d0 32b8 	ldr.w	r3, [r0, #696]	; 0x2b8
 80062d8:	695b      	ldr	r3, [r3, #20]
 80062da:	2b00      	cmp	r3, #0
 80062dc:	d0f4      	beq.n	80062c8 <USBD_LL_DataInStage+0x18>
 80062de:	e8bd 4070 	ldmia.w	sp!, {r4, r5, r6, lr}
 80062e2:	4718      	bx	r3
 80062e4:	e9d0 2607 	ldrd	r2, r6, [r0, #28]
 80062e8:	42b2      	cmp	r2, r6
 80062ea:	460d      	mov	r5, r1
 80062ec:	d814      	bhi.n	8006318 <USBD_LL_DataInStage+0x68>
 80062ee:	d01f      	beq.n	8006330 <USBD_LL_DataInStage+0x80>
 80062f0:	f894 329c 	ldrb.w	r3, [r4, #668]	; 0x29c
 80062f4:	2b03      	cmp	r3, #3
 80062f6:	d028      	beq.n	800634a <USBD_LL_DataInStage+0x9a>
 80062f8:	2180      	movs	r1, #128	; 0x80
 80062fa:	4620      	mov	r0, r4
 80062fc:	f000 fc80 	bl	8006c00 <USBD_LL_StallEP>
 8006300:	4620      	mov	r0, r4
 8006302:	f000 fbab 	bl	8006a5c <USBD_CtlReceiveStatus>
 8006306:	f894 32a0 	ldrb.w	r3, [r4, #672]	; 0x2a0
 800630a:	2b01      	cmp	r3, #1
 800630c:	d1dc      	bne.n	80062c8 <USBD_LL_DataInStage+0x18>
 800630e:	2300      	movs	r3, #0
 8006310:	f884 32a0 	strb.w	r3, [r4, #672]	; 0x2a0
 8006314:	2000      	movs	r0, #0
 8006316:	bd70      	pop	{r4, r5, r6, pc}
 8006318:	1b92      	subs	r2, r2, r6
 800631a:	61c2      	str	r2, [r0, #28]
 800631c:	4619      	mov	r1, r3
 800631e:	f000 fb73 	bl	8006a08 <USBD_CtlContinueSendData>
 8006322:	462b      	mov	r3, r5
 8006324:	462a      	mov	r2, r5
 8006326:	4629      	mov	r1, r5
 8006328:	4620      	mov	r0, r4
 800632a:	f000 fcb5 	bl	8006c98 <USBD_LL_PrepareReceive>
 800632e:	e7c7      	b.n	80062c0 <USBD_LL_DataInStage+0x10>
 8006330:	6983      	ldr	r3, [r0, #24]
 8006332:	429a      	cmp	r2, r3
 8006334:	d8dc      	bhi.n	80062f0 <USBD_LL_DataInStage+0x40>
 8006336:	f8d0 2298 	ldr.w	r2, [r0, #664]	; 0x298
 800633a:	4293      	cmp	r3, r2
 800633c:	d2d8      	bcs.n	80062f0 <USBD_LL_DataInStage+0x40>
 800633e:	460a      	mov	r2, r1
 8006340:	f000 fb62 	bl	8006a08 <USBD_CtlContinueSendData>
 8006344:	f8c4 5298 	str.w	r5, [r4, #664]	; 0x298
 8006348:	e7eb      	b.n	8006322 <USBD_LL_DataInStage+0x72>
 800634a:	f8d4 32b8 	ldr.w	r3, [r4, #696]	; 0x2b8
 800634e:	68db      	ldr	r3, [r3, #12]
 8006350:	2b00      	cmp	r3, #0
 8006352:	d0d1      	beq.n	80062f8 <USBD_LL_DataInStage+0x48>
 8006354:	4620      	mov	r0, r4
 8006356:	4798      	blx	r3
 8006358:	e7ce      	b.n	80062f8 <USBD_LL_DataInStage+0x48>
 800635a:	bf00      	nop

0800635c <USBD_LL_Reset>:
 800635c:	f8d0 32b8 	ldr.w	r3, [r0, #696]	; 0x2b8
 8006360:	2100      	movs	r1, #0
 8006362:	2201      	movs	r2, #1
 8006364:	f880 229c 	strb.w	r2, [r0, #668]	; 0x29c
 8006368:	6041      	str	r1, [r0, #4]
 800636a:	f8c0 1294 	str.w	r1, [r0, #660]	; 0x294
 800636e:	f8c0 12a4 	str.w	r1, [r0, #676]	; 0x2a4
 8006372:	b1d3      	cbz	r3, 80063aa <USBD_LL_Reset+0x4e>
 8006374:	685b      	ldr	r3, [r3, #4]
 8006376:	b570      	push	{r4, r5, r6, lr}
 8006378:	4604      	mov	r4, r0
 800637a:	b103      	cbz	r3, 800637e <USBD_LL_Reset+0x22>
 800637c:	4798      	blx	r3
 800637e:	2540      	movs	r5, #64	; 0x40
 8006380:	2200      	movs	r2, #0
 8006382:	4611      	mov	r1, r2
 8006384:	462b      	mov	r3, r5
 8006386:	2601      	movs	r6, #1
 8006388:	4620      	mov	r0, r4
 800638a:	f000 fc1b 	bl	8006bc4 <USBD_LL_OpenEP>
 800638e:	f8a4 6164 	strh.w	r6, [r4, #356]	; 0x164
 8006392:	f8c4 5160 	str.w	r5, [r4, #352]	; 0x160
 8006396:	462b      	mov	r3, r5
 8006398:	2200      	movs	r2, #0
 800639a:	2180      	movs	r1, #128	; 0x80
 800639c:	4620      	mov	r0, r4
 800639e:	f000 fc11 	bl	8006bc4 <USBD_LL_OpenEP>
 80063a2:	84a6      	strh	r6, [r4, #36]	; 0x24
 80063a4:	6225      	str	r5, [r4, #32]
 80063a6:	2000      	movs	r0, #0
 80063a8:	bd70      	pop	{r4, r5, r6, pc}
 80063aa:	2003      	movs	r0, #3
 80063ac:	4770      	bx	lr
 80063ae:	bf00      	nop

080063b0 <USBD_LL_SetSpeed>:
 80063b0:	7401      	strb	r1, [r0, #16]
 80063b2:	2000      	movs	r0, #0
 80063b4:	4770      	bx	lr
 80063b6:	bf00      	nop

080063b8 <USBD_LL_Suspend>:
 80063b8:	f890 229c 	ldrb.w	r2, [r0, #668]	; 0x29c
 80063bc:	4603      	mov	r3, r0
 80063be:	2104      	movs	r1, #4
 80063c0:	b2d2      	uxtb	r2, r2
 80063c2:	f883 229d 	strb.w	r2, [r3, #669]	; 0x29d
 80063c6:	2000      	movs	r0, #0
 80063c8:	f883 129c 	strb.w	r1, [r3, #668]	; 0x29c
 80063cc:	4770      	bx	lr
 80063ce:	bf00      	nop

080063d0 <USBD_LL_Resume>:
 80063d0:	f890 329c 	ldrb.w	r3, [r0, #668]	; 0x29c
 80063d4:	2b04      	cmp	r3, #4
 80063d6:	d104      	bne.n	80063e2 <USBD_LL_Resume+0x12>
 80063d8:	f890 329d 	ldrb.w	r3, [r0, #669]	; 0x29d
 80063dc:	b2db      	uxtb	r3, r3
 80063de:	f880 329c 	strb.w	r3, [r0, #668]	; 0x29c
 80063e2:	2000      	movs	r0, #0
 80063e4:	4770      	bx	lr
 80063e6:	bf00      	nop

080063e8 <USBD_LL_SOF>:
 80063e8:	f8d0 22b8 	ldr.w	r2, [r0, #696]	; 0x2b8
 80063ec:	b15a      	cbz	r2, 8006406 <USBD_LL_SOF+0x1e>
 80063ee:	b508      	push	{r3, lr}
 80063f0:	f890 329c 	ldrb.w	r3, [r0, #668]	; 0x29c
 80063f4:	2b03      	cmp	r3, #3
 80063f6:	d001      	beq.n	80063fc <USBD_LL_SOF+0x14>
 80063f8:	2000      	movs	r0, #0
 80063fa:	bd08      	pop	{r3, pc}
 80063fc:	69d3      	ldr	r3, [r2, #28]
 80063fe:	b123      	cbz	r3, 800640a <USBD_LL_SOF+0x22>
 8006400:	4798      	blx	r3
 8006402:	2000      	movs	r0, #0
 8006404:	bd08      	pop	{r3, pc}
 8006406:	2003      	movs	r0, #3
 8006408:	4770      	bx	lr
 800640a:	4618      	mov	r0, r3
 800640c:	bd08      	pop	{r3, pc}
 800640e:	bf00      	nop

08006410 <USBD_LL_IsoINIncomplete>:
 8006410:	f8d0 22b8 	ldr.w	r2, [r0, #696]	; 0x2b8
 8006414:	b15a      	cbz	r2, 800642e <USBD_LL_IsoINIncomplete+0x1e>
 8006416:	b508      	push	{r3, lr}
 8006418:	f890 329c 	ldrb.w	r3, [r0, #668]	; 0x29c
 800641c:	2b03      	cmp	r3, #3
 800641e:	d001      	beq.n	8006424 <USBD_LL_IsoINIncomplete+0x14>
 8006420:	2000      	movs	r0, #0
 8006422:	bd08      	pop	{r3, pc}
 8006424:	6a13      	ldr	r3, [r2, #32]
 8006426:	b123      	cbz	r3, 8006432 <USBD_LL_IsoINIncomplete+0x22>
 8006428:	4798      	blx	r3
 800642a:	2000      	movs	r0, #0
 800642c:	bd08      	pop	{r3, pc}
 800642e:	2003      	movs	r0, #3
 8006430:	4770      	bx	lr
 8006432:	4618      	mov	r0, r3
 8006434:	bd08      	pop	{r3, pc}
 8006436:	bf00      	nop

08006438 <USBD_LL_IsoOUTIncomplete>:
 8006438:	f8d0 22b8 	ldr.w	r2, [r0, #696]	; 0x2b8
 800643c:	b15a      	cbz	r2, 8006456 <USBD_LL_IsoOUTIncomplete+0x1e>
 800643e:	b508      	push	{r3, lr}
 8006440:	f890 329c 	ldrb.w	r3, [r0, #668]	; 0x29c
 8006444:	2b03      	cmp	r3, #3
 8006446:	d001      	beq.n	800644c <USBD_LL_IsoOUTIncomplete+0x14>
 8006448:	2000      	movs	r0, #0
 800644a:	bd08      	pop	{r3, pc}
 800644c:	6a53      	ldr	r3, [r2, #36]	; 0x24
 800644e:	b123      	cbz	r3, 800645a <USBD_LL_IsoOUTIncomplete+0x22>
 8006450:	4798      	blx	r3
 8006452:	2000      	movs	r0, #0
 8006454:	bd08      	pop	{r3, pc}
 8006456:	2003      	movs	r0, #3
 8006458:	4770      	bx	lr
 800645a:	4618      	mov	r0, r3
 800645c:	bd08      	pop	{r3, pc}
 800645e:	bf00      	nop

08006460 <USBD_LL_DevConnected>:
 8006460:	2000      	movs	r0, #0
 8006462:	4770      	bx	lr

08006464 <USBD_LL_DevDisconnected>:
 8006464:	f8d0 22b8 	ldr.w	r2, [r0, #696]	; 0x2b8
 8006468:	2101      	movs	r1, #1
 800646a:	f880 129c 	strb.w	r1, [r0, #668]	; 0x29c
 800646e:	b12a      	cbz	r2, 800647c <USBD_LL_DevDisconnected+0x18>
 8006470:	b508      	push	{r3, lr}
 8006472:	6852      	ldr	r2, [r2, #4]
 8006474:	7901      	ldrb	r1, [r0, #4]
 8006476:	4790      	blx	r2
 8006478:	2000      	movs	r0, #0
 800647a:	bd08      	pop	{r3, pc}
 800647c:	2000      	movs	r0, #0
 800647e:	4770      	bx	lr

08006480 <USBD_StdDevReq>:
 8006480:	b5f0      	push	{r4, r5, r6, r7, lr}
 8006482:	780c      	ldrb	r4, [r1, #0]
 8006484:	f004 0460 	and.w	r4, r4, #96	; 0x60
 8006488:	2c20      	cmp	r4, #32
 800648a:	b083      	sub	sp, #12
 800648c:	460e      	mov	r6, r1
 800648e:	4605      	mov	r5, r0
 8006490:	d00e      	beq.n	80064b0 <USBD_StdDevReq+0x30>
 8006492:	2c40      	cmp	r4, #64	; 0x40
 8006494:	d00c      	beq.n	80064b0 <USBD_StdDevReq+0x30>
 8006496:	b1a4      	cbz	r4, 80064c2 <USBD_StdDevReq+0x42>
 8006498:	2180      	movs	r1, #128	; 0x80
 800649a:	4628      	mov	r0, r5
 800649c:	f000 fbb0 	bl	8006c00 <USBD_LL_StallEP>
 80064a0:	2100      	movs	r1, #0
 80064a2:	4628      	mov	r0, r5
 80064a4:	f000 fbac 	bl	8006c00 <USBD_LL_StallEP>
 80064a8:	2400      	movs	r4, #0
 80064aa:	4620      	mov	r0, r4
 80064ac:	b003      	add	sp, #12
 80064ae:	bdf0      	pop	{r4, r5, r6, r7, pc}
 80064b0:	f8d5 32b8 	ldr.w	r3, [r5, #696]	; 0x2b8
 80064b4:	689b      	ldr	r3, [r3, #8]
 80064b6:	4631      	mov	r1, r6
 80064b8:	4628      	mov	r0, r5
 80064ba:	b003      	add	sp, #12
 80064bc:	e8bd 40f0 	ldmia.w	sp!, {r4, r5, r6, r7, lr}
 80064c0:	4718      	bx	r3
 80064c2:	784f      	ldrb	r7, [r1, #1]
 80064c4:	2f09      	cmp	r7, #9
 80064c6:	d8e7      	bhi.n	8006498 <USBD_StdDevReq+0x18>
 80064c8:	a301      	add	r3, pc, #4	; (adr r3, 80064d0 <USBD_StdDevReq+0x50>)
 80064ca:	f853 f027 	ldr.w	pc, [r3, r7, lsl #2]
 80064ce:	bf00      	nop
 80064d0:	08006531 	.word	0x08006531
 80064d4:	0800655f 	.word	0x0800655f
 80064d8:	08006499 	.word	0x08006499
 80064dc:	0800657d 	.word	0x0800657d
 80064e0:	08006499 	.word	0x08006499
 80064e4:	08006585 	.word	0x08006585
 80064e8:	080065bd 	.word	0x080065bd
 80064ec:	08006499 	.word	0x08006499
 80064f0:	080065d9 	.word	0x080065d9
 80064f4:	080064f9 	.word	0x080064f9
 80064f8:	788e      	ldrb	r6, [r1, #2]
 80064fa:	4fb0      	ldr	r7, [pc, #704]	; (80067bc <USBD_StdDevReq+0x33c>)
 80064fc:	2e01      	cmp	r6, #1
 80064fe:	703e      	strb	r6, [r7, #0]
 8006500:	f200 8139 	bhi.w	8006776 <USBD_StdDevReq+0x2f6>
 8006504:	f890 329c 	ldrb.w	r3, [r0, #668]	; 0x29c
 8006508:	2b02      	cmp	r3, #2
 800650a:	b2da      	uxtb	r2, r3
 800650c:	f000 8121 	beq.w	8006752 <USBD_StdDevReq+0x2d2>
 8006510:	2a03      	cmp	r2, #3
 8006512:	f000 80fb 	beq.w	800670c <USBD_StdDevReq+0x28c>
 8006516:	2180      	movs	r1, #128	; 0x80
 8006518:	f000 fb72 	bl	8006c00 <USBD_LL_StallEP>
 800651c:	2100      	movs	r1, #0
 800651e:	4628      	mov	r0, r5
 8006520:	f000 fb6e 	bl	8006c00 <USBD_LL_StallEP>
 8006524:	7839      	ldrb	r1, [r7, #0]
 8006526:	4628      	mov	r0, r5
 8006528:	f7ff fe56 	bl	80061d8 <USBD_ClrClassConfig>
 800652c:	2403      	movs	r4, #3
 800652e:	e7bc      	b.n	80064aa <USBD_StdDevReq+0x2a>
 8006530:	f890 329c 	ldrb.w	r3, [r0, #668]	; 0x29c
 8006534:	3b01      	subs	r3, #1
 8006536:	2b02      	cmp	r3, #2
 8006538:	d866      	bhi.n	8006608 <USBD_StdDevReq+0x188>
 800653a:	88cb      	ldrh	r3, [r1, #6]
 800653c:	2b02      	cmp	r3, #2
 800653e:	d163      	bne.n	8006608 <USBD_StdDevReq+0x188>
 8006540:	f8d0 32a4 	ldr.w	r3, [r0, #676]	; 0x2a4
 8006544:	2201      	movs	r2, #1
 8006546:	60c2      	str	r2, [r0, #12]
 8006548:	b10b      	cbz	r3, 800654e <USBD_StdDevReq+0xce>
 800654a:	2303      	movs	r3, #3
 800654c:	60c3      	str	r3, [r0, #12]
 800654e:	2202      	movs	r2, #2
 8006550:	f105 010c 	add.w	r1, r5, #12
 8006554:	4628      	mov	r0, r5
 8006556:	f000 fa49 	bl	80069ec <USBD_CtlSendData>
 800655a:	463c      	mov	r4, r7
 800655c:	e7a5      	b.n	80064aa <USBD_StdDevReq+0x2a>
 800655e:	f890 329c 	ldrb.w	r3, [r0, #668]	; 0x29c
 8006562:	3b01      	subs	r3, #1
 8006564:	2b02      	cmp	r3, #2
 8006566:	d84f      	bhi.n	8006608 <USBD_StdDevReq+0x188>
 8006568:	884b      	ldrh	r3, [r1, #2]
 800656a:	2b01      	cmp	r3, #1
 800656c:	d19d      	bne.n	80064aa <USBD_StdDevReq+0x2a>
 800656e:	2300      	movs	r3, #0
 8006570:	f8c5 32a4 	str.w	r3, [r5, #676]	; 0x2a4
 8006574:	4628      	mov	r0, r5
 8006576:	f000 fa65 	bl	8006a44 <USBD_CtlSendStatus>
 800657a:	e796      	b.n	80064aa <USBD_StdDevReq+0x2a>
 800657c:	884b      	ldrh	r3, [r1, #2]
 800657e:	2b01      	cmp	r3, #1
 8006580:	d193      	bne.n	80064aa <USBD_StdDevReq+0x2a>
 8006582:	e7f5      	b.n	8006570 <USBD_StdDevReq+0xf0>
 8006584:	888b      	ldrh	r3, [r1, #4]
 8006586:	2b00      	cmp	r3, #0
 8006588:	d13e      	bne.n	8006608 <USBD_StdDevReq+0x188>
 800658a:	88cb      	ldrh	r3, [r1, #6]
 800658c:	2b00      	cmp	r3, #0
 800658e:	d13b      	bne.n	8006608 <USBD_StdDevReq+0x188>
 8006590:	884e      	ldrh	r6, [r1, #2]
 8006592:	2e7f      	cmp	r6, #127	; 0x7f
 8006594:	d838      	bhi.n	8006608 <USBD_StdDevReq+0x188>
 8006596:	f890 329c 	ldrb.w	r3, [r0, #668]	; 0x29c
 800659a:	2b03      	cmp	r3, #3
 800659c:	d034      	beq.n	8006608 <USBD_StdDevReq+0x188>
 800659e:	b2f1      	uxtb	r1, r6
 80065a0:	f880 129e 	strb.w	r1, [r0, #670]	; 0x29e
 80065a4:	f000 fb5c 	bl	8006c60 <USBD_LL_SetUSBAddress>
 80065a8:	4628      	mov	r0, r5
 80065aa:	f000 fa4b 	bl	8006a44 <USBD_CtlSendStatus>
 80065ae:	2e00      	cmp	r6, #0
 80065b0:	f000 80ff 	beq.w	80067b2 <USBD_StdDevReq+0x332>
 80065b4:	2302      	movs	r3, #2
 80065b6:	f885 329c 	strb.w	r3, [r5, #668]	; 0x29c
 80065ba:	e776      	b.n	80064aa <USBD_StdDevReq+0x2a>
 80065bc:	884a      	ldrh	r2, [r1, #2]
 80065be:	2300      	movs	r3, #0
 80065c0:	f8ad 3006 	strh.w	r3, [sp, #6]
 80065c4:	0a13      	lsrs	r3, r2, #8
 80065c6:	3b01      	subs	r3, #1
 80065c8:	2b06      	cmp	r3, #6
 80065ca:	d81d      	bhi.n	8006608 <USBD_StdDevReq+0x188>
 80065cc:	e8df f003 	tbb	[pc, r3]
 80065d0:	1c4d606d 	.word	0x1c4d606d
 80065d4:	431c      	.short	0x431c
 80065d6:	27          	.byte	0x27
 80065d7:	00          	.byte	0x00
 80065d8:	88ca      	ldrh	r2, [r1, #6]
 80065da:	2a01      	cmp	r2, #1
 80065dc:	d114      	bne.n	8006608 <USBD_StdDevReq+0x188>
 80065de:	f890 129c 	ldrb.w	r1, [r0, #668]	; 0x29c
 80065e2:	2902      	cmp	r1, #2
 80065e4:	b2cb      	uxtb	r3, r1
 80065e6:	f200 808a 	bhi.w	80066fe <USBD_StdDevReq+0x27e>
 80065ea:	2b00      	cmp	r3, #0
 80065ec:	f43f af54 	beq.w	8006498 <USBD_StdDevReq+0x18>
 80065f0:	4601      	mov	r1, r0
 80065f2:	2300      	movs	r3, #0
 80065f4:	f841 3f08 	str.w	r3, [r1, #8]!
 80065f8:	f000 f9f8 	bl	80069ec <USBD_CtlSendData>
 80065fc:	e755      	b.n	80064aa <USBD_StdDevReq+0x2a>
 80065fe:	f8d0 32b4 	ldr.w	r3, [r0, #692]	; 0x2b4
 8006602:	685b      	ldr	r3, [r3, #4]
 8006604:	2b00      	cmp	r3, #0
 8006606:	d15d      	bne.n	80066c4 <USBD_StdDevReq+0x244>
 8006608:	2180      	movs	r1, #128	; 0x80
 800660a:	4628      	mov	r0, r5
 800660c:	f000 faf8 	bl	8006c00 <USBD_LL_StallEP>
 8006610:	2100      	movs	r1, #0
 8006612:	4628      	mov	r0, r5
 8006614:	f000 faf4 	bl	8006c00 <USBD_LL_StallEP>
 8006618:	4620      	mov	r0, r4
 800661a:	b003      	add	sp, #12
 800661c:	bdf0      	pop	{r4, r5, r6, r7, pc}
 800661e:	7c03      	ldrb	r3, [r0, #16]
 8006620:	2b00      	cmp	r3, #0
 8006622:	d1f1      	bne.n	8006608 <USBD_StdDevReq+0x188>
 8006624:	f8d0 32b8 	ldr.w	r3, [r0, #696]	; 0x2b8
 8006628:	f10d 0006 	add.w	r0, sp, #6
 800662c:	6b1b      	ldr	r3, [r3, #48]	; 0x30
 800662e:	4798      	blx	r3
 8006630:	2307      	movs	r3, #7
 8006632:	7043      	strb	r3, [r0, #1]
 8006634:	88f2      	ldrh	r2, [r6, #6]
 8006636:	2a00      	cmp	r2, #0
 8006638:	d09c      	beq.n	8006574 <USBD_StdDevReq+0xf4>
 800663a:	f8bd 3006 	ldrh.w	r3, [sp, #6]
 800663e:	2b00      	cmp	r3, #0
 8006640:	d0e2      	beq.n	8006608 <USBD_StdDevReq+0x188>
 8006642:	429a      	cmp	r2, r3
 8006644:	bf28      	it	cs
 8006646:	461a      	movcs	r2, r3
 8006648:	4601      	mov	r1, r0
 800664a:	4628      	mov	r0, r5
 800664c:	f8ad 2006 	strh.w	r2, [sp, #6]
 8006650:	f000 f9cc 	bl	80069ec <USBD_CtlSendData>
 8006654:	e729      	b.n	80064aa <USBD_StdDevReq+0x2a>
 8006656:	7c03      	ldrb	r3, [r0, #16]
 8006658:	2b00      	cmp	r3, #0
 800665a:	d1d5      	bne.n	8006608 <USBD_StdDevReq+0x188>
 800665c:	f8d0 32b8 	ldr.w	r3, [r0, #696]	; 0x2b8
 8006660:	f10d 0006 	add.w	r0, sp, #6
 8006664:	6b5b      	ldr	r3, [r3, #52]	; 0x34
 8006666:	4798      	blx	r3
 8006668:	e7e4      	b.n	8006634 <USBD_StdDevReq+0x1b4>
 800666a:	b2d1      	uxtb	r1, r2
 800666c:	2905      	cmp	r1, #5
 800666e:	f200 80a7 	bhi.w	80067c0 <USBD_StdDevReq+0x340>
 8006672:	a301      	add	r3, pc, #4	; (adr r3, 8006678 <USBD_StdDevReq+0x1f8>)
 8006674:	f853 f021 	ldr.w	pc, [r3, r1, lsl #2]
 8006678:	080065ff 	.word	0x080065ff
 800667c:	080066f3 	.word	0x080066f3
 8006680:	080066e7 	.word	0x080066e7
 8006684:	080066cf 	.word	0x080066cf
 8006688:	080066bb 	.word	0x080066bb
 800668c:	080066db 	.word	0x080066db
 8006690:	7c03      	ldrb	r3, [r0, #16]
 8006692:	2b00      	cmp	r3, #0
 8006694:	f040 8084 	bne.w	80067a0 <USBD_StdDevReq+0x320>
 8006698:	f8d0 32b8 	ldr.w	r3, [r0, #696]	; 0x2b8
 800669c:	f10d 0006 	add.w	r0, sp, #6
 80066a0:	6a9b      	ldr	r3, [r3, #40]	; 0x28
 80066a2:	4798      	blx	r3
 80066a4:	2302      	movs	r3, #2
 80066a6:	7043      	strb	r3, [r0, #1]
 80066a8:	e7c4      	b.n	8006634 <USBD_StdDevReq+0x1b4>
 80066aa:	f8d0 32b4 	ldr.w	r3, [r0, #692]	; 0x2b4
 80066ae:	7c00      	ldrb	r0, [r0, #16]
 80066b0:	681b      	ldr	r3, [r3, #0]
 80066b2:	f10d 0106 	add.w	r1, sp, #6
 80066b6:	4798      	blx	r3
 80066b8:	e7bc      	b.n	8006634 <USBD_StdDevReq+0x1b4>
 80066ba:	f8d0 32b4 	ldr.w	r3, [r0, #692]	; 0x2b4
 80066be:	695b      	ldr	r3, [r3, #20]
 80066c0:	2b00      	cmp	r3, #0
 80066c2:	d0a1      	beq.n	8006608 <USBD_StdDevReq+0x188>
 80066c4:	7c28      	ldrb	r0, [r5, #16]
 80066c6:	f10d 0106 	add.w	r1, sp, #6
 80066ca:	4798      	blx	r3
 80066cc:	e7b2      	b.n	8006634 <USBD_StdDevReq+0x1b4>
 80066ce:	f8d0 32b4 	ldr.w	r3, [r0, #692]	; 0x2b4
 80066d2:	691b      	ldr	r3, [r3, #16]
 80066d4:	2b00      	cmp	r3, #0
 80066d6:	d1f5      	bne.n	80066c4 <USBD_StdDevReq+0x244>
 80066d8:	e796      	b.n	8006608 <USBD_StdDevReq+0x188>
 80066da:	f8d0 32b4 	ldr.w	r3, [r0, #692]	; 0x2b4
 80066de:	699b      	ldr	r3, [r3, #24]
 80066e0:	2b00      	cmp	r3, #0
 80066e2:	d1ef      	bne.n	80066c4 <USBD_StdDevReq+0x244>
 80066e4:	e790      	b.n	8006608 <USBD_StdDevReq+0x188>
 80066e6:	f8d0 32b4 	ldr.w	r3, [r0, #692]	; 0x2b4
 80066ea:	68db      	ldr	r3, [r3, #12]
 80066ec:	2b00      	cmp	r3, #0
 80066ee:	d1e9      	bne.n	80066c4 <USBD_StdDevReq+0x244>
 80066f0:	e78a      	b.n	8006608 <USBD_StdDevReq+0x188>
 80066f2:	f8d0 32b4 	ldr.w	r3, [r0, #692]	; 0x2b4
 80066f6:	689b      	ldr	r3, [r3, #8]
 80066f8:	2b00      	cmp	r3, #0
 80066fa:	d1e3      	bne.n	80066c4 <USBD_StdDevReq+0x244>
 80066fc:	e784      	b.n	8006608 <USBD_StdDevReq+0x188>
 80066fe:	2b03      	cmp	r3, #3
 8006700:	f47f aeca 	bne.w	8006498 <USBD_StdDevReq+0x18>
 8006704:	1d01      	adds	r1, r0, #4
 8006706:	f000 f971 	bl	80069ec <USBD_CtlSendData>
 800670a:	e6ce      	b.n	80064aa <USBD_StdDevReq+0x2a>
 800670c:	2e00      	cmp	r6, #0
 800670e:	d03b      	beq.n	8006788 <USBD_StdDevReq+0x308>
 8006710:	6841      	ldr	r1, [r0, #4]
 8006712:	2901      	cmp	r1, #1
 8006714:	f43f af2e 	beq.w	8006574 <USBD_StdDevReq+0xf4>
 8006718:	b2c9      	uxtb	r1, r1
 800671a:	f7ff fd5d 	bl	80061d8 <USBD_ClrClassConfig>
 800671e:	7839      	ldrb	r1, [r7, #0]
 8006720:	6069      	str	r1, [r5, #4]
 8006722:	4628      	mov	r0, r5
 8006724:	f7ff fd50 	bl	80061c8 <USBD_SetClassConfig>
 8006728:	4606      	mov	r6, r0
 800672a:	2800      	cmp	r0, #0
 800672c:	f43f af22 	beq.w	8006574 <USBD_StdDevReq+0xf4>
 8006730:	2180      	movs	r1, #128	; 0x80
 8006732:	4628      	mov	r0, r5
 8006734:	f000 fa64 	bl	8006c00 <USBD_LL_StallEP>
 8006738:	2100      	movs	r1, #0
 800673a:	4628      	mov	r0, r5
 800673c:	f000 fa60 	bl	8006c00 <USBD_LL_StallEP>
 8006740:	7929      	ldrb	r1, [r5, #4]
 8006742:	4628      	mov	r0, r5
 8006744:	f7ff fd48 	bl	80061d8 <USBD_ClrClassConfig>
 8006748:	2302      	movs	r3, #2
 800674a:	f885 329c 	strb.w	r3, [r5, #668]	; 0x29c
 800674e:	4634      	mov	r4, r6
 8006750:	e6ab      	b.n	80064aa <USBD_StdDevReq+0x2a>
 8006752:	2e00      	cmp	r6, #0
 8006754:	f43f af0e 	beq.w	8006574 <USBD_StdDevReq+0xf4>
 8006758:	2101      	movs	r1, #1
 800675a:	6041      	str	r1, [r0, #4]
 800675c:	f7ff fd34 	bl	80061c8 <USBD_SetClassConfig>
 8006760:	4604      	mov	r4, r0
 8006762:	2800      	cmp	r0, #0
 8006764:	f47f af50 	bne.w	8006608 <USBD_StdDevReq+0x188>
 8006768:	4628      	mov	r0, r5
 800676a:	f000 f96b 	bl	8006a44 <USBD_CtlSendStatus>
 800676e:	2303      	movs	r3, #3
 8006770:	f885 329c 	strb.w	r3, [r5, #668]	; 0x29c
 8006774:	e699      	b.n	80064aa <USBD_StdDevReq+0x2a>
 8006776:	2180      	movs	r1, #128	; 0x80
 8006778:	f000 fa42 	bl	8006c00 <USBD_LL_StallEP>
 800677c:	2100      	movs	r1, #0
 800677e:	4628      	mov	r0, r5
 8006780:	f000 fa3e 	bl	8006c00 <USBD_LL_StallEP>
 8006784:	2403      	movs	r4, #3
 8006786:	e690      	b.n	80064aa <USBD_StdDevReq+0x2a>
 8006788:	2302      	movs	r3, #2
 800678a:	4631      	mov	r1, r6
 800678c:	f880 329c 	strb.w	r3, [r0, #668]	; 0x29c
 8006790:	6046      	str	r6, [r0, #4]
 8006792:	f7ff fd21 	bl	80061d8 <USBD_ClrClassConfig>
 8006796:	4628      	mov	r0, r5
 8006798:	f000 f954 	bl	8006a44 <USBD_CtlSendStatus>
 800679c:	4634      	mov	r4, r6
 800679e:	e684      	b.n	80064aa <USBD_StdDevReq+0x2a>
 80067a0:	f8d0 32b8 	ldr.w	r3, [r0, #696]	; 0x2b8
 80067a4:	f10d 0006 	add.w	r0, sp, #6
 80067a8:	6adb      	ldr	r3, [r3, #44]	; 0x2c
 80067aa:	4798      	blx	r3
 80067ac:	2302      	movs	r3, #2
 80067ae:	7043      	strb	r3, [r0, #1]
 80067b0:	e740      	b.n	8006634 <USBD_StdDevReq+0x1b4>
 80067b2:	2301      	movs	r3, #1
 80067b4:	f885 329c 	strb.w	r3, [r5, #668]	; 0x29c
 80067b8:	e677      	b.n	80064aa <USBD_StdDevReq+0x2a>
 80067ba:	bf00      	nop
 80067bc:	20002c9c 	.word	0x20002c9c
 80067c0:	f8d0 32b8 	ldr.w	r3, [r0, #696]	; 0x2b8
 80067c4:	6b9b      	ldr	r3, [r3, #56]	; 0x38
 80067c6:	2b00      	cmp	r3, #0
 80067c8:	f43f af1e 	beq.w	8006608 <USBD_StdDevReq+0x188>
 80067cc:	f10d 0206 	add.w	r2, sp, #6
 80067d0:	4798      	blx	r3
 80067d2:	e72f      	b.n	8006634 <USBD_StdDevReq+0x1b4>

080067d4 <USBD_StdItfReq>:
 80067d4:	b538      	push	{r3, r4, r5, lr}
 80067d6:	780b      	ldrb	r3, [r1, #0]
 80067d8:	f003 0260 	and.w	r2, r3, #96	; 0x60
 80067dc:	2a40      	cmp	r2, #64	; 0x40
 80067de:	460d      	mov	r5, r1
 80067e0:	4604      	mov	r4, r0
 80067e2:	d00b      	beq.n	80067fc <USBD_StdItfReq+0x28>
 80067e4:	065b      	lsls	r3, r3, #25
 80067e6:	d509      	bpl.n	80067fc <USBD_StdItfReq+0x28>
 80067e8:	2180      	movs	r1, #128	; 0x80
 80067ea:	f000 fa09 	bl	8006c00 <USBD_LL_StallEP>
 80067ee:	2100      	movs	r1, #0
 80067f0:	4620      	mov	r0, r4
 80067f2:	f000 fa05 	bl	8006c00 <USBD_LL_StallEP>
 80067f6:	2500      	movs	r5, #0
 80067f8:	4628      	mov	r0, r5
 80067fa:	bd38      	pop	{r3, r4, r5, pc}
 80067fc:	f894 329c 	ldrb.w	r3, [r4, #668]	; 0x29c
 8006800:	3b01      	subs	r3, #1
 8006802:	2b02      	cmp	r3, #2
 8006804:	d812      	bhi.n	800682c <USBD_StdItfReq+0x58>
 8006806:	792b      	ldrb	r3, [r5, #4]
 8006808:	2b0f      	cmp	r3, #15
 800680a:	d80f      	bhi.n	800682c <USBD_StdItfReq+0x58>
 800680c:	f8d4 32b8 	ldr.w	r3, [r4, #696]	; 0x2b8
 8006810:	4629      	mov	r1, r5
 8006812:	689b      	ldr	r3, [r3, #8]
 8006814:	4620      	mov	r0, r4
 8006816:	4798      	blx	r3
 8006818:	88eb      	ldrh	r3, [r5, #6]
 800681a:	4605      	mov	r5, r0
 800681c:	2b00      	cmp	r3, #0
 800681e:	d1eb      	bne.n	80067f8 <USBD_StdItfReq+0x24>
 8006820:	2800      	cmp	r0, #0
 8006822:	d1e9      	bne.n	80067f8 <USBD_StdItfReq+0x24>
 8006824:	4620      	mov	r0, r4
 8006826:	f000 f90d 	bl	8006a44 <USBD_CtlSendStatus>
 800682a:	e7e5      	b.n	80067f8 <USBD_StdItfReq+0x24>
 800682c:	2180      	movs	r1, #128	; 0x80
 800682e:	4620      	mov	r0, r4
 8006830:	e7db      	b.n	80067ea <USBD_StdItfReq+0x16>
 8006832:	bf00      	nop

08006834 <USBD_StdEPReq>:
 8006834:	b570      	push	{r4, r5, r6, lr}
 8006836:	780b      	ldrb	r3, [r1, #0]
 8006838:	f003 0360 	and.w	r3, r3, #96	; 0x60
 800683c:	2b20      	cmp	r3, #32
 800683e:	460d      	mov	r5, r1
 8006840:	4604      	mov	r4, r0
 8006842:	d01b      	beq.n	800687c <USBD_StdEPReq+0x48>
 8006844:	2b40      	cmp	r3, #64	; 0x40
 8006846:	d019      	beq.n	800687c <USBD_StdEPReq+0x48>
 8006848:	b303      	cbz	r3, 800688c <USBD_StdEPReq+0x58>
 800684a:	2180      	movs	r1, #128	; 0x80
 800684c:	4620      	mov	r0, r4
 800684e:	f000 f9d7 	bl	8006c00 <USBD_LL_StallEP>
 8006852:	2100      	movs	r1, #0
 8006854:	4620      	mov	r0, r4
 8006856:	f000 f9d3 	bl	8006c00 <USBD_LL_StallEP>
 800685a:	2000      	movs	r0, #0
 800685c:	bd70      	pop	{r4, r5, r6, pc}
 800685e:	f890 329c 	ldrb.w	r3, [r0, #668]	; 0x29c
 8006862:	2b02      	cmp	r3, #2
 8006864:	b2da      	uxtb	r2, r3
 8006866:	d053      	beq.n	8006910 <USBD_StdEPReq+0xdc>
 8006868:	2a03      	cmp	r2, #3
 800686a:	d1ee      	bne.n	800684a <USBD_StdEPReq+0x16>
 800686c:	886b      	ldrh	r3, [r5, #2]
 800686e:	2b00      	cmp	r3, #0
 8006870:	d1f3      	bne.n	800685a <USBD_StdEPReq+0x26>
 8006872:	064e      	lsls	r6, r1, #25
 8006874:	d16f      	bne.n	8006956 <USBD_StdEPReq+0x122>
 8006876:	4620      	mov	r0, r4
 8006878:	f000 f8e4 	bl	8006a44 <USBD_CtlSendStatus>
 800687c:	f8d4 32b8 	ldr.w	r3, [r4, #696]	; 0x2b8
 8006880:	4629      	mov	r1, r5
 8006882:	4620      	mov	r0, r4
 8006884:	689b      	ldr	r3, [r3, #8]
 8006886:	e8bd 4070 	ldmia.w	sp!, {r4, r5, r6, lr}
 800688a:	4718      	bx	r3
 800688c:	786b      	ldrb	r3, [r5, #1]
 800688e:	888a      	ldrh	r2, [r1, #4]
 8006890:	2b01      	cmp	r3, #1
 8006892:	b2d1      	uxtb	r1, r2
 8006894:	d0e3      	beq.n	800685e <USBD_StdEPReq+0x2a>
 8006896:	2b03      	cmp	r3, #3
 8006898:	d029      	beq.n	80068ee <USBD_StdEPReq+0xba>
 800689a:	2b00      	cmp	r3, #0
 800689c:	d1d5      	bne.n	800684a <USBD_StdEPReq+0x16>
 800689e:	f890 329c 	ldrb.w	r3, [r0, #668]	; 0x29c
 80068a2:	2b02      	cmp	r3, #2
 80068a4:	b2d8      	uxtb	r0, r3
 80068a6:	d03c      	beq.n	8006922 <USBD_StdEPReq+0xee>
 80068a8:	2803      	cmp	r0, #3
 80068aa:	d1ce      	bne.n	800684a <USBD_StdEPReq+0x16>
 80068ac:	f001 030f 	and.w	r3, r1, #15
 80068b0:	eb03 0383 	add.w	r3, r3, r3, lsl #2
 80068b4:	0612      	lsls	r2, r2, #24
 80068b6:	eb04 0383 	add.w	r3, r4, r3, lsl #2
 80068ba:	d441      	bmi.n	8006940 <USBD_StdEPReq+0x10c>
 80068bc:	f8b3 3164 	ldrh.w	r3, [r3, #356]	; 0x164
 80068c0:	2b00      	cmp	r3, #0
 80068c2:	d0c2      	beq.n	800684a <USBD_StdEPReq+0x16>
 80068c4:	f001 037f 	and.w	r3, r1, #127	; 0x7f
 80068c8:	2514      	movs	r5, #20
 80068ca:	fb05 4503 	mla	r5, r5, r3, r4
 80068ce:	f505 75aa 	add.w	r5, r5, #340	; 0x154
 80068d2:	b12b      	cbz	r3, 80068e0 <USBD_StdEPReq+0xac>
 80068d4:	4620      	mov	r0, r4
 80068d6:	f000 f9af 	bl	8006c38 <USBD_LL_IsStallEP>
 80068da:	2800      	cmp	r0, #0
 80068dc:	d03e      	beq.n	800695c <USBD_StdEPReq+0x128>
 80068de:	2301      	movs	r3, #1
 80068e0:	602b      	str	r3, [r5, #0]
 80068e2:	2202      	movs	r2, #2
 80068e4:	4629      	mov	r1, r5
 80068e6:	4620      	mov	r0, r4
 80068e8:	f000 f880 	bl	80069ec <USBD_CtlSendData>
 80068ec:	e7b5      	b.n	800685a <USBD_StdEPReq+0x26>
 80068ee:	f890 329c 	ldrb.w	r3, [r0, #668]	; 0x29c
 80068f2:	2b02      	cmp	r3, #2
 80068f4:	b2da      	uxtb	r2, r3
 80068f6:	d00b      	beq.n	8006910 <USBD_StdEPReq+0xdc>
 80068f8:	2a03      	cmp	r2, #3
 80068fa:	d1a6      	bne.n	800684a <USBD_StdEPReq+0x16>
 80068fc:	886b      	ldrh	r3, [r5, #2]
 80068fe:	b91b      	cbnz	r3, 8006908 <USBD_StdEPReq+0xd4>
 8006900:	064a      	lsls	r2, r1, #25
 8006902:	d001      	beq.n	8006908 <USBD_StdEPReq+0xd4>
 8006904:	88eb      	ldrh	r3, [r5, #6]
 8006906:	b35b      	cbz	r3, 8006960 <USBD_StdEPReq+0x12c>
 8006908:	4620      	mov	r0, r4
 800690a:	f000 f89b 	bl	8006a44 <USBD_CtlSendStatus>
 800690e:	e7a4      	b.n	800685a <USBD_StdEPReq+0x26>
 8006910:	064b      	lsls	r3, r1, #25
 8006912:	d09a      	beq.n	800684a <USBD_StdEPReq+0x16>
 8006914:	f000 f974 	bl	8006c00 <USBD_LL_StallEP>
 8006918:	2180      	movs	r1, #128	; 0x80
 800691a:	4620      	mov	r0, r4
 800691c:	f000 f970 	bl	8006c00 <USBD_LL_StallEP>
 8006920:	e79b      	b.n	800685a <USBD_StdEPReq+0x26>
 8006922:	0648      	lsls	r0, r1, #25
 8006924:	d191      	bne.n	800684a <USBD_StdEPReq+0x16>
 8006926:	0611      	lsls	r1, r2, #24
 8006928:	bf4c      	ite	mi
 800692a:	f104 0114 	addmi.w	r1, r4, #20
 800692e:	f504 71aa 	addpl.w	r1, r4, #340	; 0x154
 8006932:	2300      	movs	r3, #0
 8006934:	600b      	str	r3, [r1, #0]
 8006936:	2202      	movs	r2, #2
 8006938:	4620      	mov	r0, r4
 800693a:	f000 f857 	bl	80069ec <USBD_CtlSendData>
 800693e:	e78c      	b.n	800685a <USBD_StdEPReq+0x26>
 8006940:	8c9b      	ldrh	r3, [r3, #36]	; 0x24
 8006942:	2b00      	cmp	r3, #0
 8006944:	d081      	beq.n	800684a <USBD_StdEPReq+0x16>
 8006946:	f001 037f 	and.w	r3, r1, #127	; 0x7f
 800694a:	1c5d      	adds	r5, r3, #1
 800694c:	eb05 0585 	add.w	r5, r5, r5, lsl #2
 8006950:	eb04 0585 	add.w	r5, r4, r5, lsl #2
 8006954:	e7bd      	b.n	80068d2 <USBD_StdEPReq+0x9e>
 8006956:	f000 f961 	bl	8006c1c <USBD_LL_ClearStallEP>
 800695a:	e78c      	b.n	8006876 <USBD_StdEPReq+0x42>
 800695c:	6028      	str	r0, [r5, #0]
 800695e:	e7c0      	b.n	80068e2 <USBD_StdEPReq+0xae>
 8006960:	f000 f94e 	bl	8006c00 <USBD_LL_StallEP>
 8006964:	e7d0      	b.n	8006908 <USBD_StdEPReq+0xd4>
 8006966:	bf00      	nop

08006968 <USBD_ParseSetupRequest>:
 8006968:	780b      	ldrb	r3, [r1, #0]
 800696a:	7003      	strb	r3, [r0, #0]
 800696c:	784b      	ldrb	r3, [r1, #1]
 800696e:	7043      	strb	r3, [r0, #1]
 8006970:	884b      	ldrh	r3, [r1, #2]
 8006972:	8043      	strh	r3, [r0, #2]
 8006974:	888b      	ldrh	r3, [r1, #4]
 8006976:	8083      	strh	r3, [r0, #4]
 8006978:	88cb      	ldrh	r3, [r1, #6]
 800697a:	80c3      	strh	r3, [r0, #6]
 800697c:	4770      	bx	lr
 800697e:	bf00      	nop

08006980 <USBD_CtlError>:
 8006980:	b510      	push	{r4, lr}
 8006982:	2180      	movs	r1, #128	; 0x80
 8006984:	4604      	mov	r4, r0
 8006986:	f000 f93b 	bl	8006c00 <USBD_LL_StallEP>
 800698a:	4620      	mov	r0, r4
 800698c:	2100      	movs	r1, #0
 800698e:	e8bd 4010 	ldmia.w	sp!, {r4, lr}
 8006992:	f000 b935 	b.w	8006c00 <USBD_LL_StallEP>
 8006996:	bf00      	nop

08006998 <USBD_GetString>:
 8006998:	b318      	cbz	r0, 80069e2 <USBD_GetString+0x4a>
 800699a:	7803      	ldrb	r3, [r0, #0]
 800699c:	b430      	push	{r4, r5}
 800699e:	b30b      	cbz	r3, 80069e4 <USBD_GetString+0x4c>
 80069a0:	4604      	mov	r4, r0
 80069a2:	f1c0 0c01 	rsb	ip, r0, #1
 80069a6:	eb04 030c 	add.w	r3, r4, ip
 80069aa:	f814 5f01 	ldrb.w	r5, [r4, #1]!
 80069ae:	b2db      	uxtb	r3, r3
 80069b0:	2d00      	cmp	r5, #0
 80069b2:	d1f8      	bne.n	80069a6 <USBD_GetString+0xe>
 80069b4:	3301      	adds	r3, #1
 80069b6:	005b      	lsls	r3, r3, #1
 80069b8:	b2dc      	uxtb	r4, r3
 80069ba:	8013      	strh	r3, [r2, #0]
 80069bc:	2303      	movs	r3, #3
 80069be:	700c      	strb	r4, [r1, #0]
 80069c0:	704b      	strb	r3, [r1, #1]
 80069c2:	7804      	ldrb	r4, [r0, #0]
 80069c4:	b15c      	cbz	r4, 80069de <USBD_GetString+0x46>
 80069c6:	2302      	movs	r3, #2
 80069c8:	2500      	movs	r5, #0
 80069ca:	1c5a      	adds	r2, r3, #1
 80069cc:	b2d2      	uxtb	r2, r2
 80069ce:	54cc      	strb	r4, [r1, r3]
 80069d0:	548d      	strb	r5, [r1, r2]
 80069d2:	f810 4f01 	ldrb.w	r4, [r0, #1]!
 80069d6:	3302      	adds	r3, #2
 80069d8:	b2db      	uxtb	r3, r3
 80069da:	2c00      	cmp	r4, #0
 80069dc:	d1f5      	bne.n	80069ca <USBD_GetString+0x32>
 80069de:	bc30      	pop	{r4, r5}
 80069e0:	4770      	bx	lr
 80069e2:	4770      	bx	lr
 80069e4:	2402      	movs	r4, #2
 80069e6:	4623      	mov	r3, r4
 80069e8:	e7e7      	b.n	80069ba <USBD_GetString+0x22>
 80069ea:	bf00      	nop

080069ec <USBD_CtlSendData>:
 80069ec:	b508      	push	{r3, lr}
 80069ee:	4613      	mov	r3, r2
 80069f0:	460a      	mov	r2, r1
 80069f2:	2102      	movs	r1, #2
 80069f4:	e9c0 3306 	strd	r3, r3, [r0, #24]
 80069f8:	f8c0 1294 	str.w	r1, [r0, #660]	; 0x294
 80069fc:	2100      	movs	r1, #0
 80069fe:	f000 f93d 	bl	8006c7c <USBD_LL_Transmit>
 8006a02:	2000      	movs	r0, #0
 8006a04:	bd08      	pop	{r3, pc}
 8006a06:	bf00      	nop

08006a08 <USBD_CtlContinueSendData>:
 8006a08:	b508      	push	{r3, lr}
 8006a0a:	4613      	mov	r3, r2
 8006a0c:	460a      	mov	r2, r1
 8006a0e:	2100      	movs	r1, #0
 8006a10:	f000 f934 	bl	8006c7c <USBD_LL_Transmit>
 8006a14:	2000      	movs	r0, #0
 8006a16:	bd08      	pop	{r3, pc}

08006a18 <USBD_CtlPrepareRx>:
 8006a18:	b508      	push	{r3, lr}
 8006a1a:	4613      	mov	r3, r2
 8006a1c:	460a      	mov	r2, r1
 8006a1e:	2103      	movs	r1, #3
 8006a20:	e9c0 3356 	strd	r3, r3, [r0, #344]	; 0x158
 8006a24:	f8c0 1294 	str.w	r1, [r0, #660]	; 0x294
 8006a28:	2100      	movs	r1, #0
 8006a2a:	f000 f935 	bl	8006c98 <USBD_LL_PrepareReceive>
 8006a2e:	2000      	movs	r0, #0
 8006a30:	bd08      	pop	{r3, pc}
 8006a32:	bf00      	nop

08006a34 <USBD_CtlContinueRx>:
 8006a34:	b508      	push	{r3, lr}
 8006a36:	4613      	mov	r3, r2
 8006a38:	460a      	mov	r2, r1
 8006a3a:	2100      	movs	r1, #0
 8006a3c:	f000 f92c 	bl	8006c98 <USBD_LL_PrepareReceive>
 8006a40:	2000      	movs	r0, #0
 8006a42:	bd08      	pop	{r3, pc}

08006a44 <USBD_CtlSendStatus>:
 8006a44:	b508      	push	{r3, lr}
 8006a46:	2104      	movs	r1, #4
 8006a48:	2300      	movs	r3, #0
 8006a4a:	f8c0 1294 	str.w	r1, [r0, #660]	; 0x294
 8006a4e:	461a      	mov	r2, r3
 8006a50:	4619      	mov	r1, r3
 8006a52:	f000 f913 	bl	8006c7c <USBD_LL_Transmit>
 8006a56:	2000      	movs	r0, #0
 8006a58:	bd08      	pop	{r3, pc}
 8006a5a:	bf00      	nop

08006a5c <USBD_CtlReceiveStatus>:
 8006a5c:	b508      	push	{r3, lr}
 8006a5e:	2105      	movs	r1, #5
 8006a60:	2300      	movs	r3, #0
 8006a62:	f8c0 1294 	str.w	r1, [r0, #660]	; 0x294
 8006a66:	461a      	mov	r2, r3
 8006a68:	4619      	mov	r1, r3
 8006a6a:	f000 f915 	bl	8006c98 <USBD_LL_PrepareReceive>
 8006a6e:	2000      	movs	r0, #0
 8006a70:	bd08      	pop	{r3, pc}
 8006a72:	bf00      	nop

08006a74 <HAL_PCD_SetupStageCallback>:
 8006a74:	f200 41c4 	addw	r1, r0, #1220	; 0x4c4
 8006a78:	f8d0 0508 	ldr.w	r0, [r0, #1288]	; 0x508
 8006a7c:	f7ff bbb4 	b.w	80061e8 <USBD_LL_SetupStage>

08006a80 <HAL_PCD_DataOutStageCallback>:
 8006a80:	eb01 03c1 	add.w	r3, r1, r1, lsl #3
 8006a84:	eb00 0383 	add.w	r3, r0, r3, lsl #2
 8006a88:	f8d0 0508 	ldr.w	r0, [r0, #1288]	; 0x508
 8006a8c:	f8d3 228c 	ldr.w	r2, [r3, #652]	; 0x28c
 8006a90:	f7ff bbda 	b.w	8006248 <USBD_LL_DataOutStage>

08006a94 <HAL_PCD_DataInStageCallback>:
 8006a94:	eb01 03c1 	add.w	r3, r1, r1, lsl #3
 8006a98:	eb00 0383 	add.w	r3, r0, r3, lsl #2
 8006a9c:	f8d0 0508 	ldr.w	r0, [r0, #1288]	; 0x508
 8006aa0:	6cda      	ldr	r2, [r3, #76]	; 0x4c
 8006aa2:	f7ff bc05 	b.w	80062b0 <USBD_LL_DataInStage>
 8006aa6:	bf00      	nop

08006aa8 <HAL_PCD_SOFCallback>:
 8006aa8:	f8d0 0508 	ldr.w	r0, [r0, #1288]	; 0x508
 8006aac:	f7ff bc9c 	b.w	80063e8 <USBD_LL_SOF>

08006ab0 <HAL_PCD_ResetCallback>:
 8006ab0:	68c1      	ldr	r1, [r0, #12]
 8006ab2:	2902      	cmp	r1, #2
 8006ab4:	b510      	push	{r4, lr}
 8006ab6:	4604      	mov	r4, r0
 8006ab8:	d00e      	beq.n	8006ad8 <HAL_PCD_ResetCallback+0x28>
 8006aba:	b949      	cbnz	r1, 8006ad0 <HAL_PCD_ResetCallback+0x20>
 8006abc:	f8d4 0508 	ldr.w	r0, [r4, #1288]	; 0x508
 8006ac0:	f7ff fc76 	bl	80063b0 <USBD_LL_SetSpeed>
 8006ac4:	f8d4 0508 	ldr.w	r0, [r4, #1288]	; 0x508
 8006ac8:	e8bd 4010 	ldmia.w	sp!, {r4, lr}
 8006acc:	f7ff bc46 	b.w	800635c <USBD_LL_Reset>
 8006ad0:	f7fa fb12 	bl	80010f8 <Error_Handler>
 8006ad4:	2101      	movs	r1, #1
 8006ad6:	e7f1      	b.n	8006abc <HAL_PCD_ResetCallback+0xc>
 8006ad8:	2101      	movs	r1, #1
 8006ada:	e7ef      	b.n	8006abc <HAL_PCD_ResetCallback+0xc>

08006adc <HAL_PCD_SuspendCallback>:
 8006adc:	b510      	push	{r4, lr}
 8006ade:	4604      	mov	r4, r0
 8006ae0:	f8d0 0508 	ldr.w	r0, [r0, #1288]	; 0x508
 8006ae4:	f7ff fc68 	bl	80063b8 <USBD_LL_Suspend>
 8006ae8:	6822      	ldr	r2, [r4, #0]
 8006aea:	f8d2 3e00 	ldr.w	r3, [r2, #3584]	; 0xe00
 8006aee:	f043 0301 	orr.w	r3, r3, #1
 8006af2:	f8c2 3e00 	str.w	r3, [r2, #3584]	; 0xe00
 8006af6:	6a23      	ldr	r3, [r4, #32]
 8006af8:	b123      	cbz	r3, 8006b04 <HAL_PCD_SuspendCallback+0x28>
 8006afa:	4a03      	ldr	r2, [pc, #12]	; (8006b08 <HAL_PCD_SuspendCallback+0x2c>)
 8006afc:	6913      	ldr	r3, [r2, #16]
 8006afe:	f043 0306 	orr.w	r3, r3, #6
 8006b02:	6113      	str	r3, [r2, #16]
 8006b04:	bd10      	pop	{r4, pc}
 8006b06:	bf00      	nop
 8006b08:	e000ed00 	.word	0xe000ed00

08006b0c <HAL_PCD_ResumeCallback>:
 8006b0c:	f8d0 0508 	ldr.w	r0, [r0, #1288]	; 0x508
 8006b10:	f7ff bc5e 	b.w	80063d0 <USBD_LL_Resume>

08006b14 <HAL_PCD_ISOOUTIncompleteCallback>:
 8006b14:	f8d0 0508 	ldr.w	r0, [r0, #1288]	; 0x508
 8006b18:	f7ff bc8e 	b.w	8006438 <USBD_LL_IsoOUTIncomplete>

08006b1c <HAL_PCD_ISOINIncompleteCallback>:
 8006b1c:	f8d0 0508 	ldr.w	r0, [r0, #1288]	; 0x508
 8006b20:	f7ff bc76 	b.w	8006410 <USBD_LL_IsoINIncomplete>

08006b24 <HAL_PCD_ConnectCallback>:
 8006b24:	f8d0 0508 	ldr.w	r0, [r0, #1288]	; 0x508
 8006b28:	f7ff bc9a 	b.w	8006460 <USBD_LL_DevConnected>

08006b2c <HAL_PCD_DisconnectCallback>:
 8006b2c:	f8d0 0508 	ldr.w	r0, [r0, #1288]	; 0x508
 8006b30:	f7ff bc98 	b.w	8006464 <USBD_LL_DevDisconnected>

08006b34 <USBD_LL_Init>:
 8006b34:	b538      	push	{r3, r4, r5, lr}
 8006b36:	4c17      	ldr	r4, [pc, #92]	; (8006b94 <USBD_LL_Init+0x60>)
 8006b38:	4b17      	ldr	r3, [pc, #92]	; (8006b98 <USBD_LL_Init+0x64>)
 8006b3a:	6023      	str	r3, [r4, #0]
 8006b3c:	7805      	ldrb	r5, [r0, #0]
 8006b3e:	b10d      	cbz	r5, 8006b44 <USBD_LL_Init+0x10>
 8006b40:	2000      	movs	r0, #0
 8006b42:	bd38      	pop	{r3, r4, r5, pc}
 8006b44:	f8c3 0508 	str.w	r0, [r3, #1288]	; 0x508
 8006b48:	2180      	movs	r1, #128	; 0x80
 8006b4a:	f8c0 3310 	str.w	r3, [r0, #784]	; 0x310
 8006b4e:	4618      	mov	r0, r3
 8006b50:	f7fc fdc0 	bl	80036d4 <HAL_PCDEx_SetRxFiFo>
 8006b54:	4629      	mov	r1, r5
 8006b56:	6820      	ldr	r0, [r4, #0]
 8006b58:	2210      	movs	r2, #16
 8006b5a:	f7fc fd91 	bl	8003680 <HAL_PCDEx_SetTxFiFo>
 8006b5e:	4b0f      	ldr	r3, [pc, #60]	; (8006b9c <USBD_LL_Init+0x68>)
 8006b60:	6820      	ldr	r0, [r4, #0]
 8006b62:	7819      	ldrb	r1, [r3, #0]
 8006b64:	2210      	movs	r2, #16
 8006b66:	f001 017f 	and.w	r1, r1, #127	; 0x7f
 8006b6a:	f7fc fd89 	bl	8003680 <HAL_PCDEx_SetTxFiFo>
 8006b6e:	4b0c      	ldr	r3, [pc, #48]	; (8006ba0 <USBD_LL_Init+0x6c>)
 8006b70:	6820      	ldr	r0, [r4, #0]
 8006b72:	7819      	ldrb	r1, [r3, #0]
 8006b74:	2220      	movs	r2, #32
 8006b76:	f001 017f 	and.w	r1, r1, #127	; 0x7f
 8006b7a:	f7fc fd81 	bl	8003680 <HAL_PCDEx_SetTxFiFo>
 8006b7e:	4b09      	ldr	r3, [pc, #36]	; (8006ba4 <USBD_LL_Init+0x70>)
 8006b80:	6820      	ldr	r0, [r4, #0]
 8006b82:	7819      	ldrb	r1, [r3, #0]
 8006b84:	2210      	movs	r2, #16
 8006b86:	f001 017f 	and.w	r1, r1, #127	; 0x7f
 8006b8a:	f7fc fd79 	bl	8003680 <HAL_PCDEx_SetTxFiFo>
 8006b8e:	2000      	movs	r0, #0
 8006b90:	bd38      	pop	{r3, r4, r5, pc}
 8006b92:	bf00      	nop
 8006b94:	20002ca0 	.word	0x20002ca0
 8006b98:	20001e98 	.word	0x20001e98
 8006b9c:	2000029f 	.word	0x2000029f
 8006ba0:	20002b74 	.word	0x20002b74
 8006ba4:	20002b68 	.word	0x20002b68

08006ba8 <USBD_LL_Start>:
 8006ba8:	b508      	push	{r3, lr}
 8006baa:	f8d0 0310 	ldr.w	r0, [r0, #784]	; 0x310
 8006bae:	f7fb fe65 	bl	800287c <HAL_PCD_Start>
 8006bb2:	2803      	cmp	r0, #3
 8006bb4:	bf96      	itet	ls
 8006bb6:	4b02      	ldrls	r3, [pc, #8]	; (8006bc0 <USBD_LL_Start+0x18>)
 8006bb8:	2003      	movhi	r0, #3
 8006bba:	5c18      	ldrbls	r0, [r3, r0]
 8006bbc:	bd08      	pop	{r3, pc}
 8006bbe:	bf00      	nop
 8006bc0:	080097ec 	.word	0x080097ec

08006bc4 <USBD_LL_OpenEP>:
 8006bc4:	4694      	mov	ip, r2
 8006bc6:	b508      	push	{r3, lr}
 8006bc8:	461a      	mov	r2, r3
 8006bca:	f8d0 0310 	ldr.w	r0, [r0, #784]	; 0x310
 8006bce:	4663      	mov	r3, ip
 8006bd0:	f7fc fc14 	bl	80033fc <HAL_PCD_EP_Open>
 8006bd4:	2803      	cmp	r0, #3
 8006bd6:	bf96      	itet	ls
 8006bd8:	4b01      	ldrls	r3, [pc, #4]	; (8006be0 <USBD_LL_OpenEP+0x1c>)
 8006bda:	2003      	movhi	r0, #3
 8006bdc:	5c18      	ldrbls	r0, [r3, r0]
 8006bde:	bd08      	pop	{r3, pc}
 8006be0:	080097ec 	.word	0x080097ec

08006be4 <USBD_LL_CloseEP>:
 8006be4:	b508      	push	{r3, lr}
 8006be6:	f8d0 0310 	ldr.w	r0, [r0, #784]	; 0x310
 8006bea:	f7fc fc45 	bl	8003478 <HAL_PCD_EP_Close>
 8006bee:	2803      	cmp	r0, #3
 8006bf0:	bf96      	itet	ls
 8006bf2:	4b02      	ldrls	r3, [pc, #8]	; (8006bfc <USBD_LL_CloseEP+0x18>)
 8006bf4:	2003      	movhi	r0, #3
 8006bf6:	5c18      	ldrbls	r0, [r3, r0]
 8006bf8:	bd08      	pop	{r3, pc}
 8006bfa:	bf00      	nop
 8006bfc:	080097ec 	.word	0x080097ec

08006c00 <USBD_LL_StallEP>:
 8006c00:	b508      	push	{r3, lr}
 8006c02:	f8d0 0310 	ldr.w	r0, [r0, #784]	; 0x310
 8006c06:	f7fc fcbf 	bl	8003588 <HAL_PCD_EP_SetStall>
 8006c0a:	2803      	cmp	r0, #3
 8006c0c:	bf96      	itet	ls
 8006c0e:	4b02      	ldrls	r3, [pc, #8]	; (8006c18 <USBD_LL_StallEP+0x18>)
 8006c10:	2003      	movhi	r0, #3
 8006c12:	5c18      	ldrbls	r0, [r3, r0]
 8006c14:	bd08      	pop	{r3, pc}
 8006c16:	bf00      	nop
 8006c18:	080097ec 	.word	0x080097ec

08006c1c <USBD_LL_ClearStallEP>:
 8006c1c:	b508      	push	{r3, lr}
 8006c1e:	f8d0 0310 	ldr.w	r0, [r0, #784]	; 0x310
 8006c22:	f7fc fcf5 	bl	8003610 <HAL_PCD_EP_ClrStall>
 8006c26:	2803      	cmp	r0, #3
 8006c28:	bf96      	itet	ls
 8006c2a:	4b02      	ldrls	r3, [pc, #8]	; (8006c34 <USBD_LL_ClearStallEP+0x18>)
 8006c2c:	2003      	movhi	r0, #3
 8006c2e:	5c18      	ldrbls	r0, [r3, r0]
 8006c30:	bd08      	pop	{r3, pc}
 8006c32:	bf00      	nop
 8006c34:	080097ec 	.word	0x080097ec

08006c38 <USBD_LL_IsStallEP>:
 8006c38:	060a      	lsls	r2, r1, #24
 8006c3a:	f8d0 3310 	ldr.w	r3, [r0, #784]	; 0x310
 8006c3e:	d406      	bmi.n	8006c4e <USBD_LL_IsStallEP+0x16>
 8006c40:	eb01 01c1 	add.w	r1, r1, r1, lsl #3
 8006c44:	eb03 0181 	add.w	r1, r3, r1, lsl #2
 8006c48:	f891 027e 	ldrb.w	r0, [r1, #638]	; 0x27e
 8006c4c:	4770      	bx	lr
 8006c4e:	f001 017f 	and.w	r1, r1, #127	; 0x7f
 8006c52:	eb01 01c1 	add.w	r1, r1, r1, lsl #3
 8006c56:	eb03 0181 	add.w	r1, r3, r1, lsl #2
 8006c5a:	f891 003e 	ldrb.w	r0, [r1, #62]	; 0x3e
 8006c5e:	4770      	bx	lr

08006c60 <USBD_LL_SetUSBAddress>:
 8006c60:	b508      	push	{r3, lr}
 8006c62:	f8d0 0310 	ldr.w	r0, [r0, #784]	; 0x310
 8006c66:	f7fc fbb5 	bl	80033d4 <HAL_PCD_SetAddress>
 8006c6a:	2803      	cmp	r0, #3
 8006c6c:	bf96      	itet	ls
 8006c6e:	4b02      	ldrls	r3, [pc, #8]	; (8006c78 <USBD_LL_SetUSBAddress+0x18>)
 8006c70:	2003      	movhi	r0, #3
 8006c72:	5c18      	ldrbls	r0, [r3, r0]
 8006c74:	bd08      	pop	{r3, pc}
 8006c76:	bf00      	nop
 8006c78:	080097ec 	.word	0x080097ec

08006c7c <USBD_LL_Transmit>:
 8006c7c:	b508      	push	{r3, lr}
 8006c7e:	f8d0 0310 	ldr.w	r0, [r0, #784]	; 0x310
 8006c82:	f7fc fc59 	bl	8003538 <HAL_PCD_EP_Transmit>
 8006c86:	2803      	cmp	r0, #3
 8006c88:	bf96      	itet	ls
 8006c8a:	4b02      	ldrls	r3, [pc, #8]	; (8006c94 <USBD_LL_Transmit+0x18>)
 8006c8c:	2003      	movhi	r0, #3
 8006c8e:	5c18      	ldrbls	r0, [r3, r0]
 8006c90:	bd08      	pop	{r3, pc}
 8006c92:	bf00      	nop
 8006c94:	080097ec 	.word	0x080097ec

08006c98 <USBD_LL_PrepareReceive>:
 8006c98:	b508      	push	{r3, lr}
 8006c9a:	f8d0 0310 	ldr.w	r0, [r0, #784]	; 0x310
 8006c9e:	f7fc fc19 	bl	80034d4 <HAL_PCD_EP_Receive>
 8006ca2:	2803      	cmp	r0, #3
 8006ca4:	bf96      	itet	ls
 8006ca6:	4b02      	ldrls	r3, [pc, #8]	; (8006cb0 <USBD_LL_PrepareReceive+0x18>)
 8006ca8:	2003      	movhi	r0, #3
 8006caa:	5c18      	ldrbls	r0, [r3, r0]
 8006cac:	bd08      	pop	{r3, pc}
 8006cae:	bf00      	nop
 8006cb0:	080097ec 	.word	0x080097ec

08006cb4 <USBD_LL_GetRxDataSize>:
 8006cb4:	f8d0 0310 	ldr.w	r0, [r0, #784]	; 0x310
 8006cb8:	f7fc bc34 	b.w	8003524 <HAL_PCD_EP_GetRxCount>

08006cbc <SysTick_Handler>:
 8006cbc:	b508      	push	{r3, lr}
 8006cbe:	f04f 23e0 	mov.w	r3, #3758153728	; 0xe000e000
 8006cc2:	691b      	ldr	r3, [r3, #16]
 8006cc4:	f001 fad0 	bl	8008268 <xTaskGetSchedulerState>
 8006cc8:	2801      	cmp	r0, #1
 8006cca:	d100      	bne.n	8006cce <SysTick_Handler+0x12>
 8006ccc:	bd08      	pop	{r3, pc}
 8006cce:	e8bd 4008 	ldmia.w	sp!, {r3, lr}
 8006cd2:	f001 bddf 	b.w	8008894 <xPortSysTickHandler>
 8006cd6:	bf00      	nop

08006cd8 <osKernelInitialize>:
 8006cd8:	f3ef 8305 	mrs	r3, IPSR
 8006cdc:	b92b      	cbnz	r3, 8006cea <osKernelInitialize+0x12>
 8006cde:	4b06      	ldr	r3, [pc, #24]	; (8006cf8 <osKernelInitialize+0x20>)
 8006ce0:	6818      	ldr	r0, [r3, #0]
 8006ce2:	b928      	cbnz	r0, 8006cf0 <osKernelInitialize+0x18>
 8006ce4:	2201      	movs	r2, #1
 8006ce6:	601a      	str	r2, [r3, #0]
 8006ce8:	4770      	bx	lr
 8006cea:	f06f 0005 	mvn.w	r0, #5
 8006cee:	4770      	bx	lr
 8006cf0:	f04f 30ff 	mov.w	r0, #4294967295
 8006cf4:	4770      	bx	lr
 8006cf6:	bf00      	nop
 8006cf8:	20002f00 	.word	0x20002f00

08006cfc <osKernelStart>:
 8006cfc:	b510      	push	{r4, lr}
 8006cfe:	f3ef 8405 	mrs	r4, IPSR
 8006d02:	b974      	cbnz	r4, 8006d22 <osKernelStart+0x26>
 8006d04:	4b08      	ldr	r3, [pc, #32]	; (8006d28 <osKernelStart+0x2c>)
 8006d06:	681a      	ldr	r2, [r3, #0]
 8006d08:	2a01      	cmp	r2, #1
 8006d0a:	d107      	bne.n	8006d1c <osKernelStart+0x20>
 8006d0c:	4907      	ldr	r1, [pc, #28]	; (8006d2c <osKernelStart+0x30>)
 8006d0e:	2202      	movs	r2, #2
 8006d10:	77cc      	strb	r4, [r1, #31]
 8006d12:	601a      	str	r2, [r3, #0]
 8006d14:	f001 f878 	bl	8007e08 <vTaskStartScheduler>
 8006d18:	4620      	mov	r0, r4
 8006d1a:	bd10      	pop	{r4, pc}
 8006d1c:	f04f 30ff 	mov.w	r0, #4294967295
 8006d20:	bd10      	pop	{r4, pc}
 8006d22:	f06f 0005 	mvn.w	r0, #5
 8006d26:	bd10      	pop	{r4, pc}
 8006d28:	20002f00 	.word	0x20002f00
 8006d2c:	e000ed00 	.word	0xe000ed00

08006d30 <osThreadNew>:
 8006d30:	b5f0      	push	{r4, r5, r6, r7, lr}
 8006d32:	b087      	sub	sp, #28
 8006d34:	2400      	movs	r4, #0
 8006d36:	4615      	mov	r5, r2
 8006d38:	9405      	str	r4, [sp, #20]
 8006d3a:	f3ef 8205 	mrs	r2, IPSR
 8006d3e:	b9ea      	cbnz	r2, 8006d7c <osThreadNew+0x4c>
 8006d40:	b350      	cbz	r0, 8006d98 <osThreadNew+0x68>
 8006d42:	b1f5      	cbz	r5, 8006d82 <osThreadNew+0x52>
 8006d44:	69ab      	ldr	r3, [r5, #24]
 8006d46:	bb5b      	cbnz	r3, 8006da0 <osThreadNew+0x70>
 8006d48:	2318      	movs	r3, #24
 8006d4a:	686a      	ldr	r2, [r5, #4]
 8006d4c:	07d2      	lsls	r2, r2, #31
 8006d4e:	d423      	bmi.n	8006d98 <osThreadNew+0x68>
 8006d50:	696e      	ldr	r6, [r5, #20]
 8006d52:	b34e      	cbz	r6, 8006da8 <osThreadNew+0x78>
 8006d54:	ea4f 0c96 	mov.w	ip, r6, lsr #2
 8006d58:	68ac      	ldr	r4, [r5, #8]
 8006d5a:	682f      	ldr	r7, [r5, #0]
 8006d5c:	b34c      	cbz	r4, 8006db2 <osThreadNew+0x82>
 8006d5e:	68ea      	ldr	r2, [r5, #12]
 8006d60:	2a5b      	cmp	r2, #91	; 0x5b
 8006d62:	d919      	bls.n	8006d98 <osThreadNew+0x68>
 8006d64:	692d      	ldr	r5, [r5, #16]
 8006d66:	b1bd      	cbz	r5, 8006d98 <osThreadNew+0x68>
 8006d68:	b1b6      	cbz	r6, 8006d98 <osThreadNew+0x68>
 8006d6a:	e9cd 5401 	strd	r5, r4, [sp, #4]
 8006d6e:	9300      	str	r3, [sp, #0]
 8006d70:	4662      	mov	r2, ip
 8006d72:	460b      	mov	r3, r1
 8006d74:	4639      	mov	r1, r7
 8006d76:	f000 ff85 	bl	8007c84 <xTaskCreateStatic>
 8006d7a:	4604      	mov	r4, r0
 8006d7c:	4620      	mov	r0, r4
 8006d7e:	b007      	add	sp, #28
 8006d80:	bdf0      	pop	{r4, r5, r6, r7, pc}
 8006d82:	2280      	movs	r2, #128	; 0x80
 8006d84:	2318      	movs	r3, #24
 8006d86:	ac05      	add	r4, sp, #20
 8006d88:	9300      	str	r3, [sp, #0]
 8006d8a:	9401      	str	r4, [sp, #4]
 8006d8c:	460b      	mov	r3, r1
 8006d8e:	4629      	mov	r1, r5
 8006d90:	f000 ffb2 	bl	8007cf8 <xTaskCreate>
 8006d94:	2801      	cmp	r0, #1
 8006d96:	d00a      	beq.n	8006dae <osThreadNew+0x7e>
 8006d98:	2400      	movs	r4, #0
 8006d9a:	4620      	mov	r0, r4
 8006d9c:	b007      	add	sp, #28
 8006d9e:	bdf0      	pop	{r4, r5, r6, r7, pc}
 8006da0:	1e5c      	subs	r4, r3, #1
 8006da2:	2c37      	cmp	r4, #55	; 0x37
 8006da4:	d9d1      	bls.n	8006d4a <osThreadNew+0x1a>
 8006da6:	e7f7      	b.n	8006d98 <osThreadNew+0x68>
 8006da8:	f04f 0c80 	mov.w	ip, #128	; 0x80
 8006dac:	e7d4      	b.n	8006d58 <osThreadNew+0x28>
 8006dae:	9c05      	ldr	r4, [sp, #20]
 8006db0:	e7e4      	b.n	8006d7c <osThreadNew+0x4c>
 8006db2:	68ee      	ldr	r6, [r5, #12]
 8006db4:	2e00      	cmp	r6, #0
 8006db6:	d1e1      	bne.n	8006d7c <osThreadNew+0x4c>
 8006db8:	692d      	ldr	r5, [r5, #16]
 8006dba:	2d00      	cmp	r5, #0
 8006dbc:	d1de      	bne.n	8006d7c <osThreadNew+0x4c>
 8006dbe:	fa1f f28c 	uxth.w	r2, ip
 8006dc2:	463d      	mov	r5, r7
 8006dc4:	e7df      	b.n	8006d86 <osThreadNew+0x56>
 8006dc6:	bf00      	nop

08006dc8 <osDelay>:
 8006dc8:	b510      	push	{r4, lr}
 8006dca:	f3ef 8405 	mrs	r4, IPSR
 8006dce:	b92c      	cbnz	r4, 8006ddc <osDelay+0x14>
 8006dd0:	b900      	cbnz	r0, 8006dd4 <osDelay+0xc>
 8006dd2:	bd10      	pop	{r4, pc}
 8006dd4:	f000 ffc2 	bl	8007d5c <vTaskDelay>
 8006dd8:	4620      	mov	r0, r4
 8006dda:	bd10      	pop	{r4, pc}
 8006ddc:	f06f 0005 	mvn.w	r0, #5
 8006de0:	bd10      	pop	{r4, pc}
 8006de2:	bf00      	nop

08006de4 <vApplicationGetIdleTaskMemory>:
 8006de4:	4b04      	ldr	r3, [pc, #16]	; (8006df8 <vApplicationGetIdleTaskMemory+0x14>)
 8006de6:	6003      	str	r3, [r0, #0]
 8006de8:	b410      	push	{r4}
 8006dea:	2380      	movs	r3, #128	; 0x80
 8006dec:	4c03      	ldr	r4, [pc, #12]	; (8006dfc <vApplicationGetIdleTaskMemory+0x18>)
 8006dee:	600c      	str	r4, [r1, #0]
 8006df0:	f85d 4b04 	ldr.w	r4, [sp], #4
 8006df4:	6013      	str	r3, [r2, #0]
 8006df6:	4770      	bx	lr
 8006df8:	20002ea4 	.word	0x20002ea4
 8006dfc:	20002ca4 	.word	0x20002ca4

08006e00 <vApplicationGetTimerTaskMemory>:
 8006e00:	4b05      	ldr	r3, [pc, #20]	; (8006e18 <vApplicationGetTimerTaskMemory+0x18>)
 8006e02:	6003      	str	r3, [r0, #0]
 8006e04:	b410      	push	{r4}
 8006e06:	f44f 7380 	mov.w	r3, #256	; 0x100
 8006e0a:	4c04      	ldr	r4, [pc, #16]	; (8006e1c <vApplicationGetTimerTaskMemory+0x1c>)
 8006e0c:	600c      	str	r4, [r1, #0]
 8006e0e:	f85d 4b04 	ldr.w	r4, [sp], #4
 8006e12:	6013      	str	r3, [r2, #0]
 8006e14:	4770      	bx	lr
 8006e16:	bf00      	nop
 8006e18:	20003304 	.word	0x20003304
 8006e1c:	20002f04 	.word	0x20002f04

08006e20 <vListInitialise>:
 8006e20:	f100 0308 	add.w	r3, r0, #8
 8006e24:	f04f 31ff 	mov.w	r1, #4294967295
 8006e28:	2200      	movs	r2, #0
 8006e2a:	e9c0 3101 	strd	r3, r1, [r0, #4]
 8006e2e:	e9c0 3303 	strd	r3, r3, [r0, #12]
 8006e32:	6002      	str	r2, [r0, #0]
 8006e34:	4770      	bx	lr
 8006e36:	bf00      	nop

08006e38 <vListInitialiseItem>:
 8006e38:	2300      	movs	r3, #0
 8006e3a:	6103      	str	r3, [r0, #16]
 8006e3c:	4770      	bx	lr
 8006e3e:	bf00      	nop

08006e40 <vListInsertEnd>:
 8006e40:	6843      	ldr	r3, [r0, #4]
 8006e42:	689a      	ldr	r2, [r3, #8]
 8006e44:	608a      	str	r2, [r1, #8]
 8006e46:	6802      	ldr	r2, [r0, #0]
 8006e48:	b410      	push	{r4}
 8006e4a:	689c      	ldr	r4, [r3, #8]
 8006e4c:	604b      	str	r3, [r1, #4]
 8006e4e:	3201      	adds	r2, #1
 8006e50:	6061      	str	r1, [r4, #4]
 8006e52:	6099      	str	r1, [r3, #8]
 8006e54:	f85d 4b04 	ldr.w	r4, [sp], #4
 8006e58:	6108      	str	r0, [r1, #16]
 8006e5a:	6002      	str	r2, [r0, #0]
 8006e5c:	4770      	bx	lr
 8006e5e:	bf00      	nop

08006e60 <vListInsert>:
 8006e60:	b430      	push	{r4, r5}
 8006e62:	680d      	ldr	r5, [r1, #0]
 8006e64:	1c6b      	adds	r3, r5, #1
 8006e66:	d010      	beq.n	8006e8a <vListInsert+0x2a>
 8006e68:	f100 0308 	add.w	r3, r0, #8
 8006e6c:	461c      	mov	r4, r3
 8006e6e:	685b      	ldr	r3, [r3, #4]
 8006e70:	681a      	ldr	r2, [r3, #0]
 8006e72:	42aa      	cmp	r2, r5
 8006e74:	d9fa      	bls.n	8006e6c <vListInsert+0xc>
 8006e76:	6802      	ldr	r2, [r0, #0]
 8006e78:	604b      	str	r3, [r1, #4]
 8006e7a:	3201      	adds	r2, #1
 8006e7c:	6099      	str	r1, [r3, #8]
 8006e7e:	608c      	str	r4, [r1, #8]
 8006e80:	6061      	str	r1, [r4, #4]
 8006e82:	6108      	str	r0, [r1, #16]
 8006e84:	bc30      	pop	{r4, r5}
 8006e86:	6002      	str	r2, [r0, #0]
 8006e88:	4770      	bx	lr
 8006e8a:	6904      	ldr	r4, [r0, #16]
 8006e8c:	6863      	ldr	r3, [r4, #4]
 8006e8e:	e7f2      	b.n	8006e76 <vListInsert+0x16>

08006e90 <uxListRemove>:
 8006e90:	6903      	ldr	r3, [r0, #16]
 8006e92:	b410      	push	{r4}
 8006e94:	e9d0 1201 	ldrd	r1, r2, [r0, #4]
 8006e98:	685c      	ldr	r4, [r3, #4]
 8006e9a:	608a      	str	r2, [r1, #8]
 8006e9c:	4284      	cmp	r4, r0
 8006e9e:	6051      	str	r1, [r2, #4]
 8006ea0:	bf08      	it	eq
 8006ea2:	605a      	streq	r2, [r3, #4]
 8006ea4:	681a      	ldr	r2, [r3, #0]
 8006ea6:	f85d 4b04 	ldr.w	r4, [sp], #4
 8006eaa:	2100      	movs	r1, #0
 8006eac:	3a01      	subs	r2, #1
 8006eae:	6101      	str	r1, [r0, #16]
 8006eb0:	601a      	str	r2, [r3, #0]
 8006eb2:	6818      	ldr	r0, [r3, #0]
 8006eb4:	4770      	bx	lr
 8006eb6:	bf00      	nop

08006eb8 <prvCopyDataToQueue>:
 8006eb8:	b570      	push	{r4, r5, r6, lr}
 8006eba:	4604      	mov	r4, r0
 8006ebc:	6c00      	ldr	r0, [r0, #64]	; 0x40
 8006ebe:	6ba6      	ldr	r6, [r4, #56]	; 0x38
 8006ec0:	b920      	cbnz	r0, 8006ecc <prvCopyDataToQueue+0x14>
 8006ec2:	6825      	ldr	r5, [r4, #0]
 8006ec4:	b34d      	cbz	r5, 8006f1a <prvCopyDataToQueue+0x62>
 8006ec6:	3601      	adds	r6, #1
 8006ec8:	63a6      	str	r6, [r4, #56]	; 0x38
 8006eca:	bd70      	pop	{r4, r5, r6, pc}
 8006ecc:	4615      	mov	r5, r2
 8006ece:	4602      	mov	r2, r0
 8006ed0:	b97d      	cbnz	r5, 8006ef2 <prvCopyDataToQueue+0x3a>
 8006ed2:	6860      	ldr	r0, [r4, #4]
 8006ed4:	f001 feec 	bl	8008cb0 <memcpy>
 8006ed8:	6863      	ldr	r3, [r4, #4]
 8006eda:	6c22      	ldr	r2, [r4, #64]	; 0x40
 8006edc:	4413      	add	r3, r2
 8006ede:	68a2      	ldr	r2, [r4, #8]
 8006ee0:	6063      	str	r3, [r4, #4]
 8006ee2:	4293      	cmp	r3, r2
 8006ee4:	bf24      	itt	cs
 8006ee6:	6823      	ldrcs	r3, [r4, #0]
 8006ee8:	6063      	strcs	r3, [r4, #4]
 8006eea:	3601      	adds	r6, #1
 8006eec:	4628      	mov	r0, r5
 8006eee:	63a6      	str	r6, [r4, #56]	; 0x38
 8006ef0:	bd70      	pop	{r4, r5, r6, pc}
 8006ef2:	68e0      	ldr	r0, [r4, #12]
 8006ef4:	f001 fedc 	bl	8008cb0 <memcpy>
 8006ef8:	6c22      	ldr	r2, [r4, #64]	; 0x40
 8006efa:	68e3      	ldr	r3, [r4, #12]
 8006efc:	4251      	negs	r1, r2
 8006efe:	1a9b      	subs	r3, r3, r2
 8006f00:	6822      	ldr	r2, [r4, #0]
 8006f02:	60e3      	str	r3, [r4, #12]
 8006f04:	4293      	cmp	r3, r2
 8006f06:	d202      	bcs.n	8006f0e <prvCopyDataToQueue+0x56>
 8006f08:	68a3      	ldr	r3, [r4, #8]
 8006f0a:	440b      	add	r3, r1
 8006f0c:	60e3      	str	r3, [r4, #12]
 8006f0e:	2d02      	cmp	r5, #2
 8006f10:	d008      	beq.n	8006f24 <prvCopyDataToQueue+0x6c>
 8006f12:	3601      	adds	r6, #1
 8006f14:	2000      	movs	r0, #0
 8006f16:	63a6      	str	r6, [r4, #56]	; 0x38
 8006f18:	bd70      	pop	{r4, r5, r6, pc}
 8006f1a:	68a0      	ldr	r0, [r4, #8]
 8006f1c:	f001 f9b4 	bl	8008288 <xTaskPriorityDisinherit>
 8006f20:	60a5      	str	r5, [r4, #8]
 8006f22:	e7d0      	b.n	8006ec6 <prvCopyDataToQueue+0xe>
 8006f24:	2e01      	cmp	r6, #1
 8006f26:	bf38      	it	cc
 8006f28:	2601      	movcc	r6, #1
 8006f2a:	2000      	movs	r0, #0
 8006f2c:	e7cc      	b.n	8006ec8 <prvCopyDataToQueue+0x10>
 8006f2e:	bf00      	nop

08006f30 <xQueueGenericCreateStatic>:
 8006f30:	b530      	push	{r4, r5, lr}
 8006f32:	b083      	sub	sp, #12
 8006f34:	f89d 4018 	ldrb.w	r4, [sp, #24]
 8006f38:	b940      	cbnz	r0, 8006f4c <xQueueGenericCreateStatic+0x1c>
 8006f3a:	f04f 0350 	mov.w	r3, #80	; 0x50
 8006f3e:	f383 8811 	msr	BASEPRI, r3
 8006f42:	f3bf 8f6f 	isb	sy
 8006f46:	f3bf 8f4f 	dsb	sy
 8006f4a:	e7fe      	b.n	8006f4a <xQueueGenericCreateStatic+0x1a>
 8006f4c:	461d      	mov	r5, r3
 8006f4e:	b17b      	cbz	r3, 8006f70 <xQueueGenericCreateStatic+0x40>
 8006f50:	b302      	cbz	r2, 8006f94 <xQueueGenericCreateStatic+0x64>
 8006f52:	b1b1      	cbz	r1, 8006f82 <xQueueGenericCreateStatic+0x52>
 8006f54:	2350      	movs	r3, #80	; 0x50
 8006f56:	9301      	str	r3, [sp, #4]
 8006f58:	9b01      	ldr	r3, [sp, #4]
 8006f5a:	2b50      	cmp	r3, #80	; 0x50
 8006f5c:	d027      	beq.n	8006fae <xQueueGenericCreateStatic+0x7e>
 8006f5e:	f04f 0350 	mov.w	r3, #80	; 0x50
 8006f62:	f383 8811 	msr	BASEPRI, r3
 8006f66:	f3bf 8f6f 	isb	sy
 8006f6a:	f3bf 8f4f 	dsb	sy
 8006f6e:	e7fe      	b.n	8006f6e <xQueueGenericCreateStatic+0x3e>
 8006f70:	f04f 0350 	mov.w	r3, #80	; 0x50
 8006f74:	f383 8811 	msr	BASEPRI, r3
 8006f78:	f3bf 8f6f 	isb	sy
 8006f7c:	f3bf 8f4f 	dsb	sy
 8006f80:	e7fe      	b.n	8006f80 <xQueueGenericCreateStatic+0x50>
 8006f82:	f04f 0350 	mov.w	r3, #80	; 0x50
 8006f86:	f383 8811 	msr	BASEPRI, r3
 8006f8a:	f3bf 8f6f 	isb	sy
 8006f8e:	f3bf 8f4f 	dsb	sy
 8006f92:	e7fe      	b.n	8006f92 <xQueueGenericCreateStatic+0x62>
 8006f94:	2900      	cmp	r1, #0
 8006f96:	d135      	bne.n	8007004 <xQueueGenericCreateStatic+0xd4>
 8006f98:	2250      	movs	r2, #80	; 0x50
 8006f9a:	9201      	str	r2, [sp, #4]
 8006f9c:	9a01      	ldr	r2, [sp, #4]
 8006f9e:	2a50      	cmp	r2, #80	; 0x50
 8006fa0:	d1dd      	bne.n	8006f5e <xQueueGenericCreateStatic+0x2e>
 8006fa2:	2201      	movs	r2, #1
 8006fa4:	f885 2046 	strb.w	r2, [r5, #70]	; 0x46
 8006fa8:	9b01      	ldr	r3, [sp, #4]
 8006faa:	462a      	mov	r2, r5
 8006fac:	e004      	b.n	8006fb8 <xQueueGenericCreateStatic+0x88>
 8006fae:	f04f 0c01 	mov.w	ip, #1
 8006fb2:	9b01      	ldr	r3, [sp, #4]
 8006fb4:	f885 c046 	strb.w	ip, [r5, #70]	; 0x46
 8006fb8:	e9c5 010f 	strd	r0, r1, [r5, #60]	; 0x3c
 8006fbc:	602a      	str	r2, [r5, #0]
 8006fbe:	f001 fc01 	bl	80087c4 <vPortEnterCritical>
 8006fc2:	e9d5 120f 	ldrd	r1, r2, [r5, #60]	; 0x3c
 8006fc6:	6828      	ldr	r0, [r5, #0]
 8006fc8:	6068      	str	r0, [r5, #4]
 8006fca:	fb02 f101 	mul.w	r1, r2, r1
 8006fce:	1a8a      	subs	r2, r1, r2
 8006fd0:	4401      	add	r1, r0
 8006fd2:	60a9      	str	r1, [r5, #8]
 8006fd4:	2100      	movs	r1, #0
 8006fd6:	4402      	add	r2, r0
 8006fd8:	63a9      	str	r1, [r5, #56]	; 0x38
 8006fda:	21ff      	movs	r1, #255	; 0xff
 8006fdc:	f885 1044 	strb.w	r1, [r5, #68]	; 0x44
 8006fe0:	60ea      	str	r2, [r5, #12]
 8006fe2:	f885 1045 	strb.w	r1, [r5, #69]	; 0x45
 8006fe6:	f105 0010 	add.w	r0, r5, #16
 8006fea:	f7ff ff19 	bl	8006e20 <vListInitialise>
 8006fee:	f105 0024 	add.w	r0, r5, #36	; 0x24
 8006ff2:	f7ff ff15 	bl	8006e20 <vListInitialise>
 8006ff6:	f001 fc07 	bl	8008808 <vPortExitCritical>
 8006ffa:	4628      	mov	r0, r5
 8006ffc:	f885 404c 	strb.w	r4, [r5, #76]	; 0x4c
 8007000:	b003      	add	sp, #12
 8007002:	bd30      	pop	{r4, r5, pc}
 8007004:	f04f 0350 	mov.w	r3, #80	; 0x50
 8007008:	f383 8811 	msr	BASEPRI, r3
 800700c:	f3bf 8f6f 	isb	sy
 8007010:	f3bf 8f4f 	dsb	sy
 8007014:	e7fe      	b.n	8007014 <xQueueGenericCreateStatic+0xe4>
 8007016:	bf00      	nop

08007018 <xQueueGenericSend>:
 8007018:	e92d 43f0 	stmdb	sp!, {r4, r5, r6, r7, r8, r9, lr}
 800701c:	b085      	sub	sp, #20
 800701e:	9201      	str	r2, [sp, #4]
 8007020:	2800      	cmp	r0, #0
 8007022:	f000 80a4 	beq.w	800716e <xQueueGenericSend+0x156>
 8007026:	4688      	mov	r8, r1
 8007028:	461f      	mov	r7, r3
 800702a:	4604      	mov	r4, r0
 800702c:	2900      	cmp	r1, #0
 800702e:	f000 8091 	beq.w	8007154 <xQueueGenericSend+0x13c>
 8007032:	2f02      	cmp	r7, #2
 8007034:	d10b      	bne.n	800704e <xQueueGenericSend+0x36>
 8007036:	6be3      	ldr	r3, [r4, #60]	; 0x3c
 8007038:	2b01      	cmp	r3, #1
 800703a:	d008      	beq.n	800704e <xQueueGenericSend+0x36>
 800703c:	f04f 0350 	mov.w	r3, #80	; 0x50
 8007040:	f383 8811 	msr	BASEPRI, r3
 8007044:	f3bf 8f6f 	isb	sy
 8007048:	f3bf 8f4f 	dsb	sy
 800704c:	e7fe      	b.n	800704c <xQueueGenericSend+0x34>
 800704e:	f001 f90b 	bl	8008268 <xTaskGetSchedulerState>
 8007052:	4605      	mov	r5, r0
 8007054:	2800      	cmp	r0, #0
 8007056:	f000 8093 	beq.w	8007180 <xQueueGenericSend+0x168>
 800705a:	2500      	movs	r5, #0
 800705c:	f104 0624 	add.w	r6, r4, #36	; 0x24
 8007060:	f001 fbb0 	bl	80087c4 <vPortEnterCritical>
 8007064:	6ba2      	ldr	r2, [r4, #56]	; 0x38
 8007066:	6be3      	ldr	r3, [r4, #60]	; 0x3c
 8007068:	429a      	cmp	r2, r3
 800706a:	f0c0 80ef 	bcc.w	800724c <xQueueGenericSend+0x234>
 800706e:	2f02      	cmp	r7, #2
 8007070:	f000 80ec 	beq.w	800724c <xQueueGenericSend+0x234>
 8007074:	9801      	ldr	r0, [sp, #4]
 8007076:	2800      	cmp	r0, #0
 8007078:	f000 8101 	beq.w	800727e <xQueueGenericSend+0x266>
 800707c:	2d00      	cmp	r5, #0
 800707e:	f000 80e1 	beq.w	8007244 <xQueueGenericSend+0x22c>
 8007082:	f001 fbc1 	bl	8008808 <vPortExitCritical>
 8007086:	f000 ff4d 	bl	8007f24 <vTaskSuspendAll>
 800708a:	f001 fb9b 	bl	80087c4 <vPortEnterCritical>
 800708e:	f894 3044 	ldrb.w	r3, [r4, #68]	; 0x44
 8007092:	2bff      	cmp	r3, #255	; 0xff
 8007094:	bf04      	itt	eq
 8007096:	2300      	moveq	r3, #0
 8007098:	f884 3044 	strbeq.w	r3, [r4, #68]	; 0x44
 800709c:	f894 3045 	ldrb.w	r3, [r4, #69]	; 0x45
 80070a0:	2bff      	cmp	r3, #255	; 0xff
 80070a2:	bf04      	itt	eq
 80070a4:	2300      	moveq	r3, #0
 80070a6:	f884 3045 	strbeq.w	r3, [r4, #69]	; 0x45
 80070aa:	f001 fbad 	bl	8008808 <vPortExitCritical>
 80070ae:	a901      	add	r1, sp, #4
 80070b0:	a802      	add	r0, sp, #8
 80070b2:	f001 f88b 	bl	80081cc <xTaskCheckForTimeOut>
 80070b6:	2800      	cmp	r0, #0
 80070b8:	f040 80e6 	bne.w	8007288 <xQueueGenericSend+0x270>
 80070bc:	f001 fb82 	bl	80087c4 <vPortEnterCritical>
 80070c0:	6ba2      	ldr	r2, [r4, #56]	; 0x38
 80070c2:	6be3      	ldr	r3, [r4, #60]	; 0x3c
 80070c4:	429a      	cmp	r2, r3
 80070c6:	d068      	beq.n	800719a <xQueueGenericSend+0x182>
 80070c8:	f001 fb9e 	bl	8008808 <vPortExitCritical>
 80070cc:	f001 fb7a 	bl	80087c4 <vPortEnterCritical>
 80070d0:	f894 2045 	ldrb.w	r2, [r4, #69]	; 0x45
 80070d4:	b255      	sxtb	r5, r2
 80070d6:	2d00      	cmp	r5, #0
 80070d8:	dc04      	bgt.n	80070e4 <xQueueGenericSend+0xcc>
 80070da:	e011      	b.n	8007100 <xQueueGenericSend+0xe8>
 80070dc:	1e6a      	subs	r2, r5, #1
 80070de:	b2d3      	uxtb	r3, r2
 80070e0:	b255      	sxtb	r5, r2
 80070e2:	b16b      	cbz	r3, 8007100 <xQueueGenericSend+0xe8>
 80070e4:	6a63      	ldr	r3, [r4, #36]	; 0x24
 80070e6:	4630      	mov	r0, r6
 80070e8:	b153      	cbz	r3, 8007100 <xQueueGenericSend+0xe8>
 80070ea:	f001 f81b 	bl	8008124 <xTaskRemoveFromEventList>
 80070ee:	2800      	cmp	r0, #0
 80070f0:	d0f4      	beq.n	80070dc <xQueueGenericSend+0xc4>
 80070f2:	f001 f8b3 	bl	800825c <vTaskMissedYield>
 80070f6:	1e6a      	subs	r2, r5, #1
 80070f8:	b2d3      	uxtb	r3, r2
 80070fa:	b255      	sxtb	r5, r2
 80070fc:	2b00      	cmp	r3, #0
 80070fe:	d1f1      	bne.n	80070e4 <xQueueGenericSend+0xcc>
 8007100:	23ff      	movs	r3, #255	; 0xff
 8007102:	f884 3045 	strb.w	r3, [r4, #69]	; 0x45
 8007106:	f001 fb7f 	bl	8008808 <vPortExitCritical>
 800710a:	f001 fb5b 	bl	80087c4 <vPortEnterCritical>
 800710e:	f894 2044 	ldrb.w	r2, [r4, #68]	; 0x44
 8007112:	b255      	sxtb	r5, r2
 8007114:	2d00      	cmp	r5, #0
 8007116:	dd14      	ble.n	8007142 <xQueueGenericSend+0x12a>
 8007118:	f104 0910 	add.w	r9, r4, #16
 800711c:	e003      	b.n	8007126 <xQueueGenericSend+0x10e>
 800711e:	1e6a      	subs	r2, r5, #1
 8007120:	b2d3      	uxtb	r3, r2
 8007122:	b255      	sxtb	r5, r2
 8007124:	b16b      	cbz	r3, 8007142 <xQueueGenericSend+0x12a>
 8007126:	6923      	ldr	r3, [r4, #16]
 8007128:	4648      	mov	r0, r9
 800712a:	b153      	cbz	r3, 8007142 <xQueueGenericSend+0x12a>
 800712c:	f000 fffa 	bl	8008124 <xTaskRemoveFromEventList>
 8007130:	2800      	cmp	r0, #0
 8007132:	d0f4      	beq.n	800711e <xQueueGenericSend+0x106>
 8007134:	f001 f892 	bl	800825c <vTaskMissedYield>
 8007138:	1e6a      	subs	r2, r5, #1
 800713a:	b2d3      	uxtb	r3, r2
 800713c:	b255      	sxtb	r5, r2
 800713e:	2b00      	cmp	r3, #0
 8007140:	d1f1      	bne.n	8007126 <xQueueGenericSend+0x10e>
 8007142:	23ff      	movs	r3, #255	; 0xff
 8007144:	f884 3044 	strb.w	r3, [r4, #68]	; 0x44
 8007148:	f001 fb5e 	bl	8008808 <vPortExitCritical>
 800714c:	f000 fef2 	bl	8007f34 <xTaskResumeAll>
 8007150:	2501      	movs	r5, #1
 8007152:	e785      	b.n	8007060 <xQueueGenericSend+0x48>
 8007154:	6c03      	ldr	r3, [r0, #64]	; 0x40
 8007156:	2b00      	cmp	r3, #0
 8007158:	f43f af6b 	beq.w	8007032 <xQueueGenericSend+0x1a>
 800715c:	f04f 0350 	mov.w	r3, #80	; 0x50
 8007160:	f383 8811 	msr	BASEPRI, r3
 8007164:	f3bf 8f6f 	isb	sy
 8007168:	f3bf 8f4f 	dsb	sy
 800716c:	e7fe      	b.n	800716c <xQueueGenericSend+0x154>
 800716e:	f04f 0350 	mov.w	r3, #80	; 0x50
 8007172:	f383 8811 	msr	BASEPRI, r3
 8007176:	f3bf 8f6f 	isb	sy
 800717a:	f3bf 8f4f 	dsb	sy
 800717e:	e7fe      	b.n	800717e <xQueueGenericSend+0x166>
 8007180:	9b01      	ldr	r3, [sp, #4]
 8007182:	2b00      	cmp	r3, #0
 8007184:	f43f af6a 	beq.w	800705c <xQueueGenericSend+0x44>
 8007188:	f04f 0350 	mov.w	r3, #80	; 0x50
 800718c:	f383 8811 	msr	BASEPRI, r3
 8007190:	f3bf 8f6f 	isb	sy
 8007194:	f3bf 8f4f 	dsb	sy
 8007198:	e7fe      	b.n	8007198 <xQueueGenericSend+0x180>
 800719a:	f104 0910 	add.w	r9, r4, #16
 800719e:	f001 fb33 	bl	8008808 <vPortExitCritical>
 80071a2:	9901      	ldr	r1, [sp, #4]
 80071a4:	4648      	mov	r0, r9
 80071a6:	f000 ff2f 	bl	8008008 <vTaskPlaceOnEventList>
 80071aa:	f001 fb0b 	bl	80087c4 <vPortEnterCritical>
 80071ae:	f894 3045 	ldrb.w	r3, [r4, #69]	; 0x45
 80071b2:	b25d      	sxtb	r5, r3
 80071b4:	2d00      	cmp	r5, #0
 80071b6:	dc04      	bgt.n	80071c2 <xQueueGenericSend+0x1aa>
 80071b8:	e011      	b.n	80071de <xQueueGenericSend+0x1c6>
 80071ba:	1e6b      	subs	r3, r5, #1
 80071bc:	b2da      	uxtb	r2, r3
 80071be:	b25d      	sxtb	r5, r3
 80071c0:	b16a      	cbz	r2, 80071de <xQueueGenericSend+0x1c6>
 80071c2:	6a63      	ldr	r3, [r4, #36]	; 0x24
 80071c4:	4630      	mov	r0, r6
 80071c6:	b153      	cbz	r3, 80071de <xQueueGenericSend+0x1c6>
 80071c8:	f000 ffac 	bl	8008124 <xTaskRemoveFromEventList>
 80071cc:	2800      	cmp	r0, #0
 80071ce:	d0f4      	beq.n	80071ba <xQueueGenericSend+0x1a2>
 80071d0:	f001 f844 	bl	800825c <vTaskMissedYield>
 80071d4:	1e6b      	subs	r3, r5, #1
 80071d6:	b2da      	uxtb	r2, r3
 80071d8:	b25d      	sxtb	r5, r3
 80071da:	2a00      	cmp	r2, #0
 80071dc:	d1f1      	bne.n	80071c2 <xQueueGenericSend+0x1aa>
 80071de:	23ff      	movs	r3, #255	; 0xff
 80071e0:	f884 3045 	strb.w	r3, [r4, #69]	; 0x45
 80071e4:	f001 fb10 	bl	8008808 <vPortExitCritical>
 80071e8:	f001 faec 	bl	80087c4 <vPortEnterCritical>
 80071ec:	f894 3044 	ldrb.w	r3, [r4, #68]	; 0x44
 80071f0:	b25d      	sxtb	r5, r3
 80071f2:	2d00      	cmp	r5, #0
 80071f4:	dc04      	bgt.n	8007200 <xQueueGenericSend+0x1e8>
 80071f6:	e011      	b.n	800721c <xQueueGenericSend+0x204>
 80071f8:	1e6b      	subs	r3, r5, #1
 80071fa:	b2da      	uxtb	r2, r3
 80071fc:	b25d      	sxtb	r5, r3
 80071fe:	b16a      	cbz	r2, 800721c <xQueueGenericSend+0x204>
 8007200:	6923      	ldr	r3, [r4, #16]
 8007202:	4648      	mov	r0, r9
 8007204:	b153      	cbz	r3, 800721c <xQueueGenericSend+0x204>
 8007206:	f000 ff8d 	bl	8008124 <xTaskRemoveFromEventList>
 800720a:	2800      	cmp	r0, #0
 800720c:	d0f4      	beq.n	80071f8 <xQueueGenericSend+0x1e0>
 800720e:	f001 f825 	bl	800825c <vTaskMissedYield>
 8007212:	1e6b      	subs	r3, r5, #1
 8007214:	b2da      	uxtb	r2, r3
 8007216:	b25d      	sxtb	r5, r3
 8007218:	2a00      	cmp	r2, #0
 800721a:	d1f1      	bne.n	8007200 <xQueueGenericSend+0x1e8>
 800721c:	23ff      	movs	r3, #255	; 0xff
 800721e:	f884 3044 	strb.w	r3, [r4, #68]	; 0x44
 8007222:	f001 faf1 	bl	8008808 <vPortExitCritical>
 8007226:	f000 fe85 	bl	8007f34 <xTaskResumeAll>
 800722a:	2800      	cmp	r0, #0
 800722c:	d190      	bne.n	8007150 <xQueueGenericSend+0x138>
 800722e:	f04f 23e0 	mov.w	r3, #3758153728	; 0xe000e000
 8007232:	f04f 5280 	mov.w	r2, #268435456	; 0x10000000
 8007236:	f8c3 2d04 	str.w	r2, [r3, #3332]	; 0xd04
 800723a:	f3bf 8f4f 	dsb	sy
 800723e:	f3bf 8f6f 	isb	sy
 8007242:	e785      	b.n	8007150 <xQueueGenericSend+0x138>
 8007244:	a802      	add	r0, sp, #8
 8007246:	f000 ffb5 	bl	80081b4 <vTaskInternalSetTimeOutState>
 800724a:	e71a      	b.n	8007082 <xQueueGenericSend+0x6a>
 800724c:	463a      	mov	r2, r7
 800724e:	4641      	mov	r1, r8
 8007250:	4620      	mov	r0, r4
 8007252:	f7ff fe31 	bl	8006eb8 <prvCopyDataToQueue>
 8007256:	6a63      	ldr	r3, [r4, #36]	; 0x24
 8007258:	2b00      	cmp	r3, #0
 800725a:	d153      	bne.n	8007304 <xQueueGenericSend+0x2ec>
 800725c:	b148      	cbz	r0, 8007272 <xQueueGenericSend+0x25a>
 800725e:	f04f 23e0 	mov.w	r3, #3758153728	; 0xe000e000
 8007262:	f04f 5280 	mov.w	r2, #268435456	; 0x10000000
 8007266:	f8c3 2d04 	str.w	r2, [r3, #3332]	; 0xd04
 800726a:	f3bf 8f4f 	dsb	sy
 800726e:	f3bf 8f6f 	isb	sy
 8007272:	f001 fac9 	bl	8008808 <vPortExitCritical>
 8007276:	2001      	movs	r0, #1
 8007278:	b005      	add	sp, #20
 800727a:	e8bd 83f0 	ldmia.w	sp!, {r4, r5, r6, r7, r8, r9, pc}
 800727e:	9000      	str	r0, [sp, #0]
 8007280:	f001 fac2 	bl	8008808 <vPortExitCritical>
 8007284:	9800      	ldr	r0, [sp, #0]
 8007286:	e7f7      	b.n	8007278 <xQueueGenericSend+0x260>
 8007288:	f001 fa9c 	bl	80087c4 <vPortEnterCritical>
 800728c:	f894 3045 	ldrb.w	r3, [r4, #69]	; 0x45
 8007290:	b25d      	sxtb	r5, r3
 8007292:	2d00      	cmp	r5, #0
 8007294:	dd10      	ble.n	80072b8 <xQueueGenericSend+0x2a0>
 8007296:	f104 0624 	add.w	r6, r4, #36	; 0x24
 800729a:	e003      	b.n	80072a4 <xQueueGenericSend+0x28c>
 800729c:	1e6b      	subs	r3, r5, #1
 800729e:	b2da      	uxtb	r2, r3
 80072a0:	b25d      	sxtb	r5, r3
 80072a2:	b14a      	cbz	r2, 80072b8 <xQueueGenericSend+0x2a0>
 80072a4:	6a63      	ldr	r3, [r4, #36]	; 0x24
 80072a6:	4630      	mov	r0, r6
 80072a8:	b133      	cbz	r3, 80072b8 <xQueueGenericSend+0x2a0>
 80072aa:	f000 ff3b 	bl	8008124 <xTaskRemoveFromEventList>
 80072ae:	2800      	cmp	r0, #0
 80072b0:	d0f4      	beq.n	800729c <xQueueGenericSend+0x284>
 80072b2:	f000 ffd3 	bl	800825c <vTaskMissedYield>
 80072b6:	e7f1      	b.n	800729c <xQueueGenericSend+0x284>
 80072b8:	23ff      	movs	r3, #255	; 0xff
 80072ba:	f884 3045 	strb.w	r3, [r4, #69]	; 0x45
 80072be:	f001 faa3 	bl	8008808 <vPortExitCritical>
 80072c2:	f001 fa7f 	bl	80087c4 <vPortEnterCritical>
 80072c6:	f894 3044 	ldrb.w	r3, [r4, #68]	; 0x44
 80072ca:	b25d      	sxtb	r5, r3
 80072cc:	2d00      	cmp	r5, #0
 80072ce:	dd10      	ble.n	80072f2 <xQueueGenericSend+0x2da>
 80072d0:	f104 0610 	add.w	r6, r4, #16
 80072d4:	e003      	b.n	80072de <xQueueGenericSend+0x2c6>
 80072d6:	1e6b      	subs	r3, r5, #1
 80072d8:	b2da      	uxtb	r2, r3
 80072da:	b25d      	sxtb	r5, r3
 80072dc:	b14a      	cbz	r2, 80072f2 <xQueueGenericSend+0x2da>
 80072de:	6923      	ldr	r3, [r4, #16]
 80072e0:	4630      	mov	r0, r6
 80072e2:	b133      	cbz	r3, 80072f2 <xQueueGenericSend+0x2da>
 80072e4:	f000 ff1e 	bl	8008124 <xTaskRemoveFromEventList>
 80072e8:	2800      	cmp	r0, #0
 80072ea:	d0f4      	beq.n	80072d6 <xQueueGenericSend+0x2be>
 80072ec:	f000 ffb6 	bl	800825c <vTaskMissedYield>
 80072f0:	e7f1      	b.n	80072d6 <xQueueGenericSend+0x2be>
 80072f2:	23ff      	movs	r3, #255	; 0xff
 80072f4:	f884 3044 	strb.w	r3, [r4, #68]	; 0x44
 80072f8:	f001 fa86 	bl	8008808 <vPortExitCritical>
 80072fc:	f000 fe1a 	bl	8007f34 <xTaskResumeAll>
 8007300:	2000      	movs	r0, #0
 8007302:	e7b9      	b.n	8007278 <xQueueGenericSend+0x260>
 8007304:	f104 0024 	add.w	r0, r4, #36	; 0x24
 8007308:	f000 ff0c 	bl	8008124 <xTaskRemoveFromEventList>
 800730c:	2800      	cmp	r0, #0
 800730e:	d0b0      	beq.n	8007272 <xQueueGenericSend+0x25a>
 8007310:	e7a5      	b.n	800725e <xQueueGenericSend+0x246>
 8007312:	bf00      	nop

08007314 <xQueueReceive>:
 8007314:	e92d 43f0 	stmdb	sp!, {r4, r5, r6, r7, r8, r9, lr}
 8007318:	b085      	sub	sp, #20
 800731a:	9201      	str	r2, [sp, #4]
 800731c:	2800      	cmp	r0, #0
 800731e:	f000 815f 	beq.w	80075e0 <xQueueReceive+0x2cc>
 8007322:	460f      	mov	r7, r1
 8007324:	4604      	mov	r4, r0
 8007326:	2900      	cmp	r1, #0
 8007328:	f000 8094 	beq.w	8007454 <xQueueReceive+0x140>
 800732c:	f000 ff9c 	bl	8008268 <xTaskGetSchedulerState>
 8007330:	2800      	cmp	r0, #0
 8007332:	f000 809c 	beq.w	800746e <xQueueReceive+0x15a>
 8007336:	f001 fa45 	bl	80087c4 <vPortEnterCritical>
 800733a:	6ba5      	ldr	r5, [r4, #56]	; 0x38
 800733c:	2d00      	cmp	r5, #0
 800733e:	d172      	bne.n	8007426 <xQueueReceive+0x112>
 8007340:	9b01      	ldr	r3, [sp, #4]
 8007342:	2b00      	cmp	r3, #0
 8007344:	f000 80f1 	beq.w	800752a <xQueueReceive+0x216>
 8007348:	a802      	add	r0, sp, #8
 800734a:	f000 ff33 	bl	80081b4 <vTaskInternalSetTimeOutState>
 800734e:	46a8      	mov	r8, r5
 8007350:	f104 0624 	add.w	r6, r4, #36	; 0x24
 8007354:	f001 fa58 	bl	8008808 <vPortExitCritical>
 8007358:	f000 fde4 	bl	8007f24 <vTaskSuspendAll>
 800735c:	f001 fa32 	bl	80087c4 <vPortEnterCritical>
 8007360:	f894 3044 	ldrb.w	r3, [r4, #68]	; 0x44
 8007364:	2bff      	cmp	r3, #255	; 0xff
 8007366:	bf08      	it	eq
 8007368:	f884 8044 	strbeq.w	r8, [r4, #68]	; 0x44
 800736c:	f894 3045 	ldrb.w	r3, [r4, #69]	; 0x45
 8007370:	2bff      	cmp	r3, #255	; 0xff
 8007372:	bf08      	it	eq
 8007374:	f884 8045 	strbeq.w	r8, [r4, #69]	; 0x45
 8007378:	f001 fa46 	bl	8008808 <vPortExitCritical>
 800737c:	a901      	add	r1, sp, #4
 800737e:	a802      	add	r0, sp, #8
 8007380:	f000 ff24 	bl	80081cc <xTaskCheckForTimeOut>
 8007384:	2800      	cmp	r0, #0
 8007386:	d17f      	bne.n	8007488 <xQueueReceive+0x174>
 8007388:	f001 fa1c 	bl	80087c4 <vPortEnterCritical>
 800738c:	6ba3      	ldr	r3, [r4, #56]	; 0x38
 800738e:	2b00      	cmp	r3, #0
 8007390:	f000 80d1 	beq.w	8007536 <xQueueReceive+0x222>
 8007394:	f001 fa38 	bl	8008808 <vPortExitCritical>
 8007398:	f001 fa14 	bl	80087c4 <vPortEnterCritical>
 800739c:	f894 3045 	ldrb.w	r3, [r4, #69]	; 0x45
 80073a0:	b25d      	sxtb	r5, r3
 80073a2:	2d00      	cmp	r5, #0
 80073a4:	dc04      	bgt.n	80073b0 <xQueueReceive+0x9c>
 80073a6:	e011      	b.n	80073cc <xQueueReceive+0xb8>
 80073a8:	1e6b      	subs	r3, r5, #1
 80073aa:	b2da      	uxtb	r2, r3
 80073ac:	b25d      	sxtb	r5, r3
 80073ae:	b16a      	cbz	r2, 80073cc <xQueueReceive+0xb8>
 80073b0:	6a63      	ldr	r3, [r4, #36]	; 0x24
 80073b2:	4630      	mov	r0, r6
 80073b4:	b153      	cbz	r3, 80073cc <xQueueReceive+0xb8>
 80073b6:	f000 feb5 	bl	8008124 <xTaskRemoveFromEventList>
 80073ba:	2800      	cmp	r0, #0
 80073bc:	d0f4      	beq.n	80073a8 <xQueueReceive+0x94>
 80073be:	f000 ff4d 	bl	800825c <vTaskMissedYield>
 80073c2:	1e6b      	subs	r3, r5, #1
 80073c4:	b2da      	uxtb	r2, r3
 80073c6:	b25d      	sxtb	r5, r3
 80073c8:	2a00      	cmp	r2, #0
 80073ca:	d1f1      	bne.n	80073b0 <xQueueReceive+0x9c>
 80073cc:	23ff      	movs	r3, #255	; 0xff
 80073ce:	f884 3045 	strb.w	r3, [r4, #69]	; 0x45
 80073d2:	f001 fa19 	bl	8008808 <vPortExitCritical>
 80073d6:	f001 f9f5 	bl	80087c4 <vPortEnterCritical>
 80073da:	f894 3044 	ldrb.w	r3, [r4, #68]	; 0x44
 80073de:	b25d      	sxtb	r5, r3
 80073e0:	2d00      	cmp	r5, #0
 80073e2:	dd14      	ble.n	800740e <xQueueReceive+0xfa>
 80073e4:	f104 0910 	add.w	r9, r4, #16
 80073e8:	e003      	b.n	80073f2 <xQueueReceive+0xde>
 80073ea:	1e6b      	subs	r3, r5, #1
 80073ec:	b2da      	uxtb	r2, r3
 80073ee:	b25d      	sxtb	r5, r3
 80073f0:	b16a      	cbz	r2, 800740e <xQueueReceive+0xfa>
 80073f2:	6923      	ldr	r3, [r4, #16]
 80073f4:	4648      	mov	r0, r9
 80073f6:	b153      	cbz	r3, 800740e <xQueueReceive+0xfa>
 80073f8:	f000 fe94 	bl	8008124 <xTaskRemoveFromEventList>
 80073fc:	2800      	cmp	r0, #0
 80073fe:	d0f4      	beq.n	80073ea <xQueueReceive+0xd6>
 8007400:	f000 ff2c 	bl	800825c <vTaskMissedYield>
 8007404:	1e6b      	subs	r3, r5, #1
 8007406:	b2da      	uxtb	r2, r3
 8007408:	b25d      	sxtb	r5, r3
 800740a:	2a00      	cmp	r2, #0
 800740c:	d1f1      	bne.n	80073f2 <xQueueReceive+0xde>
 800740e:	23ff      	movs	r3, #255	; 0xff
 8007410:	f884 3044 	strb.w	r3, [r4, #68]	; 0x44
 8007414:	f001 f9f8 	bl	8008808 <vPortExitCritical>
 8007418:	f000 fd8c 	bl	8007f34 <xTaskResumeAll>
 800741c:	f001 f9d2 	bl	80087c4 <vPortEnterCritical>
 8007420:	6ba5      	ldr	r5, [r4, #56]	; 0x38
 8007422:	2d00      	cmp	r5, #0
 8007424:	d07d      	beq.n	8007522 <xQueueReceive+0x20e>
 8007426:	6c22      	ldr	r2, [r4, #64]	; 0x40
 8007428:	b152      	cbz	r2, 8007440 <xQueueReceive+0x12c>
 800742a:	68e1      	ldr	r1, [r4, #12]
 800742c:	68a3      	ldr	r3, [r4, #8]
 800742e:	4411      	add	r1, r2
 8007430:	4299      	cmp	r1, r3
 8007432:	60e1      	str	r1, [r4, #12]
 8007434:	bf24      	itt	cs
 8007436:	6821      	ldrcs	r1, [r4, #0]
 8007438:	60e1      	strcs	r1, [r4, #12]
 800743a:	4638      	mov	r0, r7
 800743c:	f001 fc38 	bl	8008cb0 <memcpy>
 8007440:	3d01      	subs	r5, #1
 8007442:	63a5      	str	r5, [r4, #56]	; 0x38
 8007444:	6923      	ldr	r3, [r4, #16]
 8007446:	2b00      	cmp	r3, #0
 8007448:	f040 80d3 	bne.w	80075f2 <xQueueReceive+0x2de>
 800744c:	f001 f9dc 	bl	8008808 <vPortExitCritical>
 8007450:	2001      	movs	r0, #1
 8007452:	e06d      	b.n	8007530 <xQueueReceive+0x21c>
 8007454:	6c03      	ldr	r3, [r0, #64]	; 0x40
 8007456:	2b00      	cmp	r3, #0
 8007458:	f43f af68 	beq.w	800732c <xQueueReceive+0x18>
 800745c:	f04f 0350 	mov.w	r3, #80	; 0x50
 8007460:	f383 8811 	msr	BASEPRI, r3
 8007464:	f3bf 8f6f 	isb	sy
 8007468:	f3bf 8f4f 	dsb	sy
 800746c:	e7fe      	b.n	800746c <xQueueReceive+0x158>
 800746e:	9b01      	ldr	r3, [sp, #4]
 8007470:	2b00      	cmp	r3, #0
 8007472:	f43f af60 	beq.w	8007336 <xQueueReceive+0x22>
 8007476:	f04f 0350 	mov.w	r3, #80	; 0x50
 800747a:	f383 8811 	msr	BASEPRI, r3
 800747e:	f3bf 8f6f 	isb	sy
 8007482:	f3bf 8f4f 	dsb	sy
 8007486:	e7fe      	b.n	8007486 <xQueueReceive+0x172>
 8007488:	f001 f99c 	bl	80087c4 <vPortEnterCritical>
 800748c:	f894 3045 	ldrb.w	r3, [r4, #69]	; 0x45
 8007490:	b25d      	sxtb	r5, r3
 8007492:	2d00      	cmp	r5, #0
 8007494:	dc04      	bgt.n	80074a0 <xQueueReceive+0x18c>
 8007496:	e011      	b.n	80074bc <xQueueReceive+0x1a8>
 8007498:	1e6b      	subs	r3, r5, #1
 800749a:	b2da      	uxtb	r2, r3
 800749c:	b25d      	sxtb	r5, r3
 800749e:	b16a      	cbz	r2, 80074bc <xQueueReceive+0x1a8>
 80074a0:	6a63      	ldr	r3, [r4, #36]	; 0x24
 80074a2:	4630      	mov	r0, r6
 80074a4:	b153      	cbz	r3, 80074bc <xQueueReceive+0x1a8>
 80074a6:	f000 fe3d 	bl	8008124 <xTaskRemoveFromEventList>
 80074aa:	2800      	cmp	r0, #0
 80074ac:	d0f4      	beq.n	8007498 <xQueueReceive+0x184>
 80074ae:	f000 fed5 	bl	800825c <vTaskMissedYield>
 80074b2:	1e6b      	subs	r3, r5, #1
 80074b4:	b2da      	uxtb	r2, r3
 80074b6:	b25d      	sxtb	r5, r3
 80074b8:	2a00      	cmp	r2, #0
 80074ba:	d1f1      	bne.n	80074a0 <xQueueReceive+0x18c>
 80074bc:	23ff      	movs	r3, #255	; 0xff
 80074be:	f884 3045 	strb.w	r3, [r4, #69]	; 0x45
 80074c2:	f001 f9a1 	bl	8008808 <vPortExitCritical>
 80074c6:	f001 f97d 	bl	80087c4 <vPortEnterCritical>
 80074ca:	f894 3044 	ldrb.w	r3, [r4, #68]	; 0x44
 80074ce:	b25d      	sxtb	r5, r3
 80074d0:	2d00      	cmp	r5, #0
 80074d2:	dd14      	ble.n	80074fe <xQueueReceive+0x1ea>
 80074d4:	f104 0910 	add.w	r9, r4, #16
 80074d8:	e003      	b.n	80074e2 <xQueueReceive+0x1ce>
 80074da:	1e6b      	subs	r3, r5, #1
 80074dc:	b2da      	uxtb	r2, r3
 80074de:	b25d      	sxtb	r5, r3
 80074e0:	b16a      	cbz	r2, 80074fe <xQueueReceive+0x1ea>
 80074e2:	6923      	ldr	r3, [r4, #16]
 80074e4:	4648      	mov	r0, r9
 80074e6:	b153      	cbz	r3, 80074fe <xQueueReceive+0x1ea>
 80074e8:	f000 fe1c 	bl	8008124 <xTaskRemoveFromEventList>
 80074ec:	2800      	cmp	r0, #0
 80074ee:	d0f4      	beq.n	80074da <xQueueReceive+0x1c6>
 80074f0:	f000 feb4 	bl	800825c <vTaskMissedYield>
 80074f4:	1e6b      	subs	r3, r5, #1
 80074f6:	b2da      	uxtb	r2, r3
 80074f8:	b25d      	sxtb	r5, r3
 80074fa:	2a00      	cmp	r2, #0
 80074fc:	d1f1      	bne.n	80074e2 <xQueueReceive+0x1ce>
 80074fe:	23ff      	movs	r3, #255	; 0xff
 8007500:	f884 3044 	strb.w	r3, [r4, #68]	; 0x44
 8007504:	f001 f980 	bl	8008808 <vPortExitCritical>
 8007508:	f000 fd14 	bl	8007f34 <xTaskResumeAll>
 800750c:	f001 f95a 	bl	80087c4 <vPortEnterCritical>
 8007510:	6ba3      	ldr	r3, [r4, #56]	; 0x38
 8007512:	b153      	cbz	r3, 800752a <xQueueReceive+0x216>
 8007514:	f001 f978 	bl	8008808 <vPortExitCritical>
 8007518:	f001 f954 	bl	80087c4 <vPortEnterCritical>
 800751c:	6ba5      	ldr	r5, [r4, #56]	; 0x38
 800751e:	2d00      	cmp	r5, #0
 8007520:	d181      	bne.n	8007426 <xQueueReceive+0x112>
 8007522:	9b01      	ldr	r3, [sp, #4]
 8007524:	2b00      	cmp	r3, #0
 8007526:	f47f af15 	bne.w	8007354 <xQueueReceive+0x40>
 800752a:	f001 f96d 	bl	8008808 <vPortExitCritical>
 800752e:	2000      	movs	r0, #0
 8007530:	b005      	add	sp, #20
 8007532:	e8bd 83f0 	ldmia.w	sp!, {r4, r5, r6, r7, r8, r9, pc}
 8007536:	f001 f967 	bl	8008808 <vPortExitCritical>
 800753a:	9901      	ldr	r1, [sp, #4]
 800753c:	4630      	mov	r0, r6
 800753e:	f000 fd63 	bl	8008008 <vTaskPlaceOnEventList>
 8007542:	f001 f93f 	bl	80087c4 <vPortEnterCritical>
 8007546:	f894 3045 	ldrb.w	r3, [r4, #69]	; 0x45
 800754a:	b25d      	sxtb	r5, r3
 800754c:	2d00      	cmp	r5, #0
 800754e:	dc04      	bgt.n	800755a <xQueueReceive+0x246>
 8007550:	e011      	b.n	8007576 <xQueueReceive+0x262>
 8007552:	1e6b      	subs	r3, r5, #1
 8007554:	b2da      	uxtb	r2, r3
 8007556:	b25d      	sxtb	r5, r3
 8007558:	b16a      	cbz	r2, 8007576 <xQueueReceive+0x262>
 800755a:	6a63      	ldr	r3, [r4, #36]	; 0x24
 800755c:	4630      	mov	r0, r6
 800755e:	b153      	cbz	r3, 8007576 <xQueueReceive+0x262>
 8007560:	f000 fde0 	bl	8008124 <xTaskRemoveFromEventList>
 8007564:	2800      	cmp	r0, #0
 8007566:	d0f4      	beq.n	8007552 <xQueueReceive+0x23e>
 8007568:	f000 fe78 	bl	800825c <vTaskMissedYield>
 800756c:	1e6b      	subs	r3, r5, #1
 800756e:	b2da      	uxtb	r2, r3
 8007570:	b25d      	sxtb	r5, r3
 8007572:	2a00      	cmp	r2, #0
 8007574:	d1f1      	bne.n	800755a <xQueueReceive+0x246>
 8007576:	23ff      	movs	r3, #255	; 0xff
 8007578:	f884 3045 	strb.w	r3, [r4, #69]	; 0x45
 800757c:	f001 f944 	bl	8008808 <vPortExitCritical>
 8007580:	f001 f920 	bl	80087c4 <vPortEnterCritical>
 8007584:	f894 3044 	ldrb.w	r3, [r4, #68]	; 0x44
 8007588:	b25d      	sxtb	r5, r3
 800758a:	2d00      	cmp	r5, #0
 800758c:	dd14      	ble.n	80075b8 <xQueueReceive+0x2a4>
 800758e:	f104 0910 	add.w	r9, r4, #16
 8007592:	e003      	b.n	800759c <xQueueReceive+0x288>
 8007594:	1e6b      	subs	r3, r5, #1
 8007596:	b2da      	uxtb	r2, r3
 8007598:	b25d      	sxtb	r5, r3
 800759a:	b16a      	cbz	r2, 80075b8 <xQueueReceive+0x2a4>
 800759c:	6923      	ldr	r3, [r4, #16]
 800759e:	4648      	mov	r0, r9
 80075a0:	b153      	cbz	r3, 80075b8 <xQueueReceive+0x2a4>
 80075a2:	f000 fdbf 	bl	8008124 <xTaskRemoveFromEventList>
 80075a6:	2800      	cmp	r0, #0
 80075a8:	d0f4      	beq.n	8007594 <xQueueReceive+0x280>
 80075aa:	f000 fe57 	bl	800825c <vTaskMissedYield>
 80075ae:	1e6b      	subs	r3, r5, #1
 80075b0:	b2da      	uxtb	r2, r3
 80075b2:	b25d      	sxtb	r5, r3
 80075b4:	2a00      	cmp	r2, #0
 80075b6:	d1f1      	bne.n	800759c <xQueueReceive+0x288>
 80075b8:	23ff      	movs	r3, #255	; 0xff
 80075ba:	f884 3044 	strb.w	r3, [r4, #68]	; 0x44
 80075be:	f001 f923 	bl	8008808 <vPortExitCritical>
 80075c2:	f000 fcb7 	bl	8007f34 <xTaskResumeAll>
 80075c6:	2800      	cmp	r0, #0
 80075c8:	d1a6      	bne.n	8007518 <xQueueReceive+0x204>
 80075ca:	f04f 23e0 	mov.w	r3, #3758153728	; 0xe000e000
 80075ce:	f04f 5280 	mov.w	r2, #268435456	; 0x10000000
 80075d2:	f8c3 2d04 	str.w	r2, [r3, #3332]	; 0xd04
 80075d6:	f3bf 8f4f 	dsb	sy
 80075da:	f3bf 8f6f 	isb	sy
 80075de:	e79b      	b.n	8007518 <xQueueReceive+0x204>
 80075e0:	f04f 0350 	mov.w	r3, #80	; 0x50
 80075e4:	f383 8811 	msr	BASEPRI, r3
 80075e8:	f3bf 8f6f 	isb	sy
 80075ec:	f3bf 8f4f 	dsb	sy
 80075f0:	e7fe      	b.n	80075f0 <xQueueReceive+0x2dc>
 80075f2:	f104 0010 	add.w	r0, r4, #16
 80075f6:	f000 fd95 	bl	8008124 <xTaskRemoveFromEventList>
 80075fa:	2800      	cmp	r0, #0
 80075fc:	f43f af26 	beq.w	800744c <xQueueReceive+0x138>
 8007600:	f04f 23e0 	mov.w	r3, #3758153728	; 0xe000e000
 8007604:	f04f 5280 	mov.w	r2, #268435456	; 0x10000000
 8007608:	f8c3 2d04 	str.w	r2, [r3, #3332]	; 0xd04
 800760c:	f3bf 8f4f 	dsb	sy
 8007610:	f3bf 8f6f 	isb	sy
 8007614:	e71a      	b.n	800744c <xQueueReceive+0x138>
 8007616:	bf00      	nop

08007618 <vQueueAddToRegistry>:
 8007618:	4b12      	ldr	r3, [pc, #72]	; (8007664 <vQueueAddToRegistry+0x4c>)
 800761a:	681a      	ldr	r2, [r3, #0]
 800761c:	b17a      	cbz	r2, 800763e <vQueueAddToRegistry+0x26>
 800761e:	689a      	ldr	r2, [r3, #8]
 8007620:	b162      	cbz	r2, 800763c <vQueueAddToRegistry+0x24>
 8007622:	691a      	ldr	r2, [r3, #16]
 8007624:	b192      	cbz	r2, 800764c <vQueueAddToRegistry+0x34>
 8007626:	699a      	ldr	r2, [r3, #24]
 8007628:	b192      	cbz	r2, 8007650 <vQueueAddToRegistry+0x38>
 800762a:	6a1a      	ldr	r2, [r3, #32]
 800762c:	b192      	cbz	r2, 8007654 <vQueueAddToRegistry+0x3c>
 800762e:	6a9a      	ldr	r2, [r3, #40]	; 0x28
 8007630:	b192      	cbz	r2, 8007658 <vQueueAddToRegistry+0x40>
 8007632:	6b1a      	ldr	r2, [r3, #48]	; 0x30
 8007634:	b192      	cbz	r2, 800765c <vQueueAddToRegistry+0x44>
 8007636:	6b9a      	ldr	r2, [r3, #56]	; 0x38
 8007638:	b192      	cbz	r2, 8007660 <vQueueAddToRegistry+0x48>
 800763a:	4770      	bx	lr
 800763c:	2201      	movs	r2, #1
 800763e:	eb03 0cc2 	add.w	ip, r3, r2, lsl #3
 8007642:	f843 1032 	str.w	r1, [r3, r2, lsl #3]
 8007646:	f8cc 0004 	str.w	r0, [ip, #4]
 800764a:	4770      	bx	lr
 800764c:	2202      	movs	r2, #2
 800764e:	e7f6      	b.n	800763e <vQueueAddToRegistry+0x26>
 8007650:	2203      	movs	r2, #3
 8007652:	e7f4      	b.n	800763e <vQueueAddToRegistry+0x26>
 8007654:	2204      	movs	r2, #4
 8007656:	e7f2      	b.n	800763e <vQueueAddToRegistry+0x26>
 8007658:	2205      	movs	r2, #5
 800765a:	e7f0      	b.n	800763e <vQueueAddToRegistry+0x26>
 800765c:	2206      	movs	r2, #6
 800765e:	e7ee      	b.n	800763e <vQueueAddToRegistry+0x26>
 8007660:	2207      	movs	r2, #7
 8007662:	e7ec      	b.n	800763e <vQueueAddToRegistry+0x26>
 8007664:	20003360 	.word	0x20003360

08007668 <vQueueWaitForMessageRestricted>:
 8007668:	b570      	push	{r4, r5, r6, lr}
 800766a:	4605      	mov	r5, r0
 800766c:	460e      	mov	r6, r1
 800766e:	4614      	mov	r4, r2
 8007670:	f001 f8a8 	bl	80087c4 <vPortEnterCritical>
 8007674:	f895 3044 	ldrb.w	r3, [r5, #68]	; 0x44
 8007678:	2bff      	cmp	r3, #255	; 0xff
 800767a:	bf04      	itt	eq
 800767c:	2300      	moveq	r3, #0
 800767e:	f885 3044 	strbeq.w	r3, [r5, #68]	; 0x44
 8007682:	f895 3045 	ldrb.w	r3, [r5, #69]	; 0x45
 8007686:	2bff      	cmp	r3, #255	; 0xff
 8007688:	bf04      	itt	eq
 800768a:	2300      	moveq	r3, #0
 800768c:	f885 3045 	strbeq.w	r3, [r5, #69]	; 0x45
 8007690:	f001 f8ba 	bl	8008808 <vPortExitCritical>
 8007694:	6bab      	ldr	r3, [r5, #56]	; 0x38
 8007696:	2b00      	cmp	r3, #0
 8007698:	d043      	beq.n	8007722 <vQueueWaitForMessageRestricted+0xba>
 800769a:	f001 f893 	bl	80087c4 <vPortEnterCritical>
 800769e:	f895 3045 	ldrb.w	r3, [r5, #69]	; 0x45
 80076a2:	b25c      	sxtb	r4, r3
 80076a4:	2c00      	cmp	r4, #0
 80076a6:	dd14      	ble.n	80076d2 <vQueueWaitForMessageRestricted+0x6a>
 80076a8:	f105 0624 	add.w	r6, r5, #36	; 0x24
 80076ac:	e003      	b.n	80076b6 <vQueueWaitForMessageRestricted+0x4e>
 80076ae:	1e63      	subs	r3, r4, #1
 80076b0:	b2da      	uxtb	r2, r3
 80076b2:	b25c      	sxtb	r4, r3
 80076b4:	b16a      	cbz	r2, 80076d2 <vQueueWaitForMessageRestricted+0x6a>
 80076b6:	6a6b      	ldr	r3, [r5, #36]	; 0x24
 80076b8:	4630      	mov	r0, r6
 80076ba:	b153      	cbz	r3, 80076d2 <vQueueWaitForMessageRestricted+0x6a>
 80076bc:	f000 fd32 	bl	8008124 <xTaskRemoveFromEventList>
 80076c0:	2800      	cmp	r0, #0
 80076c2:	d0f4      	beq.n	80076ae <vQueueWaitForMessageRestricted+0x46>
 80076c4:	f000 fdca 	bl	800825c <vTaskMissedYield>
 80076c8:	1e63      	subs	r3, r4, #1
 80076ca:	b2da      	uxtb	r2, r3
 80076cc:	b25c      	sxtb	r4, r3
 80076ce:	2a00      	cmp	r2, #0
 80076d0:	d1f1      	bne.n	80076b6 <vQueueWaitForMessageRestricted+0x4e>
 80076d2:	23ff      	movs	r3, #255	; 0xff
 80076d4:	f885 3045 	strb.w	r3, [r5, #69]	; 0x45
 80076d8:	f001 f896 	bl	8008808 <vPortExitCritical>
 80076dc:	f001 f872 	bl	80087c4 <vPortEnterCritical>
 80076e0:	f895 3044 	ldrb.w	r3, [r5, #68]	; 0x44
 80076e4:	b25c      	sxtb	r4, r3
 80076e6:	2c00      	cmp	r4, #0
 80076e8:	dd14      	ble.n	8007714 <vQueueWaitForMessageRestricted+0xac>
 80076ea:	f105 0610 	add.w	r6, r5, #16
 80076ee:	e003      	b.n	80076f8 <vQueueWaitForMessageRestricted+0x90>
 80076f0:	1e63      	subs	r3, r4, #1
 80076f2:	b2da      	uxtb	r2, r3
 80076f4:	b25c      	sxtb	r4, r3
 80076f6:	b16a      	cbz	r2, 8007714 <vQueueWaitForMessageRestricted+0xac>
 80076f8:	692b      	ldr	r3, [r5, #16]
 80076fa:	4630      	mov	r0, r6
 80076fc:	b153      	cbz	r3, 8007714 <vQueueWaitForMessageRestricted+0xac>
 80076fe:	f000 fd11 	bl	8008124 <xTaskRemoveFromEventList>
 8007702:	2800      	cmp	r0, #0
 8007704:	d0f4      	beq.n	80076f0 <vQueueWaitForMessageRestricted+0x88>
 8007706:	f000 fda9 	bl	800825c <vTaskMissedYield>
 800770a:	1e63      	subs	r3, r4, #1
 800770c:	b2da      	uxtb	r2, r3
 800770e:	b25c      	sxtb	r4, r3
 8007710:	2a00      	cmp	r2, #0
 8007712:	d1f1      	bne.n	80076f8 <vQueueWaitForMessageRestricted+0x90>
 8007714:	23ff      	movs	r3, #255	; 0xff
 8007716:	f885 3044 	strb.w	r3, [r5, #68]	; 0x44
 800771a:	e8bd 4070 	ldmia.w	sp!, {r4, r5, r6, lr}
 800771e:	f001 b873 	b.w	8008808 <vPortExitCritical>
 8007722:	4622      	mov	r2, r4
 8007724:	4631      	mov	r1, r6
 8007726:	f105 0024 	add.w	r0, r5, #36	; 0x24
 800772a:	f000 fcb1 	bl	8008090 <vTaskPlaceOnEventListRestricted>
 800772e:	e7b4      	b.n	800769a <vQueueWaitForMessageRestricted+0x32>

08007730 <prvAddNewTaskToReadyList>:
 8007730:	e92d 43f8 	stmdb	sp!, {r3, r4, r5, r6, r7, r8, r9, lr}
 8007734:	4605      	mov	r5, r0
 8007736:	f001 f845 	bl	80087c4 <vPortEnterCritical>
 800773a:	4a34      	ldr	r2, [pc, #208]	; (800780c <prvAddNewTaskToReadyList+0xdc>)
 800773c:	4e34      	ldr	r6, [pc, #208]	; (8007810 <prvAddNewTaskToReadyList+0xe0>)
 800773e:	6813      	ldr	r3, [r2, #0]
 8007740:	3301      	adds	r3, #1
 8007742:	6013      	str	r3, [r2, #0]
 8007744:	6833      	ldr	r3, [r6, #0]
 8007746:	2b00      	cmp	r3, #0
 8007748:	d032      	beq.n	80077b0 <prvAddNewTaskToReadyList+0x80>
 800774a:	4c32      	ldr	r4, [pc, #200]	; (8007814 <prvAddNewTaskToReadyList+0xe4>)
 800774c:	6823      	ldr	r3, [r4, #0]
 800774e:	b33b      	cbz	r3, 80077a0 <prvAddNewTaskToReadyList+0x70>
 8007750:	6ae8      	ldr	r0, [r5, #44]	; 0x2c
 8007752:	4f31      	ldr	r7, [pc, #196]	; (8007818 <prvAddNewTaskToReadyList+0xe8>)
 8007754:	4a31      	ldr	r2, [pc, #196]	; (800781c <prvAddNewTaskToReadyList+0xec>)
 8007756:	4932      	ldr	r1, [pc, #200]	; (8007820 <prvAddNewTaskToReadyList+0xf0>)
 8007758:	6813      	ldr	r3, [r2, #0]
 800775a:	3301      	adds	r3, #1
 800775c:	6013      	str	r3, [r2, #0]
 800775e:	646b      	str	r3, [r5, #68]	; 0x44
 8007760:	680b      	ldr	r3, [r1, #0]
 8007762:	4283      	cmp	r3, r0
 8007764:	bf38      	it	cc
 8007766:	6008      	strcc	r0, [r1, #0]
 8007768:	eb00 0080 	add.w	r0, r0, r0, lsl #2
 800776c:	eb07 0080 	add.w	r0, r7, r0, lsl #2
 8007770:	1d29      	adds	r1, r5, #4
 8007772:	f7ff fb65 	bl	8006e40 <vListInsertEnd>
 8007776:	f001 f847 	bl	8008808 <vPortExitCritical>
 800777a:	6823      	ldr	r3, [r4, #0]
 800777c:	b173      	cbz	r3, 800779c <prvAddNewTaskToReadyList+0x6c>
 800777e:	6832      	ldr	r2, [r6, #0]
 8007780:	6aeb      	ldr	r3, [r5, #44]	; 0x2c
 8007782:	6ad2      	ldr	r2, [r2, #44]	; 0x2c
 8007784:	429a      	cmp	r2, r3
 8007786:	d209      	bcs.n	800779c <prvAddNewTaskToReadyList+0x6c>
 8007788:	f04f 23e0 	mov.w	r3, #3758153728	; 0xe000e000
 800778c:	f04f 5280 	mov.w	r2, #268435456	; 0x10000000
 8007790:	f8c3 2d04 	str.w	r2, [r3, #3332]	; 0xd04
 8007794:	f3bf 8f4f 	dsb	sy
 8007798:	f3bf 8f6f 	isb	sy
 800779c:	e8bd 83f8 	ldmia.w	sp!, {r3, r4, r5, r6, r7, r8, r9, pc}
 80077a0:	6833      	ldr	r3, [r6, #0]
 80077a2:	6ae8      	ldr	r0, [r5, #44]	; 0x2c
 80077a4:	6adb      	ldr	r3, [r3, #44]	; 0x2c
 80077a6:	4f1c      	ldr	r7, [pc, #112]	; (8007818 <prvAddNewTaskToReadyList+0xe8>)
 80077a8:	4283      	cmp	r3, r0
 80077aa:	bf98      	it	ls
 80077ac:	6035      	strls	r5, [r6, #0]
 80077ae:	e7d1      	b.n	8007754 <prvAddNewTaskToReadyList+0x24>
 80077b0:	6035      	str	r5, [r6, #0]
 80077b2:	6813      	ldr	r3, [r2, #0]
 80077b4:	2b01      	cmp	r3, #1
 80077b6:	d003      	beq.n	80077c0 <prvAddNewTaskToReadyList+0x90>
 80077b8:	6ae8      	ldr	r0, [r5, #44]	; 0x2c
 80077ba:	4f17      	ldr	r7, [pc, #92]	; (8007818 <prvAddNewTaskToReadyList+0xe8>)
 80077bc:	4c15      	ldr	r4, [pc, #84]	; (8007814 <prvAddNewTaskToReadyList+0xe4>)
 80077be:	e7c9      	b.n	8007754 <prvAddNewTaskToReadyList+0x24>
 80077c0:	4f15      	ldr	r7, [pc, #84]	; (8007818 <prvAddNewTaskToReadyList+0xe8>)
 80077c2:	463c      	mov	r4, r7
 80077c4:	f507 688c 	add.w	r8, r7, #1120	; 0x460
 80077c8:	4620      	mov	r0, r4
 80077ca:	3414      	adds	r4, #20
 80077cc:	f7ff fb28 	bl	8006e20 <vListInitialise>
 80077d0:	45a0      	cmp	r8, r4
 80077d2:	d1f9      	bne.n	80077c8 <prvAddNewTaskToReadyList+0x98>
 80077d4:	f8df 9060 	ldr.w	r9, [pc, #96]	; 8007838 <prvAddNewTaskToReadyList+0x108>
 80077d8:	f8df 8060 	ldr.w	r8, [pc, #96]	; 800783c <prvAddNewTaskToReadyList+0x10c>
 80077dc:	4c0d      	ldr	r4, [pc, #52]	; (8007814 <prvAddNewTaskToReadyList+0xe4>)
 80077de:	4648      	mov	r0, r9
 80077e0:	f7ff fb1e 	bl	8006e20 <vListInitialise>
 80077e4:	4640      	mov	r0, r8
 80077e6:	f7ff fb1b 	bl	8006e20 <vListInitialise>
 80077ea:	480e      	ldr	r0, [pc, #56]	; (8007824 <prvAddNewTaskToReadyList+0xf4>)
 80077ec:	f7ff fb18 	bl	8006e20 <vListInitialise>
 80077f0:	480d      	ldr	r0, [pc, #52]	; (8007828 <prvAddNewTaskToReadyList+0xf8>)
 80077f2:	f7ff fb15 	bl	8006e20 <vListInitialise>
 80077f6:	480d      	ldr	r0, [pc, #52]	; (800782c <prvAddNewTaskToReadyList+0xfc>)
 80077f8:	f7ff fb12 	bl	8006e20 <vListInitialise>
 80077fc:	4b0c      	ldr	r3, [pc, #48]	; (8007830 <prvAddNewTaskToReadyList+0x100>)
 80077fe:	6ae8      	ldr	r0, [r5, #44]	; 0x2c
 8007800:	f8c3 9000 	str.w	r9, [r3]
 8007804:	4b0b      	ldr	r3, [pc, #44]	; (8007834 <prvAddNewTaskToReadyList+0x104>)
 8007806:	f8c3 8000 	str.w	r8, [r3]
 800780a:	e7a3      	b.n	8007754 <prvAddNewTaskToReadyList+0x24>
 800780c:	2000380c 	.word	0x2000380c
 8007810:	200033a0 	.word	0x200033a0
 8007814:	20003868 	.word	0x20003868
 8007818:	200033ac 	.word	0x200033ac
 800781c:	20003818 	.word	0x20003818
 8007820:	2000381c 	.word	0x2000381c
 8007824:	20003854 	.word	0x20003854
 8007828:	20003880 	.word	0x20003880
 800782c:	2000386c 	.word	0x2000386c
 8007830:	200033a4 	.word	0x200033a4
 8007834:	200033a8 	.word	0x200033a8
 8007838:	20003820 	.word	0x20003820
 800783c:	20003834 	.word	0x20003834

08007840 <prvInitialiseNewTask.constprop.0>:
 8007840:	e92d 47f0 	stmdb	sp!, {r4, r5, r6, r7, r8, r9, sl, lr}
 8007844:	9c0a      	ldr	r4, [sp, #40]	; 0x28
 8007846:	f8dd 8024 	ldr.w	r8, [sp, #36]	; 0x24
 800784a:	ea4f 0982 	mov.w	r9, r2, lsl #2
 800784e:	464a      	mov	r2, r9
 8007850:	4606      	mov	r6, r0
 8007852:	460d      	mov	r5, r1
 8007854:	6b20      	ldr	r0, [r4, #48]	; 0x30
 8007856:	21a5      	movs	r1, #165	; 0xa5
 8007858:	461f      	mov	r7, r3
 800785a:	f001 fa37 	bl	8008ccc <memset>
 800785e:	6b23      	ldr	r3, [r4, #48]	; 0x30
 8007860:	f1a9 0904 	sub.w	r9, r9, #4
 8007864:	4499      	add	r9, r3
 8007866:	f029 0907 	bic.w	r9, r9, #7
 800786a:	2d00      	cmp	r5, #0
 800786c:	d07d      	beq.n	800796a <prvInitialiseNewTask.constprop.0+0x12a>
 800786e:	782b      	ldrb	r3, [r5, #0]
 8007870:	f884 3034 	strb.w	r3, [r4, #52]	; 0x34
 8007874:	782b      	ldrb	r3, [r5, #0]
 8007876:	2b00      	cmp	r3, #0
 8007878:	d04d      	beq.n	8007916 <prvInitialiseNewTask.constprop.0+0xd6>
 800787a:	786b      	ldrb	r3, [r5, #1]
 800787c:	f884 3035 	strb.w	r3, [r4, #53]	; 0x35
 8007880:	786b      	ldrb	r3, [r5, #1]
 8007882:	2b00      	cmp	r3, #0
 8007884:	d047      	beq.n	8007916 <prvInitialiseNewTask.constprop.0+0xd6>
 8007886:	78ab      	ldrb	r3, [r5, #2]
 8007888:	f884 3036 	strb.w	r3, [r4, #54]	; 0x36
 800788c:	78ab      	ldrb	r3, [r5, #2]
 800788e:	2b00      	cmp	r3, #0
 8007890:	d041      	beq.n	8007916 <prvInitialiseNewTask.constprop.0+0xd6>
 8007892:	78eb      	ldrb	r3, [r5, #3]
 8007894:	f884 3037 	strb.w	r3, [r4, #55]	; 0x37
 8007898:	78eb      	ldrb	r3, [r5, #3]
 800789a:	2b00      	cmp	r3, #0
 800789c:	d03b      	beq.n	8007916 <prvInitialiseNewTask.constprop.0+0xd6>
 800789e:	792b      	ldrb	r3, [r5, #4]
 80078a0:	f884 3038 	strb.w	r3, [r4, #56]	; 0x38
 80078a4:	792b      	ldrb	r3, [r5, #4]
 80078a6:	2b00      	cmp	r3, #0
 80078a8:	d035      	beq.n	8007916 <prvInitialiseNewTask.constprop.0+0xd6>
 80078aa:	796b      	ldrb	r3, [r5, #5]
 80078ac:	f884 3039 	strb.w	r3, [r4, #57]	; 0x39
 80078b0:	796b      	ldrb	r3, [r5, #5]
 80078b2:	2b00      	cmp	r3, #0
 80078b4:	d02f      	beq.n	8007916 <prvInitialiseNewTask.constprop.0+0xd6>
 80078b6:	79ab      	ldrb	r3, [r5, #6]
 80078b8:	f884 303a 	strb.w	r3, [r4, #58]	; 0x3a
 80078bc:	79ab      	ldrb	r3, [r5, #6]
 80078be:	b353      	cbz	r3, 8007916 <prvInitialiseNewTask.constprop.0+0xd6>
 80078c0:	79eb      	ldrb	r3, [r5, #7]
 80078c2:	f884 303b 	strb.w	r3, [r4, #59]	; 0x3b
 80078c6:	79eb      	ldrb	r3, [r5, #7]
 80078c8:	b32b      	cbz	r3, 8007916 <prvInitialiseNewTask.constprop.0+0xd6>
 80078ca:	7a2b      	ldrb	r3, [r5, #8]
 80078cc:	f884 303c 	strb.w	r3, [r4, #60]	; 0x3c
 80078d0:	7a2b      	ldrb	r3, [r5, #8]
 80078d2:	b303      	cbz	r3, 8007916 <prvInitialiseNewTask.constprop.0+0xd6>
 80078d4:	7a6b      	ldrb	r3, [r5, #9]
 80078d6:	f884 303d 	strb.w	r3, [r4, #61]	; 0x3d
 80078da:	7a6b      	ldrb	r3, [r5, #9]
 80078dc:	b1db      	cbz	r3, 8007916 <prvInitialiseNewTask.constprop.0+0xd6>
 80078de:	7aab      	ldrb	r3, [r5, #10]
 80078e0:	f884 303e 	strb.w	r3, [r4, #62]	; 0x3e
 80078e4:	7aab      	ldrb	r3, [r5, #10]
 80078e6:	b1b3      	cbz	r3, 8007916 <prvInitialiseNewTask.constprop.0+0xd6>
 80078e8:	7aeb      	ldrb	r3, [r5, #11]
 80078ea:	f884 303f 	strb.w	r3, [r4, #63]	; 0x3f
 80078ee:	7aeb      	ldrb	r3, [r5, #11]
 80078f0:	b18b      	cbz	r3, 8007916 <prvInitialiseNewTask.constprop.0+0xd6>
 80078f2:	7b2b      	ldrb	r3, [r5, #12]
 80078f4:	f884 3040 	strb.w	r3, [r4, #64]	; 0x40
 80078f8:	7b2b      	ldrb	r3, [r5, #12]
 80078fa:	b163      	cbz	r3, 8007916 <prvInitialiseNewTask.constprop.0+0xd6>
 80078fc:	7b6b      	ldrb	r3, [r5, #13]
 80078fe:	f884 3041 	strb.w	r3, [r4, #65]	; 0x41
 8007902:	7b6b      	ldrb	r3, [r5, #13]
 8007904:	b13b      	cbz	r3, 8007916 <prvInitialiseNewTask.constprop.0+0xd6>
 8007906:	7bab      	ldrb	r3, [r5, #14]
 8007908:	f884 3042 	strb.w	r3, [r4, #66]	; 0x42
 800790c:	7bab      	ldrb	r3, [r5, #14]
 800790e:	b113      	cbz	r3, 8007916 <prvInitialiseNewTask.constprop.0+0xd6>
 8007910:	7beb      	ldrb	r3, [r5, #15]
 8007912:	f884 3043 	strb.w	r3, [r4, #67]	; 0x43
 8007916:	2300      	movs	r3, #0
 8007918:	f884 3043 	strb.w	r3, [r4, #67]	; 0x43
 800791c:	9d08      	ldr	r5, [sp, #32]
 800791e:	2d37      	cmp	r5, #55	; 0x37
 8007920:	bf28      	it	cs
 8007922:	2537      	movcs	r5, #55	; 0x37
 8007924:	f04f 0a00 	mov.w	sl, #0
 8007928:	62e5      	str	r5, [r4, #44]	; 0x2c
 800792a:	64e5      	str	r5, [r4, #76]	; 0x4c
 800792c:	1d20      	adds	r0, r4, #4
 800792e:	f8c4 a050 	str.w	sl, [r4, #80]	; 0x50
 8007932:	f7ff fa81 	bl	8006e38 <vListInitialiseItem>
 8007936:	f1c5 0538 	rsb	r5, r5, #56	; 0x38
 800793a:	f104 0018 	add.w	r0, r4, #24
 800793e:	f7ff fa7b 	bl	8006e38 <vListInitialiseItem>
 8007942:	f8c4 a054 	str.w	sl, [r4, #84]	; 0x54
 8007946:	61a5      	str	r5, [r4, #24]
 8007948:	f884 a058 	strb.w	sl, [r4, #88]	; 0x58
 800794c:	6124      	str	r4, [r4, #16]
 800794e:	6264      	str	r4, [r4, #36]	; 0x24
 8007950:	463a      	mov	r2, r7
 8007952:	4631      	mov	r1, r6
 8007954:	4648      	mov	r0, r9
 8007956:	f000 ff09 	bl	800876c <pxPortInitialiseStack>
 800795a:	6020      	str	r0, [r4, #0]
 800795c:	f1b8 0f00 	cmp.w	r8, #0
 8007960:	d001      	beq.n	8007966 <prvInitialiseNewTask.constprop.0+0x126>
 8007962:	f8c8 4000 	str.w	r4, [r8]
 8007966:	e8bd 87f0 	ldmia.w	sp!, {r4, r5, r6, r7, r8, r9, sl, pc}
 800796a:	f884 5034 	strb.w	r5, [r4, #52]	; 0x34
 800796e:	e7d5      	b.n	800791c <prvInitialiseNewTask.constprop.0+0xdc>

08007970 <prvIdleTask>:
 8007970:	b580      	push	{r7, lr}
 8007972:	4c21      	ldr	r4, [pc, #132]	; (80079f8 <prvIdleTask+0x88>)
 8007974:	4e21      	ldr	r6, [pc, #132]	; (80079fc <prvIdleTask+0x8c>)
 8007976:	4d22      	ldr	r5, [pc, #136]	; (8007a00 <prvIdleTask+0x90>)
 8007978:	4f22      	ldr	r7, [pc, #136]	; (8007a04 <prvIdleTask+0x94>)
 800797a:	f04f 29e0 	mov.w	r9, #3758153728	; 0xe000e000
 800797e:	f04f 5880 	mov.w	r8, #268435456	; 0x10000000
 8007982:	6823      	ldr	r3, [r4, #0]
 8007984:	b353      	cbz	r3, 80079dc <prvIdleTask+0x6c>
 8007986:	f000 ff1d 	bl	80087c4 <vPortEnterCritical>
 800798a:	68f3      	ldr	r3, [r6, #12]
 800798c:	f8d3 a00c 	ldr.w	sl, [r3, #12]
 8007990:	f10a 0004 	add.w	r0, sl, #4
 8007994:	f7ff fa7c 	bl	8006e90 <uxListRemove>
 8007998:	682b      	ldr	r3, [r5, #0]
 800799a:	3b01      	subs	r3, #1
 800799c:	602b      	str	r3, [r5, #0]
 800799e:	6823      	ldr	r3, [r4, #0]
 80079a0:	3b01      	subs	r3, #1
 80079a2:	6023      	str	r3, [r4, #0]
 80079a4:	f000 ff30 	bl	8008808 <vPortExitCritical>
 80079a8:	f89a 3059 	ldrb.w	r3, [sl, #89]	; 0x59
 80079ac:	b163      	cbz	r3, 80079c8 <prvIdleTask+0x58>
 80079ae:	2b01      	cmp	r3, #1
 80079b0:	d01e      	beq.n	80079f0 <prvIdleTask+0x80>
 80079b2:	2b02      	cmp	r3, #2
 80079b4:	d0e5      	beq.n	8007982 <prvIdleTask+0x12>
 80079b6:	f04f 0350 	mov.w	r3, #80	; 0x50
 80079ba:	f383 8811 	msr	BASEPRI, r3
 80079be:	f3bf 8f6f 	isb	sy
 80079c2:	f3bf 8f4f 	dsb	sy
 80079c6:	e7fe      	b.n	80079c6 <prvIdleTask+0x56>
 80079c8:	f8da 0030 	ldr.w	r0, [sl, #48]	; 0x30
 80079cc:	f001 f8e4 	bl	8008b98 <vPortFree>
 80079d0:	4650      	mov	r0, sl
 80079d2:	f001 f8e1 	bl	8008b98 <vPortFree>
 80079d6:	6823      	ldr	r3, [r4, #0]
 80079d8:	2b00      	cmp	r3, #0
 80079da:	d1d4      	bne.n	8007986 <prvIdleTask+0x16>
 80079dc:	683b      	ldr	r3, [r7, #0]
 80079de:	2b01      	cmp	r3, #1
 80079e0:	d9cf      	bls.n	8007982 <prvIdleTask+0x12>
 80079e2:	f8c9 8d04 	str.w	r8, [r9, #3332]	; 0xd04
 80079e6:	f3bf 8f4f 	dsb	sy
 80079ea:	f3bf 8f6f 	isb	sy
 80079ee:	e7c8      	b.n	8007982 <prvIdleTask+0x12>
 80079f0:	4650      	mov	r0, sl
 80079f2:	f001 f8d1 	bl	8008b98 <vPortFree>
 80079f6:	e7c4      	b.n	8007982 <prvIdleTask+0x12>
 80079f8:	20003810 	.word	0x20003810
 80079fc:	20003880 	.word	0x20003880
 8007a00:	2000380c 	.word	0x2000380c
 8007a04:	200033ac 	.word	0x200033ac

08007a08 <xTaskIncrementTick.part.0>:
 8007a08:	e92d 4ff0 	stmdb	sp!, {r4, r5, r6, r7, r8, r9, sl, fp, lr}
 8007a0c:	4b47      	ldr	r3, [pc, #284]	; (8007b2c <xTaskIncrementTick.part.0+0x124>)
 8007a0e:	681e      	ldr	r6, [r3, #0]
 8007a10:	3601      	adds	r6, #1
 8007a12:	b083      	sub	sp, #12
 8007a14:	601e      	str	r6, [r3, #0]
 8007a16:	2e00      	cmp	r6, #0
 8007a18:	d040      	beq.n	8007a9c <xTaskIncrementTick.part.0+0x94>
 8007a1a:	f8df b124 	ldr.w	fp, [pc, #292]	; 8007b40 <xTaskIncrementTick.part.0+0x138>
 8007a1e:	f8db 3000 	ldr.w	r3, [fp]
 8007a22:	429e      	cmp	r6, r3
 8007a24:	d347      	bcc.n	8007ab6 <xTaskIncrementTick.part.0+0xae>
 8007a26:	4f42      	ldr	r7, [pc, #264]	; (8007b30 <xTaskIncrementTick.part.0+0x128>)
 8007a28:	f8df 9118 	ldr.w	r9, [pc, #280]	; 8007b44 <xTaskIncrementTick.part.0+0x13c>
 8007a2c:	683b      	ldr	r3, [r7, #0]
 8007a2e:	f8df a118 	ldr.w	sl, [pc, #280]	; 8007b48 <xTaskIncrementTick.part.0+0x140>
 8007a32:	681d      	ldr	r5, [r3, #0]
 8007a34:	2d00      	cmp	r5, #0
 8007a36:	d073      	beq.n	8007b20 <xTaskIncrementTick.part.0+0x118>
 8007a38:	f8df 8110 	ldr.w	r8, [pc, #272]	; 8007b4c <xTaskIncrementTick.part.0+0x144>
 8007a3c:	2500      	movs	r5, #0
 8007a3e:	e022      	b.n	8007a86 <xTaskIncrementTick.part.0+0x7e>
 8007a40:	9101      	str	r1, [sp, #4]
 8007a42:	f7ff fa25 	bl	8006e90 <uxListRemove>
 8007a46:	6aa3      	ldr	r3, [r4, #40]	; 0x28
 8007a48:	9901      	ldr	r1, [sp, #4]
 8007a4a:	f104 0018 	add.w	r0, r4, #24
 8007a4e:	b113      	cbz	r3, 8007a56 <xTaskIncrementTick.part.0+0x4e>
 8007a50:	f7ff fa1e 	bl	8006e90 <uxListRemove>
 8007a54:	9901      	ldr	r1, [sp, #4]
 8007a56:	6ae3      	ldr	r3, [r4, #44]	; 0x2c
 8007a58:	f8d8 2000 	ldr.w	r2, [r8]
 8007a5c:	eb03 0083 	add.w	r0, r3, r3, lsl #2
 8007a60:	4293      	cmp	r3, r2
 8007a62:	eb09 0080 	add.w	r0, r9, r0, lsl #2
 8007a66:	bf88      	it	hi
 8007a68:	f8c8 3000 	strhi.w	r3, [r8]
 8007a6c:	f7ff f9e8 	bl	8006e40 <vListInsertEnd>
 8007a70:	f8da 2000 	ldr.w	r2, [sl]
 8007a74:	683b      	ldr	r3, [r7, #0]
 8007a76:	6ae1      	ldr	r1, [r4, #44]	; 0x2c
 8007a78:	6ad2      	ldr	r2, [r2, #44]	; 0x2c
 8007a7a:	681b      	ldr	r3, [r3, #0]
 8007a7c:	4291      	cmp	r1, r2
 8007a7e:	bf28      	it	cs
 8007a80:	2501      	movcs	r5, #1
 8007a82:	2b00      	cmp	r3, #0
 8007a84:	d04c      	beq.n	8007b20 <xTaskIncrementTick.part.0+0x118>
 8007a86:	683b      	ldr	r3, [r7, #0]
 8007a88:	68db      	ldr	r3, [r3, #12]
 8007a8a:	68dc      	ldr	r4, [r3, #12]
 8007a8c:	6863      	ldr	r3, [r4, #4]
 8007a8e:	1d21      	adds	r1, r4, #4
 8007a90:	429e      	cmp	r6, r3
 8007a92:	4608      	mov	r0, r1
 8007a94:	d2d4      	bcs.n	8007a40 <xTaskIncrementTick.part.0+0x38>
 8007a96:	f8cb 3000 	str.w	r3, [fp]
 8007a9a:	e011      	b.n	8007ac0 <xTaskIncrementTick.part.0+0xb8>
 8007a9c:	4b24      	ldr	r3, [pc, #144]	; (8007b30 <xTaskIncrementTick.part.0+0x128>)
 8007a9e:	681a      	ldr	r2, [r3, #0]
 8007aa0:	6812      	ldr	r2, [r2, #0]
 8007aa2:	b30a      	cbz	r2, 8007ae8 <xTaskIncrementTick.part.0+0xe0>
 8007aa4:	f04f 0350 	mov.w	r3, #80	; 0x50
 8007aa8:	f383 8811 	msr	BASEPRI, r3
 8007aac:	f3bf 8f6f 	isb	sy
 8007ab0:	f3bf 8f4f 	dsb	sy
 8007ab4:	e7fe      	b.n	8007ab4 <xTaskIncrementTick.part.0+0xac>
 8007ab6:	f8df 908c 	ldr.w	r9, [pc, #140]	; 8007b44 <xTaskIncrementTick.part.0+0x13c>
 8007aba:	f8df a08c 	ldr.w	sl, [pc, #140]	; 8007b48 <xTaskIncrementTick.part.0+0x140>
 8007abe:	2500      	movs	r5, #0
 8007ac0:	f8da 3000 	ldr.w	r3, [sl]
 8007ac4:	491b      	ldr	r1, [pc, #108]	; (8007b34 <xTaskIncrementTick.part.0+0x12c>)
 8007ac6:	6adb      	ldr	r3, [r3, #44]	; 0x2c
 8007ac8:	eb03 0383 	add.w	r3, r3, r3, lsl #2
 8007acc:	009b      	lsls	r3, r3, #2
 8007ace:	f859 2003 	ldr.w	r2, [r9, r3]
 8007ad2:	680b      	ldr	r3, [r1, #0]
 8007ad4:	2a02      	cmp	r2, #2
 8007ad6:	bf28      	it	cs
 8007ad8:	2501      	movcs	r5, #1
 8007ada:	2b00      	cmp	r3, #0
 8007adc:	bf0c      	ite	eq
 8007ade:	4628      	moveq	r0, r5
 8007ae0:	2001      	movne	r0, #1
 8007ae2:	b003      	add	sp, #12
 8007ae4:	e8bd 8ff0 	ldmia.w	sp!, {r4, r5, r6, r7, r8, r9, sl, fp, pc}
 8007ae8:	4a13      	ldr	r2, [pc, #76]	; (8007b38 <xTaskIncrementTick.part.0+0x130>)
 8007aea:	6818      	ldr	r0, [r3, #0]
 8007aec:	6811      	ldr	r1, [r2, #0]
 8007aee:	6019      	str	r1, [r3, #0]
 8007af0:	4912      	ldr	r1, [pc, #72]	; (8007b3c <xTaskIncrementTick.part.0+0x134>)
 8007af2:	6010      	str	r0, [r2, #0]
 8007af4:	680a      	ldr	r2, [r1, #0]
 8007af6:	3201      	adds	r2, #1
 8007af8:	600a      	str	r2, [r1, #0]
 8007afa:	681a      	ldr	r2, [r3, #0]
 8007afc:	6812      	ldr	r2, [r2, #0]
 8007afe:	b932      	cbnz	r2, 8007b0e <xTaskIncrementTick.part.0+0x106>
 8007b00:	f8df b03c 	ldr.w	fp, [pc, #60]	; 8007b40 <xTaskIncrementTick.part.0+0x138>
 8007b04:	f04f 33ff 	mov.w	r3, #4294967295
 8007b08:	f8cb 3000 	str.w	r3, [fp]
 8007b0c:	e787      	b.n	8007a1e <xTaskIncrementTick.part.0+0x16>
 8007b0e:	681b      	ldr	r3, [r3, #0]
 8007b10:	f8df b02c 	ldr.w	fp, [pc, #44]	; 8007b40 <xTaskIncrementTick.part.0+0x138>
 8007b14:	68db      	ldr	r3, [r3, #12]
 8007b16:	68db      	ldr	r3, [r3, #12]
 8007b18:	685b      	ldr	r3, [r3, #4]
 8007b1a:	f8cb 3000 	str.w	r3, [fp]
 8007b1e:	e77e      	b.n	8007a1e <xTaskIncrementTick.part.0+0x16>
 8007b20:	f04f 33ff 	mov.w	r3, #4294967295
 8007b24:	f8cb 3000 	str.w	r3, [fp]
 8007b28:	e7ca      	b.n	8007ac0 <xTaskIncrementTick.part.0+0xb8>
 8007b2a:	bf00      	nop
 8007b2c:	20003894 	.word	0x20003894
 8007b30:	200033a4 	.word	0x200033a4
 8007b34:	20003898 	.word	0x20003898
 8007b38:	200033a8 	.word	0x200033a8
 8007b3c:	2000384c 	.word	0x2000384c
 8007b40:	20003848 	.word	0x20003848
 8007b44:	200033ac 	.word	0x200033ac
 8007b48:	200033a0 	.word	0x200033a0
 8007b4c:	2000381c 	.word	0x2000381c

08007b50 <xTaskResumeAll.part.0>:
 8007b50:	e92d 4ff0 	stmdb	sp!, {r4, r5, r6, r7, r8, r9, sl, fp, lr}
 8007b54:	4d41      	ldr	r5, [pc, #260]	; (8007c5c <xTaskResumeAll.part.0+0x10c>)
 8007b56:	b083      	sub	sp, #12
 8007b58:	f000 fe34 	bl	80087c4 <vPortEnterCritical>
 8007b5c:	682b      	ldr	r3, [r5, #0]
 8007b5e:	3b01      	subs	r3, #1
 8007b60:	602b      	str	r3, [r5, #0]
 8007b62:	682b      	ldr	r3, [r5, #0]
 8007b64:	2b00      	cmp	r3, #0
 8007b66:	d161      	bne.n	8007c2c <xTaskResumeAll.part.0+0xdc>
 8007b68:	4b3d      	ldr	r3, [pc, #244]	; (8007c60 <xTaskResumeAll.part.0+0x110>)
 8007b6a:	681b      	ldr	r3, [r3, #0]
 8007b6c:	2b00      	cmp	r3, #0
 8007b6e:	d05d      	beq.n	8007c2c <xTaskResumeAll.part.0+0xdc>
 8007b70:	4e3c      	ldr	r6, [pc, #240]	; (8007c64 <xTaskResumeAll.part.0+0x114>)
 8007b72:	6833      	ldr	r3, [r6, #0]
 8007b74:	2b00      	cmp	r3, #0
 8007b76:	d06e      	beq.n	8007c56 <xTaskResumeAll.part.0+0x106>
 8007b78:	4f3b      	ldr	r7, [pc, #236]	; (8007c68 <xTaskResumeAll.part.0+0x118>)
 8007b7a:	f8df 90fc 	ldr.w	r9, [pc, #252]	; 8007c78 <xTaskResumeAll.part.0+0x128>
 8007b7e:	f8df 80fc 	ldr.w	r8, [pc, #252]	; 8007c7c <xTaskResumeAll.part.0+0x12c>
 8007b82:	f8df a0fc 	ldr.w	sl, [pc, #252]	; 8007c80 <xTaskResumeAll.part.0+0x130>
 8007b86:	68f3      	ldr	r3, [r6, #12]
 8007b88:	68dc      	ldr	r4, [r3, #12]
 8007b8a:	f104 0b04 	add.w	fp, r4, #4
 8007b8e:	f104 0018 	add.w	r0, r4, #24
 8007b92:	f7ff f97d 	bl	8006e90 <uxListRemove>
 8007b96:	4658      	mov	r0, fp
 8007b98:	f7ff f97a 	bl	8006e90 <uxListRemove>
 8007b9c:	6ae3      	ldr	r3, [r4, #44]	; 0x2c
 8007b9e:	683a      	ldr	r2, [r7, #0]
 8007ba0:	eb03 0083 	add.w	r0, r3, r3, lsl #2
 8007ba4:	4293      	cmp	r3, r2
 8007ba6:	4659      	mov	r1, fp
 8007ba8:	eb09 0080 	add.w	r0, r9, r0, lsl #2
 8007bac:	bf88      	it	hi
 8007bae:	603b      	strhi	r3, [r7, #0]
 8007bb0:	f7ff f946 	bl	8006e40 <vListInsertEnd>
 8007bb4:	f8d8 3000 	ldr.w	r3, [r8]
 8007bb8:	6ae2      	ldr	r2, [r4, #44]	; 0x2c
 8007bba:	6adb      	ldr	r3, [r3, #44]	; 0x2c
 8007bbc:	429a      	cmp	r2, r3
 8007bbe:	d33d      	bcc.n	8007c3c <xTaskResumeAll.part.0+0xec>
 8007bc0:	2301      	movs	r3, #1
 8007bc2:	f8ca 3000 	str.w	r3, [sl]
 8007bc6:	6833      	ldr	r3, [r6, #0]
 8007bc8:	2b00      	cmp	r3, #0
 8007bca:	d1dc      	bne.n	8007b86 <xTaskResumeAll.part.0+0x36>
 8007bcc:	4b27      	ldr	r3, [pc, #156]	; (8007c6c <xTaskResumeAll.part.0+0x11c>)
 8007bce:	681a      	ldr	r2, [r3, #0]
 8007bd0:	6812      	ldr	r2, [r2, #0]
 8007bd2:	2a00      	cmp	r2, #0
 8007bd4:	d03a      	beq.n	8007c4c <xTaskResumeAll.part.0+0xfc>
 8007bd6:	681a      	ldr	r2, [r3, #0]
 8007bd8:	4b25      	ldr	r3, [pc, #148]	; (8007c70 <xTaskResumeAll.part.0+0x120>)
 8007bda:	68d2      	ldr	r2, [r2, #12]
 8007bdc:	68d2      	ldr	r2, [r2, #12]
 8007bde:	6852      	ldr	r2, [r2, #4]
 8007be0:	601a      	str	r2, [r3, #0]
 8007be2:	4e24      	ldr	r6, [pc, #144]	; (8007c74 <xTaskResumeAll.part.0+0x124>)
 8007be4:	6834      	ldr	r4, [r6, #0]
 8007be6:	b194      	cbz	r4, 8007c0e <xTaskResumeAll.part.0+0xbe>
 8007be8:	2701      	movs	r7, #1
 8007bea:	e006      	b.n	8007bfa <xTaskResumeAll.part.0+0xaa>
 8007bec:	f7ff ff0c 	bl	8007a08 <xTaskIncrementTick.part.0>
 8007bf0:	b108      	cbz	r0, 8007bf6 <xTaskResumeAll.part.0+0xa6>
 8007bf2:	f8ca 7000 	str.w	r7, [sl]
 8007bf6:	3c01      	subs	r4, #1
 8007bf8:	d008      	beq.n	8007c0c <xTaskResumeAll.part.0+0xbc>
 8007bfa:	682b      	ldr	r3, [r5, #0]
 8007bfc:	2b00      	cmp	r3, #0
 8007bfe:	d0f5      	beq.n	8007bec <xTaskResumeAll.part.0+0x9c>
 8007c00:	6833      	ldr	r3, [r6, #0]
 8007c02:	3c01      	subs	r4, #1
 8007c04:	f103 0301 	add.w	r3, r3, #1
 8007c08:	6033      	str	r3, [r6, #0]
 8007c0a:	d1f6      	bne.n	8007bfa <xTaskResumeAll.part.0+0xaa>
 8007c0c:	6034      	str	r4, [r6, #0]
 8007c0e:	f8da 3000 	ldr.w	r3, [sl]
 8007c12:	b15b      	cbz	r3, 8007c2c <xTaskResumeAll.part.0+0xdc>
 8007c14:	f04f 23e0 	mov.w	r3, #3758153728	; 0xe000e000
 8007c18:	f04f 5280 	mov.w	r2, #268435456	; 0x10000000
 8007c1c:	f8c3 2d04 	str.w	r2, [r3, #3332]	; 0xd04
 8007c20:	f3bf 8f4f 	dsb	sy
 8007c24:	f3bf 8f6f 	isb	sy
 8007c28:	2001      	movs	r0, #1
 8007c2a:	e000      	b.n	8007c2e <xTaskResumeAll.part.0+0xde>
 8007c2c:	2000      	movs	r0, #0
 8007c2e:	9001      	str	r0, [sp, #4]
 8007c30:	f000 fdea 	bl	8008808 <vPortExitCritical>
 8007c34:	9801      	ldr	r0, [sp, #4]
 8007c36:	b003      	add	sp, #12
 8007c38:	e8bd 8ff0 	ldmia.w	sp!, {r4, r5, r6, r7, r8, r9, sl, fp, pc}
 8007c3c:	6833      	ldr	r3, [r6, #0]
 8007c3e:	2b00      	cmp	r3, #0
 8007c40:	d1a1      	bne.n	8007b86 <xTaskResumeAll.part.0+0x36>
 8007c42:	4b0a      	ldr	r3, [pc, #40]	; (8007c6c <xTaskResumeAll.part.0+0x11c>)
 8007c44:	681a      	ldr	r2, [r3, #0]
 8007c46:	6812      	ldr	r2, [r2, #0]
 8007c48:	2a00      	cmp	r2, #0
 8007c4a:	d1c4      	bne.n	8007bd6 <xTaskResumeAll.part.0+0x86>
 8007c4c:	4b08      	ldr	r3, [pc, #32]	; (8007c70 <xTaskResumeAll.part.0+0x120>)
 8007c4e:	f04f 32ff 	mov.w	r2, #4294967295
 8007c52:	601a      	str	r2, [r3, #0]
 8007c54:	e7c5      	b.n	8007be2 <xTaskResumeAll.part.0+0x92>
 8007c56:	f8df a028 	ldr.w	sl, [pc, #40]	; 8007c80 <xTaskResumeAll.part.0+0x130>
 8007c5a:	e7c2      	b.n	8007be2 <xTaskResumeAll.part.0+0x92>
 8007c5c:	20003814 	.word	0x20003814
 8007c60:	2000380c 	.word	0x2000380c
 8007c64:	20003854 	.word	0x20003854
 8007c68:	2000381c 	.word	0x2000381c
 8007c6c:	200033a4 	.word	0x200033a4
 8007c70:	20003848 	.word	0x20003848
 8007c74:	20003850 	.word	0x20003850
 8007c78:	200033ac 	.word	0x200033ac
 8007c7c:	200033a0 	.word	0x200033a0
 8007c80:	20003898 	.word	0x20003898

08007c84 <xTaskCreateStatic>:
 8007c84:	b530      	push	{r4, r5, lr}
 8007c86:	b087      	sub	sp, #28
 8007c88:	9c0b      	ldr	r4, [sp, #44]	; 0x2c
 8007c8a:	b1c4      	cbz	r4, 8007cbe <xTaskCreateStatic+0x3a>
 8007c8c:	9d0c      	ldr	r5, [sp, #48]	; 0x30
 8007c8e:	b16d      	cbz	r5, 8007cac <xTaskCreateStatic+0x28>
 8007c90:	255c      	movs	r5, #92	; 0x5c
 8007c92:	9505      	str	r5, [sp, #20]
 8007c94:	9d05      	ldr	r5, [sp, #20]
 8007c96:	2d5c      	cmp	r5, #92	; 0x5c
 8007c98:	d01a      	beq.n	8007cd0 <xTaskCreateStatic+0x4c>
 8007c9a:	f04f 0350 	mov.w	r3, #80	; 0x50
 8007c9e:	f383 8811 	msr	BASEPRI, r3
 8007ca2:	f3bf 8f6f 	isb	sy
 8007ca6:	f3bf 8f4f 	dsb	sy
 8007caa:	e7fe      	b.n	8007caa <xTaskCreateStatic+0x26>
 8007cac:	f04f 0350 	mov.w	r3, #80	; 0x50
 8007cb0:	f383 8811 	msr	BASEPRI, r3
 8007cb4:	f3bf 8f6f 	isb	sy
 8007cb8:	f3bf 8f4f 	dsb	sy
 8007cbc:	e7fe      	b.n	8007cbc <xTaskCreateStatic+0x38>
 8007cbe:	f04f 0350 	mov.w	r3, #80	; 0x50
 8007cc2:	f383 8811 	msr	BASEPRI, r3
 8007cc6:	f3bf 8f6f 	isb	sy
 8007cca:	f3bf 8f4f 	dsb	sy
 8007cce:	e7fe      	b.n	8007cce <xTaskCreateStatic+0x4a>
 8007cd0:	9d0c      	ldr	r5, [sp, #48]	; 0x30
 8007cd2:	632c      	str	r4, [r5, #48]	; 0x30
 8007cd4:	2402      	movs	r4, #2
 8007cd6:	f885 4059 	strb.w	r4, [r5, #89]	; 0x59
 8007cda:	ac04      	add	r4, sp, #16
 8007cdc:	e9cd 4501 	strd	r4, r5, [sp, #4]
 8007ce0:	9c0a      	ldr	r4, [sp, #40]	; 0x28
 8007ce2:	9400      	str	r4, [sp, #0]
 8007ce4:	9c05      	ldr	r4, [sp, #20]
 8007ce6:	f7ff fdab 	bl	8007840 <prvInitialiseNewTask.constprop.0>
 8007cea:	980c      	ldr	r0, [sp, #48]	; 0x30
 8007cec:	f7ff fd20 	bl	8007730 <prvAddNewTaskToReadyList>
 8007cf0:	9804      	ldr	r0, [sp, #16]
 8007cf2:	b007      	add	sp, #28
 8007cf4:	bd30      	pop	{r4, r5, pc}
 8007cf6:	bf00      	nop

08007cf8 <xTaskCreate>:
 8007cf8:	e92d 43f0 	stmdb	sp!, {r4, r5, r6, r7, r8, r9, lr}
 8007cfc:	4607      	mov	r7, r0
 8007cfe:	b085      	sub	sp, #20
 8007d00:	0090      	lsls	r0, r2, #2
 8007d02:	4615      	mov	r5, r2
 8007d04:	4688      	mov	r8, r1
 8007d06:	4699      	mov	r9, r3
 8007d08:	f000 fe8e 	bl	8008a28 <pvPortMalloc>
 8007d0c:	b1d8      	cbz	r0, 8007d46 <xTaskCreate+0x4e>
 8007d0e:	4604      	mov	r4, r0
 8007d10:	205c      	movs	r0, #92	; 0x5c
 8007d12:	f000 fe89 	bl	8008a28 <pvPortMalloc>
 8007d16:	4606      	mov	r6, r0
 8007d18:	b1d0      	cbz	r0, 8007d50 <xTaskCreate+0x58>
 8007d1a:	6304      	str	r4, [r0, #48]	; 0x30
 8007d1c:	2400      	movs	r4, #0
 8007d1e:	f886 4059 	strb.w	r4, [r6, #89]	; 0x59
 8007d22:	9c0d      	ldr	r4, [sp, #52]	; 0x34
 8007d24:	9401      	str	r4, [sp, #4]
 8007d26:	9c0c      	ldr	r4, [sp, #48]	; 0x30
 8007d28:	9602      	str	r6, [sp, #8]
 8007d2a:	464b      	mov	r3, r9
 8007d2c:	462a      	mov	r2, r5
 8007d2e:	4641      	mov	r1, r8
 8007d30:	4638      	mov	r0, r7
 8007d32:	9400      	str	r4, [sp, #0]
 8007d34:	f7ff fd84 	bl	8007840 <prvInitialiseNewTask.constprop.0>
 8007d38:	4630      	mov	r0, r6
 8007d3a:	f7ff fcf9 	bl	8007730 <prvAddNewTaskToReadyList>
 8007d3e:	2001      	movs	r0, #1
 8007d40:	b005      	add	sp, #20
 8007d42:	e8bd 83f0 	ldmia.w	sp!, {r4, r5, r6, r7, r8, r9, pc}
 8007d46:	f04f 30ff 	mov.w	r0, #4294967295
 8007d4a:	b005      	add	sp, #20
 8007d4c:	e8bd 83f0 	ldmia.w	sp!, {r4, r5, r6, r7, r8, r9, pc}
 8007d50:	4620      	mov	r0, r4
 8007d52:	f000 ff21 	bl	8008b98 <vPortFree>
 8007d56:	f04f 30ff 	mov.w	r0, #4294967295
 8007d5a:	e7f1      	b.n	8007d40 <xTaskCreate+0x48>

08007d5c <vTaskDelay>:
 8007d5c:	b5f8      	push	{r3, r4, r5, r6, r7, lr}
 8007d5e:	b950      	cbnz	r0, 8007d76 <vTaskDelay+0x1a>
 8007d60:	f04f 23e0 	mov.w	r3, #3758153728	; 0xe000e000
 8007d64:	f04f 5280 	mov.w	r2, #268435456	; 0x10000000
 8007d68:	f8c3 2d04 	str.w	r2, [r3, #3332]	; 0xd04
 8007d6c:	f3bf 8f4f 	dsb	sy
 8007d70:	f3bf 8f6f 	isb	sy
 8007d74:	bdf8      	pop	{r3, r4, r5, r6, r7, pc}
 8007d76:	4d1e      	ldr	r5, [pc, #120]	; (8007df0 <vTaskDelay+0x94>)
 8007d78:	682b      	ldr	r3, [r5, #0]
 8007d7a:	b143      	cbz	r3, 8007d8e <vTaskDelay+0x32>
 8007d7c:	f04f 0350 	mov.w	r3, #80	; 0x50
 8007d80:	f383 8811 	msr	BASEPRI, r3
 8007d84:	f3bf 8f6f 	isb	sy
 8007d88:	f3bf 8f4f 	dsb	sy
 8007d8c:	e7fe      	b.n	8007d8c <vTaskDelay+0x30>
 8007d8e:	682b      	ldr	r3, [r5, #0]
 8007d90:	3301      	adds	r3, #1
 8007d92:	4604      	mov	r4, r0
 8007d94:	602b      	str	r3, [r5, #0]
 8007d96:	4b17      	ldr	r3, [pc, #92]	; (8007df4 <vTaskDelay+0x98>)
 8007d98:	4e17      	ldr	r6, [pc, #92]	; (8007df8 <vTaskDelay+0x9c>)
 8007d9a:	681f      	ldr	r7, [r3, #0]
 8007d9c:	6830      	ldr	r0, [r6, #0]
 8007d9e:	3004      	adds	r0, #4
 8007da0:	f7ff f876 	bl	8006e90 <uxListRemove>
 8007da4:	6833      	ldr	r3, [r6, #0]
 8007da6:	19e4      	adds	r4, r4, r7
 8007da8:	605c      	str	r4, [r3, #4]
 8007daa:	d310      	bcc.n	8007dce <vTaskDelay+0x72>
 8007dac:	4b13      	ldr	r3, [pc, #76]	; (8007dfc <vTaskDelay+0xa0>)
 8007dae:	6818      	ldr	r0, [r3, #0]
 8007db0:	6831      	ldr	r1, [r6, #0]
 8007db2:	3104      	adds	r1, #4
 8007db4:	f7ff f854 	bl	8006e60 <vListInsert>
 8007db8:	682b      	ldr	r3, [r5, #0]
 8007dba:	b9a3      	cbnz	r3, 8007de6 <vTaskDelay+0x8a>
 8007dbc:	f04f 0350 	mov.w	r3, #80	; 0x50
 8007dc0:	f383 8811 	msr	BASEPRI, r3
 8007dc4:	f3bf 8f6f 	isb	sy
 8007dc8:	f3bf 8f4f 	dsb	sy
 8007dcc:	e7fe      	b.n	8007dcc <vTaskDelay+0x70>
 8007dce:	4b0c      	ldr	r3, [pc, #48]	; (8007e00 <vTaskDelay+0xa4>)
 8007dd0:	6818      	ldr	r0, [r3, #0]
 8007dd2:	6831      	ldr	r1, [r6, #0]
 8007dd4:	3104      	adds	r1, #4
 8007dd6:	f7ff f843 	bl	8006e60 <vListInsert>
 8007dda:	4b0a      	ldr	r3, [pc, #40]	; (8007e04 <vTaskDelay+0xa8>)
 8007ddc:	681a      	ldr	r2, [r3, #0]
 8007dde:	4294      	cmp	r4, r2
 8007de0:	bf38      	it	cc
 8007de2:	601c      	strcc	r4, [r3, #0]
 8007de4:	e7e8      	b.n	8007db8 <vTaskDelay+0x5c>
 8007de6:	f7ff feb3 	bl	8007b50 <xTaskResumeAll.part.0>
 8007dea:	2800      	cmp	r0, #0
 8007dec:	d0b8      	beq.n	8007d60 <vTaskDelay+0x4>
 8007dee:	bdf8      	pop	{r3, r4, r5, r6, r7, pc}
 8007df0:	20003814 	.word	0x20003814
 8007df4:	20003894 	.word	0x20003894
 8007df8:	200033a0 	.word	0x200033a0
 8007dfc:	200033a8 	.word	0x200033a8
 8007e00:	200033a4 	.word	0x200033a4
 8007e04:	20003848 	.word	0x20003848

08007e08 <vTaskStartScheduler>:
 8007e08:	b570      	push	{r4, r5, r6, lr}
 8007e0a:	b084      	sub	sp, #16
 8007e0c:	4668      	mov	r0, sp
 8007e0e:	2400      	movs	r4, #0
 8007e10:	aa02      	add	r2, sp, #8
 8007e12:	a901      	add	r1, sp, #4
 8007e14:	e9cd 4400 	strd	r4, r4, [sp]
 8007e18:	f7fe ffe4 	bl	8006de4 <vApplicationGetIdleTaskMemory>
 8007e1c:	9801      	ldr	r0, [sp, #4]
 8007e1e:	b1c8      	cbz	r0, 8007e54 <vTaskStartScheduler+0x4c>
 8007e20:	9d00      	ldr	r5, [sp, #0]
 8007e22:	b175      	cbz	r5, 8007e42 <vTaskStartScheduler+0x3a>
 8007e24:	235c      	movs	r3, #92	; 0x5c
 8007e26:	9303      	str	r3, [sp, #12]
 8007e28:	9a03      	ldr	r2, [sp, #12]
 8007e2a:	9e02      	ldr	r6, [sp, #8]
 8007e2c:	429a      	cmp	r2, r3
 8007e2e:	d01a      	beq.n	8007e66 <vTaskStartScheduler+0x5e>
 8007e30:	f04f 0350 	mov.w	r3, #80	; 0x50
 8007e34:	f383 8811 	msr	BASEPRI, r3
 8007e38:	f3bf 8f6f 	isb	sy
 8007e3c:	f3bf 8f4f 	dsb	sy
 8007e40:	e7fe      	b.n	8007e40 <vTaskStartScheduler+0x38>
 8007e42:	f04f 0350 	mov.w	r3, #80	; 0x50
 8007e46:	f383 8811 	msr	BASEPRI, r3
 8007e4a:	f3bf 8f6f 	isb	sy
 8007e4e:	f3bf 8f4f 	dsb	sy
 8007e52:	e7fe      	b.n	8007e52 <vTaskStartScheduler+0x4a>
 8007e54:	f04f 0350 	mov.w	r3, #80	; 0x50
 8007e58:	f383 8811 	msr	BASEPRI, r3
 8007e5c:	f3bf 8f6f 	isb	sy
 8007e60:	f3bf 8f4f 	dsb	sy
 8007e64:	e7fe      	b.n	8007e64 <vTaskStartScheduler+0x5c>
 8007e66:	00b6      	lsls	r6, r6, #2
 8007e68:	2302      	movs	r3, #2
 8007e6a:	4632      	mov	r2, r6
 8007e6c:	f885 3059 	strb.w	r3, [r5, #89]	; 0x59
 8007e70:	21a5      	movs	r1, #165	; 0xa5
 8007e72:	6328      	str	r0, [r5, #48]	; 0x30
 8007e74:	9b03      	ldr	r3, [sp, #12]
 8007e76:	f000 ff29 	bl	8008ccc <memset>
 8007e7a:	6b2a      	ldr	r2, [r5, #48]	; 0x30
 8007e7c:	4924      	ldr	r1, [pc, #144]	; (8007f10 <vTaskStartScheduler+0x108>)
 8007e7e:	6369      	str	r1, [r5, #52]	; 0x34
 8007e80:	1f33      	subs	r3, r6, #4
 8007e82:	1d28      	adds	r0, r5, #4
 8007e84:	e9c5 4413 	strd	r4, r4, [r5, #76]	; 0x4c
 8007e88:	f885 4038 	strb.w	r4, [r5, #56]	; 0x38
 8007e8c:	f885 4043 	strb.w	r4, [r5, #67]	; 0x43
 8007e90:	62ec      	str	r4, [r5, #44]	; 0x2c
 8007e92:	18d6      	adds	r6, r2, r3
 8007e94:	f7fe ffd0 	bl	8006e38 <vListInitialiseItem>
 8007e98:	f105 0018 	add.w	r0, r5, #24
 8007e9c:	f7fe ffcc 	bl	8006e38 <vListInitialiseItem>
 8007ea0:	f026 0607 	bic.w	r6, r6, #7
 8007ea4:	2338      	movs	r3, #56	; 0x38
 8007ea6:	491b      	ldr	r1, [pc, #108]	; (8007f14 <vTaskStartScheduler+0x10c>)
 8007ea8:	61ab      	str	r3, [r5, #24]
 8007eaa:	4622      	mov	r2, r4
 8007eac:	656c      	str	r4, [r5, #84]	; 0x54
 8007eae:	612d      	str	r5, [r5, #16]
 8007eb0:	626d      	str	r5, [r5, #36]	; 0x24
 8007eb2:	f885 4058 	strb.w	r4, [r5, #88]	; 0x58
 8007eb6:	4630      	mov	r0, r6
 8007eb8:	f000 fc58 	bl	800876c <pxPortInitialiseStack>
 8007ebc:	6028      	str	r0, [r5, #0]
 8007ebe:	4628      	mov	r0, r5
 8007ec0:	f7ff fc36 	bl	8007730 <prvAddNewTaskToReadyList>
 8007ec4:	f000 fbb6 	bl	8008634 <xTimerCreateTimerTask>
 8007ec8:	2801      	cmp	r0, #1
 8007eca:	d00c      	beq.n	8007ee6 <vTaskStartScheduler+0xde>
 8007ecc:	3001      	adds	r0, #1
 8007ece:	d001      	beq.n	8007ed4 <vTaskStartScheduler+0xcc>
 8007ed0:	b004      	add	sp, #16
 8007ed2:	bd70      	pop	{r4, r5, r6, pc}
 8007ed4:	f04f 0350 	mov.w	r3, #80	; 0x50
 8007ed8:	f383 8811 	msr	BASEPRI, r3
 8007edc:	f3bf 8f6f 	isb	sy
 8007ee0:	f3bf 8f4f 	dsb	sy
 8007ee4:	e7fe      	b.n	8007ee4 <vTaskStartScheduler+0xdc>
 8007ee6:	f04f 0350 	mov.w	r3, #80	; 0x50
 8007eea:	f383 8811 	msr	BASEPRI, r3
 8007eee:	f3bf 8f6f 	isb	sy
 8007ef2:	f3bf 8f4f 	dsb	sy
 8007ef6:	4908      	ldr	r1, [pc, #32]	; (8007f18 <vTaskStartScheduler+0x110>)
 8007ef8:	4a08      	ldr	r2, [pc, #32]	; (8007f1c <vTaskStartScheduler+0x114>)
 8007efa:	4b09      	ldr	r3, [pc, #36]	; (8007f20 <vTaskStartScheduler+0x118>)
 8007efc:	f04f 35ff 	mov.w	r5, #4294967295
 8007f00:	600d      	str	r5, [r1, #0]
 8007f02:	6010      	str	r0, [r2, #0]
 8007f04:	601c      	str	r4, [r3, #0]
 8007f06:	b004      	add	sp, #16
 8007f08:	e8bd 4070 	ldmia.w	sp!, {r4, r5, r6, lr}
 8007f0c:	f000 bcec 	b.w	80088e8 <xPortStartScheduler>
 8007f10:	454c4449 	.word	0x454c4449
 8007f14:	08007971 	.word	0x08007971
 8007f18:	20003848 	.word	0x20003848
 8007f1c:	20003868 	.word	0x20003868
 8007f20:	20003894 	.word	0x20003894

08007f24 <vTaskSuspendAll>:
 8007f24:	4a02      	ldr	r2, [pc, #8]	; (8007f30 <vTaskSuspendAll+0xc>)
 8007f26:	6813      	ldr	r3, [r2, #0]
 8007f28:	3301      	adds	r3, #1
 8007f2a:	6013      	str	r3, [r2, #0]
 8007f2c:	4770      	bx	lr
 8007f2e:	bf00      	nop
 8007f30:	20003814 	.word	0x20003814

08007f34 <xTaskResumeAll>:
 8007f34:	4b06      	ldr	r3, [pc, #24]	; (8007f50 <xTaskResumeAll+0x1c>)
 8007f36:	681b      	ldr	r3, [r3, #0]
 8007f38:	b943      	cbnz	r3, 8007f4c <xTaskResumeAll+0x18>
 8007f3a:	f04f 0350 	mov.w	r3, #80	; 0x50
 8007f3e:	f383 8811 	msr	BASEPRI, r3
 8007f42:	f3bf 8f6f 	isb	sy
 8007f46:	f3bf 8f4f 	dsb	sy
 8007f4a:	e7fe      	b.n	8007f4a <xTaskResumeAll+0x16>
 8007f4c:	f7ff be00 	b.w	8007b50 <xTaskResumeAll.part.0>
 8007f50:	20003814 	.word	0x20003814

08007f54 <xTaskGetTickCount>:
 8007f54:	4b01      	ldr	r3, [pc, #4]	; (8007f5c <xTaskGetTickCount+0x8>)
 8007f56:	6818      	ldr	r0, [r3, #0]
 8007f58:	4770      	bx	lr
 8007f5a:	bf00      	nop
 8007f5c:	20003894 	.word	0x20003894

08007f60 <xTaskIncrementTick>:
 8007f60:	4b05      	ldr	r3, [pc, #20]	; (8007f78 <xTaskIncrementTick+0x18>)
 8007f62:	681b      	ldr	r3, [r3, #0]
 8007f64:	b90b      	cbnz	r3, 8007f6a <xTaskIncrementTick+0xa>
 8007f66:	f7ff bd4f 	b.w	8007a08 <xTaskIncrementTick.part.0>
 8007f6a:	4a04      	ldr	r2, [pc, #16]	; (8007f7c <xTaskIncrementTick+0x1c>)
 8007f6c:	6813      	ldr	r3, [r2, #0]
 8007f6e:	3301      	adds	r3, #1
 8007f70:	2000      	movs	r0, #0
 8007f72:	6013      	str	r3, [r2, #0]
 8007f74:	4770      	bx	lr
 8007f76:	bf00      	nop
 8007f78:	20003814 	.word	0x20003814
 8007f7c:	20003850 	.word	0x20003850

08007f80 <vTaskSwitchContext>:
 8007f80:	4b1c      	ldr	r3, [pc, #112]	; (8007ff4 <vTaskSwitchContext+0x74>)
 8007f82:	681b      	ldr	r3, [r3, #0]
 8007f84:	b11b      	cbz	r3, 8007f8e <vTaskSwitchContext+0xe>
 8007f86:	4b1c      	ldr	r3, [pc, #112]	; (8007ff8 <vTaskSwitchContext+0x78>)
 8007f88:	2201      	movs	r2, #1
 8007f8a:	601a      	str	r2, [r3, #0]
 8007f8c:	4770      	bx	lr
 8007f8e:	4a1a      	ldr	r2, [pc, #104]	; (8007ff8 <vTaskSwitchContext+0x78>)
 8007f90:	491a      	ldr	r1, [pc, #104]	; (8007ffc <vTaskSwitchContext+0x7c>)
 8007f92:	b410      	push	{r4}
 8007f94:	4c1a      	ldr	r4, [pc, #104]	; (8008000 <vTaskSwitchContext+0x80>)
 8007f96:	6013      	str	r3, [r2, #0]
 8007f98:	6823      	ldr	r3, [r4, #0]
 8007f9a:	eb03 0283 	add.w	r2, r3, r3, lsl #2
 8007f9e:	0092      	lsls	r2, r2, #2
 8007fa0:	0098      	lsls	r0, r3, #2
 8007fa2:	588a      	ldr	r2, [r1, r2]
 8007fa4:	b942      	cbnz	r2, 8007fb8 <vTaskSwitchContext+0x38>
 8007fa6:	b1db      	cbz	r3, 8007fe0 <vTaskSwitchContext+0x60>
 8007fa8:	3b01      	subs	r3, #1
 8007faa:	eb03 0283 	add.w	r2, r3, r3, lsl #2
 8007fae:	0098      	lsls	r0, r3, #2
 8007fb0:	f851 2022 	ldr.w	r2, [r1, r2, lsl #2]
 8007fb4:	2a00      	cmp	r2, #0
 8007fb6:	d0f6      	beq.n	8007fa6 <vTaskSwitchContext+0x26>
 8007fb8:	18c2      	adds	r2, r0, r3
 8007fba:	eb01 0082 	add.w	r0, r1, r2, lsl #2
 8007fbe:	4602      	mov	r2, r0
 8007fc0:	6841      	ldr	r1, [r0, #4]
 8007fc2:	6849      	ldr	r1, [r1, #4]
 8007fc4:	6041      	str	r1, [r0, #4]
 8007fc6:	3208      	adds	r2, #8
 8007fc8:	4291      	cmp	r1, r2
 8007fca:	bf08      	it	eq
 8007fcc:	6849      	ldreq	r1, [r1, #4]
 8007fce:	4a0d      	ldr	r2, [pc, #52]	; (8008004 <vTaskSwitchContext+0x84>)
 8007fd0:	bf08      	it	eq
 8007fd2:	6041      	streq	r1, [r0, #4]
 8007fd4:	68c9      	ldr	r1, [r1, #12]
 8007fd6:	6011      	str	r1, [r2, #0]
 8007fd8:	6023      	str	r3, [r4, #0]
 8007fda:	f85d 4b04 	ldr.w	r4, [sp], #4
 8007fde:	4770      	bx	lr
 8007fe0:	f04f 0350 	mov.w	r3, #80	; 0x50
 8007fe4:	f383 8811 	msr	BASEPRI, r3
 8007fe8:	f3bf 8f6f 	isb	sy
 8007fec:	f3bf 8f4f 	dsb	sy
 8007ff0:	e7fe      	b.n	8007ff0 <vTaskSwitchContext+0x70>
 8007ff2:	bf00      	nop
 8007ff4:	20003814 	.word	0x20003814
 8007ff8:	20003898 	.word	0x20003898
 8007ffc:	200033ac 	.word	0x200033ac
 8008000:	2000381c 	.word	0x2000381c
 8008004:	200033a0 	.word	0x200033a0

08008008 <vTaskPlaceOnEventList>:
 8008008:	b1d0      	cbz	r0, 8008040 <vTaskPlaceOnEventList+0x38>
 800800a:	b570      	push	{r4, r5, r6, lr}
 800800c:	4d1a      	ldr	r5, [pc, #104]	; (8008078 <vTaskPlaceOnEventList+0x70>)
 800800e:	460c      	mov	r4, r1
 8008010:	6829      	ldr	r1, [r5, #0]
 8008012:	3118      	adds	r1, #24
 8008014:	f7fe ff24 	bl	8006e60 <vListInsert>
 8008018:	4b18      	ldr	r3, [pc, #96]	; (800807c <vTaskPlaceOnEventList+0x74>)
 800801a:	681e      	ldr	r6, [r3, #0]
 800801c:	6828      	ldr	r0, [r5, #0]
 800801e:	3004      	adds	r0, #4
 8008020:	f7fe ff36 	bl	8006e90 <uxListRemove>
 8008024:	1c63      	adds	r3, r4, #1
 8008026:	d014      	beq.n	8008052 <vTaskPlaceOnEventList+0x4a>
 8008028:	682b      	ldr	r3, [r5, #0]
 800802a:	19a4      	adds	r4, r4, r6
 800802c:	605c      	str	r4, [r3, #4]
 800802e:	d317      	bcc.n	8008060 <vTaskPlaceOnEventList+0x58>
 8008030:	4b13      	ldr	r3, [pc, #76]	; (8008080 <vTaskPlaceOnEventList+0x78>)
 8008032:	6818      	ldr	r0, [r3, #0]
 8008034:	6829      	ldr	r1, [r5, #0]
 8008036:	e8bd 4070 	ldmia.w	sp!, {r4, r5, r6, lr}
 800803a:	3104      	adds	r1, #4
 800803c:	f7fe bf10 	b.w	8006e60 <vListInsert>
 8008040:	f04f 0350 	mov.w	r3, #80	; 0x50
 8008044:	f383 8811 	msr	BASEPRI, r3
 8008048:	f3bf 8f6f 	isb	sy
 800804c:	f3bf 8f4f 	dsb	sy
 8008050:	e7fe      	b.n	8008050 <vTaskPlaceOnEventList+0x48>
 8008052:	6829      	ldr	r1, [r5, #0]
 8008054:	480b      	ldr	r0, [pc, #44]	; (8008084 <vTaskPlaceOnEventList+0x7c>)
 8008056:	e8bd 4070 	ldmia.w	sp!, {r4, r5, r6, lr}
 800805a:	3104      	adds	r1, #4
 800805c:	f7fe bef0 	b.w	8006e40 <vListInsertEnd>
 8008060:	4b09      	ldr	r3, [pc, #36]	; (8008088 <vTaskPlaceOnEventList+0x80>)
 8008062:	6818      	ldr	r0, [r3, #0]
 8008064:	6829      	ldr	r1, [r5, #0]
 8008066:	3104      	adds	r1, #4
 8008068:	f7fe fefa 	bl	8006e60 <vListInsert>
 800806c:	4b07      	ldr	r3, [pc, #28]	; (800808c <vTaskPlaceOnEventList+0x84>)
 800806e:	681a      	ldr	r2, [r3, #0]
 8008070:	4294      	cmp	r4, r2
 8008072:	bf38      	it	cc
 8008074:	601c      	strcc	r4, [r3, #0]
 8008076:	bd70      	pop	{r4, r5, r6, pc}
 8008078:	200033a0 	.word	0x200033a0
 800807c:	20003894 	.word	0x20003894
 8008080:	200033a8 	.word	0x200033a8
 8008084:	2000386c 	.word	0x2000386c
 8008088:	200033a4 	.word	0x200033a4
 800808c:	20003848 	.word	0x20003848

08008090 <vTaskPlaceOnEventListRestricted>:
 8008090:	b330      	cbz	r0, 80080e0 <vTaskPlaceOnEventListRestricted+0x50>
 8008092:	b570      	push	{r4, r5, r6, lr}
 8008094:	4e1d      	ldr	r6, [pc, #116]	; (800810c <vTaskPlaceOnEventListRestricted+0x7c>)
 8008096:	460c      	mov	r4, r1
 8008098:	6831      	ldr	r1, [r6, #0]
 800809a:	4615      	mov	r5, r2
 800809c:	3118      	adds	r1, #24
 800809e:	f7fe fecf 	bl	8006e40 <vListInsertEnd>
 80080a2:	4b1b      	ldr	r3, [pc, #108]	; (8008110 <vTaskPlaceOnEventListRestricted+0x80>)
 80080a4:	b985      	cbnz	r5, 80080c8 <vTaskPlaceOnEventListRestricted+0x38>
 80080a6:	681d      	ldr	r5, [r3, #0]
 80080a8:	6830      	ldr	r0, [r6, #0]
 80080aa:	3004      	adds	r0, #4
 80080ac:	f7fe fef0 	bl	8006e90 <uxListRemove>
 80080b0:	6833      	ldr	r3, [r6, #0]
 80080b2:	1964      	adds	r4, r4, r5
 80080b4:	605c      	str	r4, [r3, #4]
 80080b6:	d31c      	bcc.n	80080f2 <vTaskPlaceOnEventListRestricted+0x62>
 80080b8:	4b16      	ldr	r3, [pc, #88]	; (8008114 <vTaskPlaceOnEventListRestricted+0x84>)
 80080ba:	6818      	ldr	r0, [r3, #0]
 80080bc:	6831      	ldr	r1, [r6, #0]
 80080be:	e8bd 4070 	ldmia.w	sp!, {r4, r5, r6, lr}
 80080c2:	3104      	adds	r1, #4
 80080c4:	f7fe becc 	b.w	8006e60 <vListInsert>
 80080c8:	681b      	ldr	r3, [r3, #0]
 80080ca:	6830      	ldr	r0, [r6, #0]
 80080cc:	3004      	adds	r0, #4
 80080ce:	f7fe fedf 	bl	8006e90 <uxListRemove>
 80080d2:	6831      	ldr	r1, [r6, #0]
 80080d4:	4810      	ldr	r0, [pc, #64]	; (8008118 <vTaskPlaceOnEventListRestricted+0x88>)
 80080d6:	e8bd 4070 	ldmia.w	sp!, {r4, r5, r6, lr}
 80080da:	3104      	adds	r1, #4
 80080dc:	f7fe beb0 	b.w	8006e40 <vListInsertEnd>
 80080e0:	f04f 0350 	mov.w	r3, #80	; 0x50
 80080e4:	f383 8811 	msr	BASEPRI, r3
 80080e8:	f3bf 8f6f 	isb	sy
 80080ec:	f3bf 8f4f 	dsb	sy
 80080f0:	e7fe      	b.n	80080f0 <vTaskPlaceOnEventListRestricted+0x60>
 80080f2:	4b0a      	ldr	r3, [pc, #40]	; (800811c <vTaskPlaceOnEventListRestricted+0x8c>)
 80080f4:	6818      	ldr	r0, [r3, #0]
 80080f6:	6831      	ldr	r1, [r6, #0]
 80080f8:	3104      	adds	r1, #4
 80080fa:	f7fe feb1 	bl	8006e60 <vListInsert>
 80080fe:	4b08      	ldr	r3, [pc, #32]	; (8008120 <vTaskPlaceOnEventListRestricted+0x90>)
 8008100:	681a      	ldr	r2, [r3, #0]
 8008102:	4294      	cmp	r4, r2
 8008104:	bf38      	it	cc
 8008106:	601c      	strcc	r4, [r3, #0]
 8008108:	bd70      	pop	{r4, r5, r6, pc}
 800810a:	bf00      	nop
 800810c:	200033a0 	.word	0x200033a0
 8008110:	20003894 	.word	0x20003894
 8008114:	200033a8 	.word	0x200033a8
 8008118:	2000386c 	.word	0x2000386c
 800811c:	200033a4 	.word	0x200033a4
 8008120:	20003848 	.word	0x20003848

08008124 <xTaskRemoveFromEventList>:
 8008124:	b530      	push	{r4, r5, lr}
 8008126:	68c3      	ldr	r3, [r0, #12]
 8008128:	68dc      	ldr	r4, [r3, #12]
 800812a:	b083      	sub	sp, #12
 800812c:	2c00      	cmp	r4, #0
 800812e:	d02b      	beq.n	8008188 <xTaskRemoveFromEventList+0x64>
 8008130:	f104 0518 	add.w	r5, r4, #24
 8008134:	4628      	mov	r0, r5
 8008136:	f7fe feab 	bl	8006e90 <uxListRemove>
 800813a:	4b18      	ldr	r3, [pc, #96]	; (800819c <xTaskRemoveFromEventList+0x78>)
 800813c:	681b      	ldr	r3, [r3, #0]
 800813e:	b17b      	cbz	r3, 8008160 <xTaskRemoveFromEventList+0x3c>
 8008140:	4817      	ldr	r0, [pc, #92]	; (80081a0 <xTaskRemoveFromEventList+0x7c>)
 8008142:	4629      	mov	r1, r5
 8008144:	f7fe fe7c 	bl	8006e40 <vListInsertEnd>
 8008148:	4b16      	ldr	r3, [pc, #88]	; (80081a4 <xTaskRemoveFromEventList+0x80>)
 800814a:	6ae2      	ldr	r2, [r4, #44]	; 0x2c
 800814c:	681b      	ldr	r3, [r3, #0]
 800814e:	6adb      	ldr	r3, [r3, #44]	; 0x2c
 8008150:	429a      	cmp	r2, r3
 8008152:	bf85      	ittet	hi
 8008154:	4b14      	ldrhi	r3, [pc, #80]	; (80081a8 <xTaskRemoveFromEventList+0x84>)
 8008156:	2001      	movhi	r0, #1
 8008158:	2000      	movls	r0, #0
 800815a:	6018      	strhi	r0, [r3, #0]
 800815c:	b003      	add	sp, #12
 800815e:	bd30      	pop	{r4, r5, pc}
 8008160:	1d21      	adds	r1, r4, #4
 8008162:	4608      	mov	r0, r1
 8008164:	9101      	str	r1, [sp, #4]
 8008166:	f7fe fe93 	bl	8006e90 <uxListRemove>
 800816a:	4a10      	ldr	r2, [pc, #64]	; (80081ac <xTaskRemoveFromEventList+0x88>)
 800816c:	6ae3      	ldr	r3, [r4, #44]	; 0x2c
 800816e:	6810      	ldr	r0, [r2, #0]
 8008170:	9901      	ldr	r1, [sp, #4]
 8008172:	4283      	cmp	r3, r0
 8008174:	480e      	ldr	r0, [pc, #56]	; (80081b0 <xTaskRemoveFromEventList+0x8c>)
 8008176:	bf88      	it	hi
 8008178:	6013      	strhi	r3, [r2, #0]
 800817a:	eb03 0383 	add.w	r3, r3, r3, lsl #2
 800817e:	eb00 0083 	add.w	r0, r0, r3, lsl #2
 8008182:	f7fe fe5d 	bl	8006e40 <vListInsertEnd>
 8008186:	e7df      	b.n	8008148 <xTaskRemoveFromEventList+0x24>
 8008188:	f04f 0350 	mov.w	r3, #80	; 0x50
 800818c:	f383 8811 	msr	BASEPRI, r3
 8008190:	f3bf 8f6f 	isb	sy
 8008194:	f3bf 8f4f 	dsb	sy
 8008198:	e7fe      	b.n	8008198 <xTaskRemoveFromEventList+0x74>
 800819a:	bf00      	nop
 800819c:	20003814 	.word	0x20003814
 80081a0:	20003854 	.word	0x20003854
 80081a4:	200033a0 	.word	0x200033a0
 80081a8:	20003898 	.word	0x20003898
 80081ac:	2000381c 	.word	0x2000381c
 80081b0:	200033ac 	.word	0x200033ac

080081b4 <vTaskInternalSetTimeOutState>:
 80081b4:	4a03      	ldr	r2, [pc, #12]	; (80081c4 <vTaskInternalSetTimeOutState+0x10>)
 80081b6:	4b04      	ldr	r3, [pc, #16]	; (80081c8 <vTaskInternalSetTimeOutState+0x14>)
 80081b8:	6812      	ldr	r2, [r2, #0]
 80081ba:	681b      	ldr	r3, [r3, #0]
 80081bc:	e9c0 2300 	strd	r2, r3, [r0]
 80081c0:	4770      	bx	lr
 80081c2:	bf00      	nop
 80081c4:	2000384c 	.word	0x2000384c
 80081c8:	20003894 	.word	0x20003894

080081cc <xTaskCheckForTimeOut>:
 80081cc:	b328      	cbz	r0, 800821a <xTaskCheckForTimeOut+0x4e>
 80081ce:	b5f0      	push	{r4, r5, r6, r7, lr}
 80081d0:	460d      	mov	r5, r1
 80081d2:	b083      	sub	sp, #12
 80081d4:	b1c1      	cbz	r1, 8008208 <xTaskCheckForTimeOut+0x3c>
 80081d6:	4604      	mov	r4, r0
 80081d8:	f000 faf4 	bl	80087c4 <vPortEnterCritical>
 80081dc:	682b      	ldr	r3, [r5, #0]
 80081de:	4a1d      	ldr	r2, [pc, #116]	; (8008254 <xTaskCheckForTimeOut+0x88>)
 80081e0:	1c58      	adds	r0, r3, #1
 80081e2:	6811      	ldr	r1, [r2, #0]
 80081e4:	d030      	beq.n	8008248 <xTaskCheckForTimeOut+0x7c>
 80081e6:	f8df c070 	ldr.w	ip, [pc, #112]	; 8008258 <xTaskCheckForTimeOut+0x8c>
 80081ea:	e9d4 6000 	ldrd	r6, r0, [r4]
 80081ee:	f8dc 7000 	ldr.w	r7, [ip]
 80081f2:	42be      	cmp	r6, r7
 80081f4:	d01a      	beq.n	800822c <xTaskCheckForTimeOut+0x60>
 80081f6:	4288      	cmp	r0, r1
 80081f8:	d818      	bhi.n	800822c <xTaskCheckForTimeOut+0x60>
 80081fa:	2001      	movs	r0, #1
 80081fc:	9001      	str	r0, [sp, #4]
 80081fe:	f000 fb03 	bl	8008808 <vPortExitCritical>
 8008202:	9801      	ldr	r0, [sp, #4]
 8008204:	b003      	add	sp, #12
 8008206:	bdf0      	pop	{r4, r5, r6, r7, pc}
 8008208:	f04f 0350 	mov.w	r3, #80	; 0x50
 800820c:	f383 8811 	msr	BASEPRI, r3
 8008210:	f3bf 8f6f 	isb	sy
 8008214:	f3bf 8f4f 	dsb	sy
 8008218:	e7fe      	b.n	8008218 <xTaskCheckForTimeOut+0x4c>
 800821a:	f04f 0350 	mov.w	r3, #80	; 0x50
 800821e:	f383 8811 	msr	BASEPRI, r3
 8008222:	f3bf 8f6f 	isb	sy
 8008226:	f3bf 8f4f 	dsb	sy
 800822a:	e7fe      	b.n	800822a <xTaskCheckForTimeOut+0x5e>
 800822c:	eba1 0e00 	sub.w	lr, r1, r0
 8008230:	4573      	cmp	r3, lr
 8008232:	d90b      	bls.n	800824c <xTaskCheckForTimeOut+0x80>
 8008234:	1a5b      	subs	r3, r3, r1
 8008236:	f8dc 1000 	ldr.w	r1, [ip]
 800823a:	6812      	ldr	r2, [r2, #0]
 800823c:	4403      	add	r3, r0
 800823e:	602b      	str	r3, [r5, #0]
 8008240:	2000      	movs	r0, #0
 8008242:	e9c4 1200 	strd	r1, r2, [r4]
 8008246:	e7d9      	b.n	80081fc <xTaskCheckForTimeOut+0x30>
 8008248:	2000      	movs	r0, #0
 800824a:	e7d7      	b.n	80081fc <xTaskCheckForTimeOut+0x30>
 800824c:	2300      	movs	r3, #0
 800824e:	602b      	str	r3, [r5, #0]
 8008250:	2001      	movs	r0, #1
 8008252:	e7d3      	b.n	80081fc <xTaskCheckForTimeOut+0x30>
 8008254:	20003894 	.word	0x20003894
 8008258:	2000384c 	.word	0x2000384c

0800825c <vTaskMissedYield>:
 800825c:	4b01      	ldr	r3, [pc, #4]	; (8008264 <vTaskMissedYield+0x8>)
 800825e:	2201      	movs	r2, #1
 8008260:	601a      	str	r2, [r3, #0]
 8008262:	4770      	bx	lr
 8008264:	20003898 	.word	0x20003898

08008268 <xTaskGetSchedulerState>:
 8008268:	4b05      	ldr	r3, [pc, #20]	; (8008280 <xTaskGetSchedulerState+0x18>)
 800826a:	681b      	ldr	r3, [r3, #0]
 800826c:	b133      	cbz	r3, 800827c <xTaskGetSchedulerState+0x14>
 800826e:	4b05      	ldr	r3, [pc, #20]	; (8008284 <xTaskGetSchedulerState+0x1c>)
 8008270:	681b      	ldr	r3, [r3, #0]
 8008272:	2b00      	cmp	r3, #0
 8008274:	bf0c      	ite	eq
 8008276:	2002      	moveq	r0, #2
 8008278:	2000      	movne	r0, #0
 800827a:	4770      	bx	lr
 800827c:	2001      	movs	r0, #1
 800827e:	4770      	bx	lr
 8008280:	20003868 	.word	0x20003868
 8008284:	20003814 	.word	0x20003814

08008288 <xTaskPriorityDisinherit>:
 8008288:	b318      	cbz	r0, 80082d2 <xTaskPriorityDisinherit+0x4a>
 800828a:	b510      	push	{r4, lr}
 800828c:	4b1e      	ldr	r3, [pc, #120]	; (8008308 <xTaskPriorityDisinherit+0x80>)
 800828e:	681c      	ldr	r4, [r3, #0]
 8008290:	4284      	cmp	r4, r0
 8008292:	b082      	sub	sp, #8
 8008294:	d008      	beq.n	80082a8 <xTaskPriorityDisinherit+0x20>
 8008296:	f04f 0350 	mov.w	r3, #80	; 0x50
 800829a:	f383 8811 	msr	BASEPRI, r3
 800829e:	f3bf 8f6f 	isb	sy
 80082a2:	f3bf 8f4f 	dsb	sy
 80082a6:	e7fe      	b.n	80082a6 <xTaskPriorityDisinherit+0x1e>
 80082a8:	6d23      	ldr	r3, [r4, #80]	; 0x50
 80082aa:	b14b      	cbz	r3, 80082c0 <xTaskPriorityDisinherit+0x38>
 80082ac:	6ae1      	ldr	r1, [r4, #44]	; 0x2c
 80082ae:	6ce2      	ldr	r2, [r4, #76]	; 0x4c
 80082b0:	3b01      	subs	r3, #1
 80082b2:	4291      	cmp	r1, r2
 80082b4:	6523      	str	r3, [r4, #80]	; 0x50
 80082b6:	d000      	beq.n	80082ba <xTaskPriorityDisinherit+0x32>
 80082b8:	b16b      	cbz	r3, 80082d6 <xTaskPriorityDisinherit+0x4e>
 80082ba:	2000      	movs	r0, #0
 80082bc:	b002      	add	sp, #8
 80082be:	bd10      	pop	{r4, pc}
 80082c0:	f04f 0350 	mov.w	r3, #80	; 0x50
 80082c4:	f383 8811 	msr	BASEPRI, r3
 80082c8:	f3bf 8f6f 	isb	sy
 80082cc:	f3bf 8f4f 	dsb	sy
 80082d0:	e7fe      	b.n	80082d0 <xTaskPriorityDisinherit+0x48>
 80082d2:	2000      	movs	r0, #0
 80082d4:	4770      	bx	lr
 80082d6:	1d21      	adds	r1, r4, #4
 80082d8:	4608      	mov	r0, r1
 80082da:	9101      	str	r1, [sp, #4]
 80082dc:	f7fe fdd8 	bl	8006e90 <uxListRemove>
 80082e0:	6ce3      	ldr	r3, [r4, #76]	; 0x4c
 80082e2:	4a0a      	ldr	r2, [pc, #40]	; (800830c <xTaskPriorityDisinherit+0x84>)
 80082e4:	62e3      	str	r3, [r4, #44]	; 0x2c
 80082e6:	f1c3 0038 	rsb	r0, r3, #56	; 0x38
 80082ea:	61a0      	str	r0, [r4, #24]
 80082ec:	6810      	ldr	r0, [r2, #0]
 80082ee:	9901      	ldr	r1, [sp, #4]
 80082f0:	4283      	cmp	r3, r0
 80082f2:	4807      	ldr	r0, [pc, #28]	; (8008310 <xTaskPriorityDisinherit+0x88>)
 80082f4:	bf88      	it	hi
 80082f6:	6013      	strhi	r3, [r2, #0]
 80082f8:	eb03 0383 	add.w	r3, r3, r3, lsl #2
 80082fc:	eb00 0083 	add.w	r0, r0, r3, lsl #2
 8008300:	f7fe fd9e 	bl	8006e40 <vListInsertEnd>
 8008304:	2001      	movs	r0, #1
 8008306:	e7d9      	b.n	80082bc <xTaskPriorityDisinherit+0x34>
 8008308:	200033a0 	.word	0x200033a0
 800830c:	2000381c 	.word	0x2000381c
 8008310:	200033ac 	.word	0x200033ac

08008314 <prvSwitchTimerLists>:
 8008314:	e92d 43f0 	stmdb	sp!, {r4, r5, r6, r7, r8, r9, lr}
 8008318:	4e22      	ldr	r6, [pc, #136]	; (80083a4 <prvSwitchTimerLists+0x90>)
 800831a:	f8df 9090 	ldr.w	r9, [pc, #144]	; 80083ac <prvSwitchTimerLists+0x98>
 800831e:	b085      	sub	sp, #20
 8008320:	f04f 0800 	mov.w	r8, #0
 8008324:	e00d      	b.n	8008342 <prvSwitchTimerLists+0x2e>
 8008326:	68db      	ldr	r3, [r3, #12]
 8008328:	68dc      	ldr	r4, [r3, #12]
 800832a:	681f      	ldr	r7, [r3, #0]
 800832c:	1d25      	adds	r5, r4, #4
 800832e:	4628      	mov	r0, r5
 8008330:	f7fe fdae 	bl	8006e90 <uxListRemove>
 8008334:	6a23      	ldr	r3, [r4, #32]
 8008336:	4620      	mov	r0, r4
 8008338:	4798      	blx	r3
 800833a:	f894 3028 	ldrb.w	r3, [r4, #40]	; 0x28
 800833e:	075b      	lsls	r3, r3, #29
 8008340:	d40a      	bmi.n	8008358 <prvSwitchTimerLists+0x44>
 8008342:	6833      	ldr	r3, [r6, #0]
 8008344:	681a      	ldr	r2, [r3, #0]
 8008346:	2a00      	cmp	r2, #0
 8008348:	d1ed      	bne.n	8008326 <prvSwitchTimerLists+0x12>
 800834a:	4a17      	ldr	r2, [pc, #92]	; (80083a8 <prvSwitchTimerLists+0x94>)
 800834c:	6811      	ldr	r1, [r2, #0]
 800834e:	6031      	str	r1, [r6, #0]
 8008350:	6013      	str	r3, [r2, #0]
 8008352:	b005      	add	sp, #20
 8008354:	e8bd 83f0 	ldmia.w	sp!, {r4, r5, r6, r7, r8, r9, pc}
 8008358:	69a3      	ldr	r3, [r4, #24]
 800835a:	443b      	add	r3, r7
 800835c:	429f      	cmp	r7, r3
 800835e:	4629      	mov	r1, r5
 8008360:	d205      	bcs.n	800836e <prvSwitchTimerLists+0x5a>
 8008362:	6830      	ldr	r0, [r6, #0]
 8008364:	6063      	str	r3, [r4, #4]
 8008366:	6124      	str	r4, [r4, #16]
 8008368:	f7fe fd7a 	bl	8006e60 <vListInsert>
 800836c:	e7e9      	b.n	8008342 <prvSwitchTimerLists+0x2e>
 800836e:	f8d9 3000 	ldr.w	r3, [r9]
 8008372:	b16b      	cbz	r3, 8008390 <prvSwitchTimerLists+0x7c>
 8008374:	e9cd 8700 	strd	r8, r7, [sp]
 8008378:	9402      	str	r4, [sp, #8]
 800837a:	f7ff ff75 	bl	8008268 <xTaskGetSchedulerState>
 800837e:	2300      	movs	r3, #0
 8008380:	f8d9 0000 	ldr.w	r0, [r9]
 8008384:	461a      	mov	r2, r3
 8008386:	4669      	mov	r1, sp
 8008388:	f7fe fe46 	bl	8007018 <xQueueGenericSend>
 800838c:	2800      	cmp	r0, #0
 800838e:	d1d8      	bne.n	8008342 <prvSwitchTimerLists+0x2e>
 8008390:	f04f 0350 	mov.w	r3, #80	; 0x50
 8008394:	f383 8811 	msr	BASEPRI, r3
 8008398:	f3bf 8f6f 	isb	sy
 800839c:	f3bf 8f4f 	dsb	sy
 80083a0:	e7fe      	b.n	80083a0 <prvSwitchTimerLists+0x8c>
 80083a2:	bf00      	nop
 80083a4:	2000389c 	.word	0x2000389c
 80083a8:	200038a0 	.word	0x200038a0
 80083ac:	200039c0 	.word	0x200039c0

080083b0 <prvTimerTask>:
 80083b0:	e92d 4ff0 	stmdb	sp!, {r4, r5, r6, r7, r8, r9, sl, fp, lr}
 80083b4:	4e9b      	ldr	r6, [pc, #620]	; (8008624 <prvTimerTask+0x274>)
 80083b6:	4d9c      	ldr	r5, [pc, #624]	; (8008628 <prvTimerTask+0x278>)
 80083b8:	4c9c      	ldr	r4, [pc, #624]	; (800862c <prvTimerTask+0x27c>)
 80083ba:	b08b      	sub	sp, #44	; 0x2c
 80083bc:	f04f 29e0 	mov.w	r9, #3758153728	; 0xe000e000
 80083c0:	f04f 5880 	mov.w	r8, #268435456	; 0x10000000
 80083c4:	6833      	ldr	r3, [r6, #0]
 80083c6:	681f      	ldr	r7, [r3, #0]
 80083c8:	2f00      	cmp	r7, #0
 80083ca:	f000 80a8 	beq.w	800851e <prvTimerTask+0x16e>
 80083ce:	68db      	ldr	r3, [r3, #12]
 80083d0:	681f      	ldr	r7, [r3, #0]
 80083d2:	f7ff fda7 	bl	8007f24 <vTaskSuspendAll>
 80083d6:	f7ff fdbd 	bl	8007f54 <xTaskGetTickCount>
 80083da:	682a      	ldr	r2, [r5, #0]
 80083dc:	4290      	cmp	r0, r2
 80083de:	4682      	mov	sl, r0
 80083e0:	f0c0 80ae 	bcc.w	8008540 <prvTimerTask+0x190>
 80083e4:	42b8      	cmp	r0, r7
 80083e6:	6028      	str	r0, [r5, #0]
 80083e8:	f080 80b4 	bcs.w	8008554 <prvTimerTask+0x1a4>
 80083ec:	2200      	movs	r2, #0
 80083ee:	6820      	ldr	r0, [r4, #0]
 80083f0:	eba7 010a 	sub.w	r1, r7, sl
 80083f4:	f7ff f938 	bl	8007668 <vQueueWaitForMessageRestricted>
 80083f8:	f7ff fd9c 	bl	8007f34 <xTaskResumeAll>
 80083fc:	b928      	cbnz	r0, 800840a <prvTimerTask+0x5a>
 80083fe:	f8c9 8d04 	str.w	r8, [r9, #3332]	; 0xd04
 8008402:	f3bf 8f4f 	dsb	sy
 8008406:	f3bf 8f6f 	isb	sy
 800840a:	6820      	ldr	r0, [r4, #0]
 800840c:	2200      	movs	r2, #0
 800840e:	a902      	add	r1, sp, #8
 8008410:	f7fe ff80 	bl	8007314 <xQueueReceive>
 8008414:	2800      	cmp	r0, #0
 8008416:	d0d5      	beq.n	80083c4 <prvTimerTask+0x14>
 8008418:	9b02      	ldr	r3, [sp, #8]
 800841a:	2b00      	cmp	r3, #0
 800841c:	db76      	blt.n	800850c <prvTimerTask+0x15c>
 800841e:	9f04      	ldr	r7, [sp, #16]
 8008420:	697b      	ldr	r3, [r7, #20]
 8008422:	b113      	cbz	r3, 800842a <prvTimerTask+0x7a>
 8008424:	1d38      	adds	r0, r7, #4
 8008426:	f7fe fd33 	bl	8006e90 <uxListRemove>
 800842a:	f7ff fd93 	bl	8007f54 <xTaskGetTickCount>
 800842e:	682b      	ldr	r3, [r5, #0]
 8008430:	4298      	cmp	r0, r3
 8008432:	4682      	mov	sl, r0
 8008434:	f0c0 808b 	bcc.w	800854e <prvTimerTask+0x19e>
 8008438:	9b02      	ldr	r3, [sp, #8]
 800843a:	f8c5 a000 	str.w	sl, [r5]
 800843e:	2b09      	cmp	r3, #9
 8008440:	d8e3      	bhi.n	800840a <prvTimerTask+0x5a>
 8008442:	e8df f003 	tbb	[pc, r3]
 8008446:	0505      	.short	0x0505
 8008448:	5a3d5305 	.word	0x5a3d5305
 800844c:	3d530505 	.word	0x3d530505
 8008450:	f897 3028 	ldrb.w	r3, [r7, #40]	; 0x28
 8008454:	69ba      	ldr	r2, [r7, #24]
 8008456:	613f      	str	r7, [r7, #16]
 8008458:	f043 0301 	orr.w	r3, r3, #1
 800845c:	f887 3028 	strb.w	r3, [r7, #40]	; 0x28
 8008460:	9b03      	ldr	r3, [sp, #12]
 8008462:	1899      	adds	r1, r3, r2
 8008464:	bf2c      	ite	cs
 8008466:	2001      	movcs	r0, #1
 8008468:	2000      	movcc	r0, #0
 800846a:	4551      	cmp	r1, sl
 800846c:	6079      	str	r1, [r7, #4]
 800846e:	f200 808c 	bhi.w	800858a <prvTimerTask+0x1da>
 8008472:	ebaa 0303 	sub.w	r3, sl, r3
 8008476:	429a      	cmp	r2, r3
 8008478:	d832      	bhi.n	80084e0 <prvTimerTask+0x130>
 800847a:	6a3b      	ldr	r3, [r7, #32]
 800847c:	4638      	mov	r0, r7
 800847e:	4798      	blx	r3
 8008480:	f897 3028 	ldrb.w	r3, [r7, #40]	; 0x28
 8008484:	075b      	lsls	r3, r3, #29
 8008486:	d5c0      	bpl.n	800840a <prvTimerTask+0x5a>
 8008488:	6823      	ldr	r3, [r4, #0]
 800848a:	b183      	cbz	r3, 80084ae <prvTimerTask+0xfe>
 800848c:	2200      	movs	r2, #0
 800848e:	69bb      	ldr	r3, [r7, #24]
 8008490:	9206      	str	r2, [sp, #24]
 8008492:	9a03      	ldr	r2, [sp, #12]
 8008494:	9708      	str	r7, [sp, #32]
 8008496:	4413      	add	r3, r2
 8008498:	9307      	str	r3, [sp, #28]
 800849a:	f7ff fee5 	bl	8008268 <xTaskGetSchedulerState>
 800849e:	2300      	movs	r3, #0
 80084a0:	6820      	ldr	r0, [r4, #0]
 80084a2:	461a      	mov	r2, r3
 80084a4:	a906      	add	r1, sp, #24
 80084a6:	f7fe fdb7 	bl	8007018 <xQueueGenericSend>
 80084aa:	2800      	cmp	r0, #0
 80084ac:	d1ad      	bne.n	800840a <prvTimerTask+0x5a>
 80084ae:	f04f 0350 	mov.w	r3, #80	; 0x50
 80084b2:	f383 8811 	msr	BASEPRI, r3
 80084b6:	f3bf 8f6f 	isb	sy
 80084ba:	f3bf 8f4f 	dsb	sy
 80084be:	e7fe      	b.n	80084be <prvTimerTask+0x10e>
 80084c0:	f897 3028 	ldrb.w	r3, [r7, #40]	; 0x28
 80084c4:	f043 0301 	orr.w	r3, r3, #1
 80084c8:	f887 3028 	strb.w	r3, [r7, #40]	; 0x28
 80084cc:	9b03      	ldr	r3, [sp, #12]
 80084ce:	61bb      	str	r3, [r7, #24]
 80084d0:	2b00      	cmp	r3, #0
 80084d2:	f000 809d 	beq.w	8008610 <prvTimerTask+0x260>
 80084d6:	4453      	add	r3, sl
 80084d8:	4553      	cmp	r3, sl
 80084da:	607b      	str	r3, [r7, #4]
 80084dc:	613f      	str	r7, [r7, #16]
 80084de:	d85e      	bhi.n	800859e <prvTimerTask+0x1ee>
 80084e0:	4b53      	ldr	r3, [pc, #332]	; (8008630 <prvTimerTask+0x280>)
 80084e2:	1d39      	adds	r1, r7, #4
 80084e4:	6818      	ldr	r0, [r3, #0]
 80084e6:	f7fe fcbb 	bl	8006e60 <vListInsert>
 80084ea:	e78e      	b.n	800840a <prvTimerTask+0x5a>
 80084ec:	f897 3028 	ldrb.w	r3, [r7, #40]	; 0x28
 80084f0:	f023 0301 	bic.w	r3, r3, #1
 80084f4:	f887 3028 	strb.w	r3, [r7, #40]	; 0x28
 80084f8:	e787      	b.n	800840a <prvTimerTask+0x5a>
 80084fa:	f897 3028 	ldrb.w	r3, [r7, #40]	; 0x28
 80084fe:	079a      	lsls	r2, r3, #30
 8008500:	d552      	bpl.n	80085a8 <prvTimerTask+0x1f8>
 8008502:	f023 0301 	bic.w	r3, r3, #1
 8008506:	f887 3028 	strb.w	r3, [r7, #40]	; 0x28
 800850a:	e77e      	b.n	800840a <prvTimerTask+0x5a>
 800850c:	9b03      	ldr	r3, [sp, #12]
 800850e:	e9dd 0104 	ldrd	r0, r1, [sp, #16]
 8008512:	4798      	blx	r3
 8008514:	9b02      	ldr	r3, [sp, #8]
 8008516:	2b00      	cmp	r3, #0
 8008518:	f6ff af77 	blt.w	800840a <prvTimerTask+0x5a>
 800851c:	e77f      	b.n	800841e <prvTimerTask+0x6e>
 800851e:	f7ff fd01 	bl	8007f24 <vTaskSuspendAll>
 8008522:	f7ff fd17 	bl	8007f54 <xTaskGetTickCount>
 8008526:	682a      	ldr	r2, [r5, #0]
 8008528:	4282      	cmp	r2, r0
 800852a:	4682      	mov	sl, r0
 800852c:	d808      	bhi.n	8008540 <prvTimerTask+0x190>
 800852e:	4b40      	ldr	r3, [pc, #256]	; (8008630 <prvTimerTask+0x280>)
 8008530:	f8c5 a000 	str.w	sl, [r5]
 8008534:	681a      	ldr	r2, [r3, #0]
 8008536:	6812      	ldr	r2, [r2, #0]
 8008538:	fab2 f282 	clz	r2, r2
 800853c:	0952      	lsrs	r2, r2, #5
 800853e:	e756      	b.n	80083ee <prvTimerTask+0x3e>
 8008540:	f7ff fee8 	bl	8008314 <prvSwitchTimerLists>
 8008544:	f8c5 a000 	str.w	sl, [r5]
 8008548:	f7ff fcf4 	bl	8007f34 <xTaskResumeAll>
 800854c:	e75d      	b.n	800840a <prvTimerTask+0x5a>
 800854e:	f7ff fee1 	bl	8008314 <prvSwitchTimerLists>
 8008552:	e771      	b.n	8008438 <prvTimerTask+0x88>
 8008554:	f7ff fcee 	bl	8007f34 <xTaskResumeAll>
 8008558:	6832      	ldr	r2, [r6, #0]
 800855a:	68d2      	ldr	r2, [r2, #12]
 800855c:	f8d2 b00c 	ldr.w	fp, [r2, #12]
 8008560:	f10b 0104 	add.w	r1, fp, #4
 8008564:	4608      	mov	r0, r1
 8008566:	9101      	str	r1, [sp, #4]
 8008568:	f7fe fc92 	bl	8006e90 <uxListRemove>
 800856c:	f89b 0028 	ldrb.w	r0, [fp, #40]	; 0x28
 8008570:	9901      	ldr	r1, [sp, #4]
 8008572:	f010 0f04 	tst.w	r0, #4
 8008576:	d11b      	bne.n	80085b0 <prvTimerTask+0x200>
 8008578:	f020 0001 	bic.w	r0, r0, #1
 800857c:	f88b 0028 	strb.w	r0, [fp, #40]	; 0x28
 8008580:	f8db 3020 	ldr.w	r3, [fp, #32]
 8008584:	4658      	mov	r0, fp
 8008586:	4798      	blx	r3
 8008588:	e73f      	b.n	800840a <prvTimerTask+0x5a>
 800858a:	4553      	cmp	r3, sl
 800858c:	d902      	bls.n	8008594 <prvTimerTask+0x1e4>
 800858e:	2800      	cmp	r0, #0
 8008590:	f43f af73 	beq.w	800847a <prvTimerTask+0xca>
 8008594:	6830      	ldr	r0, [r6, #0]
 8008596:	1d39      	adds	r1, r7, #4
 8008598:	f7fe fc62 	bl	8006e60 <vListInsert>
 800859c:	e735      	b.n	800840a <prvTimerTask+0x5a>
 800859e:	6830      	ldr	r0, [r6, #0]
 80085a0:	1d39      	adds	r1, r7, #4
 80085a2:	f7fe fc5d 	bl	8006e60 <vListInsert>
 80085a6:	e730      	b.n	800840a <prvTimerTask+0x5a>
 80085a8:	4638      	mov	r0, r7
 80085aa:	f000 faf5 	bl	8008b98 <vPortFree>
 80085ae:	e72c      	b.n	800840a <prvTimerTask+0x5a>
 80085b0:	f8db 2018 	ldr.w	r2, [fp, #24]
 80085b4:	f8cb b010 	str.w	fp, [fp, #16]
 80085b8:	18b8      	adds	r0, r7, r2
 80085ba:	4582      	cmp	sl, r0
 80085bc:	f8cb 0004 	str.w	r0, [fp, #4]
 80085c0:	d203      	bcs.n	80085ca <prvTimerTask+0x21a>
 80085c2:	6830      	ldr	r0, [r6, #0]
 80085c4:	f7fe fc4c 	bl	8006e60 <vListInsert>
 80085c8:	e7da      	b.n	8008580 <prvTimerTask+0x1d0>
 80085ca:	ebaa 0307 	sub.w	r3, sl, r7
 80085ce:	429a      	cmp	r2, r3
 80085d0:	d819      	bhi.n	8008606 <prvTimerTask+0x256>
 80085d2:	6823      	ldr	r3, [r4, #0]
 80085d4:	b173      	cbz	r3, 80085f4 <prvTimerTask+0x244>
 80085d6:	2300      	movs	r3, #0
 80085d8:	9306      	str	r3, [sp, #24]
 80085da:	9707      	str	r7, [sp, #28]
 80085dc:	f8cd b020 	str.w	fp, [sp, #32]
 80085e0:	f7ff fe42 	bl	8008268 <xTaskGetSchedulerState>
 80085e4:	2300      	movs	r3, #0
 80085e6:	6820      	ldr	r0, [r4, #0]
 80085e8:	461a      	mov	r2, r3
 80085ea:	a906      	add	r1, sp, #24
 80085ec:	f7fe fd14 	bl	8007018 <xQueueGenericSend>
 80085f0:	2800      	cmp	r0, #0
 80085f2:	d1c5      	bne.n	8008580 <prvTimerTask+0x1d0>
 80085f4:	f04f 0350 	mov.w	r3, #80	; 0x50
 80085f8:	f383 8811 	msr	BASEPRI, r3
 80085fc:	f3bf 8f6f 	isb	sy
 8008600:	f3bf 8f4f 	dsb	sy
 8008604:	e7fe      	b.n	8008604 <prvTimerTask+0x254>
 8008606:	4b0a      	ldr	r3, [pc, #40]	; (8008630 <prvTimerTask+0x280>)
 8008608:	6818      	ldr	r0, [r3, #0]
 800860a:	f7fe fc29 	bl	8006e60 <vListInsert>
 800860e:	e7b7      	b.n	8008580 <prvTimerTask+0x1d0>
 8008610:	f04f 0350 	mov.w	r3, #80	; 0x50
 8008614:	f383 8811 	msr	BASEPRI, r3
 8008618:	f3bf 8f6f 	isb	sy
 800861c:	f3bf 8f4f 	dsb	sy
 8008620:	e7fe      	b.n	8008620 <prvTimerTask+0x270>
 8008622:	bf00      	nop
 8008624:	2000389c 	.word	0x2000389c
 8008628:	2000396c 	.word	0x2000396c
 800862c:	200039c0 	.word	0x200039c0
 8008630:	200038a0 	.word	0x200038a0

08008634 <xTimerCreateTimerTask>:
 8008634:	b5f0      	push	{r4, r5, r6, r7, lr}
 8008636:	4c23      	ldr	r4, [pc, #140]	; (80086c4 <xTimerCreateTimerTask+0x90>)
 8008638:	b089      	sub	sp, #36	; 0x24
 800863a:	f000 f8c3 	bl	80087c4 <vPortEnterCritical>
 800863e:	6825      	ldr	r5, [r4, #0]
 8008640:	b335      	cbz	r5, 8008690 <xTimerCreateTimerTask+0x5c>
 8008642:	f000 f8e1 	bl	8008808 <vPortExitCritical>
 8008646:	6823      	ldr	r3, [r4, #0]
 8008648:	b1cb      	cbz	r3, 800867e <xTimerCreateTimerTask+0x4a>
 800864a:	2400      	movs	r4, #0
 800864c:	aa07      	add	r2, sp, #28
 800864e:	a906      	add	r1, sp, #24
 8008650:	a805      	add	r0, sp, #20
 8008652:	e9cd 4405 	strd	r4, r4, [sp, #20]
 8008656:	f7fe fbd3 	bl	8006e00 <vApplicationGetTimerTaskMemory>
 800865a:	e9dd 0105 	ldrd	r0, r1, [sp, #20]
 800865e:	2302      	movs	r3, #2
 8008660:	e9cd 1001 	strd	r1, r0, [sp, #4]
 8008664:	9300      	str	r3, [sp, #0]
 8008666:	9a07      	ldr	r2, [sp, #28]
 8008668:	4917      	ldr	r1, [pc, #92]	; (80086c8 <xTimerCreateTimerTask+0x94>)
 800866a:	4818      	ldr	r0, [pc, #96]	; (80086cc <xTimerCreateTimerTask+0x98>)
 800866c:	4623      	mov	r3, r4
 800866e:	f7ff fb09 	bl	8007c84 <xTaskCreateStatic>
 8008672:	4b17      	ldr	r3, [pc, #92]	; (80086d0 <xTimerCreateTimerTask+0x9c>)
 8008674:	6018      	str	r0, [r3, #0]
 8008676:	b110      	cbz	r0, 800867e <xTimerCreateTimerTask+0x4a>
 8008678:	2001      	movs	r0, #1
 800867a:	b009      	add	sp, #36	; 0x24
 800867c:	bdf0      	pop	{r4, r5, r6, r7, pc}
 800867e:	f04f 0350 	mov.w	r3, #80	; 0x50
 8008682:	f383 8811 	msr	BASEPRI, r3
 8008686:	f3bf 8f6f 	isb	sy
 800868a:	f3bf 8f4f 	dsb	sy
 800868e:	e7fe      	b.n	800868e <xTimerCreateTimerTask+0x5a>
 8008690:	4f10      	ldr	r7, [pc, #64]	; (80086d4 <xTimerCreateTimerTask+0xa0>)
 8008692:	4e11      	ldr	r6, [pc, #68]	; (80086d8 <xTimerCreateTimerTask+0xa4>)
 8008694:	4638      	mov	r0, r7
 8008696:	f7fe fbc3 	bl	8006e20 <vListInitialise>
 800869a:	4630      	mov	r0, r6
 800869c:	f7fe fbc0 	bl	8006e20 <vListInitialise>
 80086a0:	4a0e      	ldr	r2, [pc, #56]	; (80086dc <xTimerCreateTimerTask+0xa8>)
 80086a2:	9500      	str	r5, [sp, #0]
 80086a4:	6017      	str	r7, [r2, #0]
 80086a6:	4a0e      	ldr	r2, [pc, #56]	; (80086e0 <xTimerCreateTimerTask+0xac>)
 80086a8:	4b0e      	ldr	r3, [pc, #56]	; (80086e4 <xTimerCreateTimerTask+0xb0>)
 80086aa:	6016      	str	r6, [r2, #0]
 80086ac:	2110      	movs	r1, #16
 80086ae:	4a0e      	ldr	r2, [pc, #56]	; (80086e8 <xTimerCreateTimerTask+0xb4>)
 80086b0:	200a      	movs	r0, #10
 80086b2:	f7fe fc3d 	bl	8006f30 <xQueueGenericCreateStatic>
 80086b6:	6020      	str	r0, [r4, #0]
 80086b8:	2800      	cmp	r0, #0
 80086ba:	d0c2      	beq.n	8008642 <xTimerCreateTimerTask+0xe>
 80086bc:	490b      	ldr	r1, [pc, #44]	; (80086ec <xTimerCreateTimerTask+0xb8>)
 80086be:	f7fe ffab 	bl	8007618 <vQueueAddToRegistry>
 80086c2:	e7be      	b.n	8008642 <xTimerCreateTimerTask+0xe>
 80086c4:	200039c0 	.word	0x200039c0
 80086c8:	080097f8 	.word	0x080097f8
 80086cc:	080083b1 	.word	0x080083b1
 80086d0:	200039c4 	.word	0x200039c4
 80086d4:	20003944 	.word	0x20003944
 80086d8:	20003958 	.word	0x20003958
 80086dc:	2000389c 	.word	0x2000389c
 80086e0:	200038a0 	.word	0x200038a0
 80086e4:	20003970 	.word	0x20003970
 80086e8:	200038a4 	.word	0x200038a4
 80086ec:	080097f0 	.word	0x080097f0

080086f0 <prvPortStartFirstTask>:
 80086f0:	4808      	ldr	r0, [pc, #32]	; (8008714 <prvPortStartFirstTask+0x24>)
 80086f2:	6800      	ldr	r0, [r0, #0]
 80086f4:	6800      	ldr	r0, [r0, #0]
 80086f6:	f380 8808 	msr	MSP, r0
 80086fa:	f04f 0000 	mov.w	r0, #0
 80086fe:	f380 8814 	msr	CONTROL, r0
 8008702:	b662      	cpsie	i
 8008704:	b661      	cpsie	f
 8008706:	f3bf 8f4f 	dsb	sy
 800870a:	f3bf 8f6f 	isb	sy
 800870e:	df00      	svc	0
 8008710:	bf00      	nop
 8008712:	0000      	.short	0x0000
 8008714:	e000ed08 	.word	0xe000ed08

08008718 <vPortEnableVFP>:
 8008718:	f8df 000c 	ldr.w	r0, [pc, #12]	; 8008728 <vPortEnableVFP+0x10>
 800871c:	6801      	ldr	r1, [r0, #0]
 800871e:	f441 0170 	orr.w	r1, r1, #15728640	; 0xf00000
 8008722:	6001      	str	r1, [r0, #0]
 8008724:	4770      	bx	lr
 8008726:	0000      	.short	0x0000
 8008728:	e000ed88 	.word	0xe000ed88

0800872c <prvTaskExitError>:
 800872c:	4b0e      	ldr	r3, [pc, #56]	; (8008768 <prvTaskExitError+0x3c>)
 800872e:	681b      	ldr	r3, [r3, #0]
 8008730:	b082      	sub	sp, #8
 8008732:	2200      	movs	r2, #0
 8008734:	3301      	adds	r3, #1
 8008736:	9201      	str	r2, [sp, #4]
 8008738:	d008      	beq.n	800874c <prvTaskExitError+0x20>
 800873a:	f04f 0350 	mov.w	r3, #80	; 0x50
 800873e:	f383 8811 	msr	BASEPRI, r3
 8008742:	f3bf 8f6f 	isb	sy
 8008746:	f3bf 8f4f 	dsb	sy
 800874a:	e7fe      	b.n	800874a <prvTaskExitError+0x1e>
 800874c:	f04f 0350 	mov.w	r3, #80	; 0x50
 8008750:	f383 8811 	msr	BASEPRI, r3
 8008754:	f3bf 8f6f 	isb	sy
 8008758:	f3bf 8f4f 	dsb	sy
 800875c:	9b01      	ldr	r3, [sp, #4]
 800875e:	2b00      	cmp	r3, #0
 8008760:	d0fc      	beq.n	800875c <prvTaskExitError+0x30>
 8008762:	b002      	add	sp, #8
 8008764:	4770      	bx	lr
 8008766:	bf00      	nop
 8008768:	200003f8 	.word	0x200003f8

0800876c <pxPortInitialiseStack>:
 800876c:	b410      	push	{r4}
 800876e:	f04f 7380 	mov.w	r3, #16777216	; 0x1000000
 8008772:	4c07      	ldr	r4, [pc, #28]	; (8008790 <pxPortInitialiseStack+0x24>)
 8008774:	f840 3c04 	str.w	r3, [r0, #-4]
 8008778:	f021 0101 	bic.w	r1, r1, #1
 800877c:	f06f 0302 	mvn.w	r3, #2
 8008780:	e940 4103 	strd	r4, r1, [r0, #-12]
 8008784:	e940 3209 	strd	r3, r2, [r0, #-36]	; 0x24
 8008788:	f85d 4b04 	ldr.w	r4, [sp], #4
 800878c:	3844      	subs	r0, #68	; 0x44
 800878e:	4770      	bx	lr
 8008790:	0800872d 	.word	0x0800872d
	...

080087a0 <SVC_Handler>:
 80087a0:	4b07      	ldr	r3, [pc, #28]	; (80087c0 <pxCurrentTCBConst2>)
 80087a2:	6819      	ldr	r1, [r3, #0]
 80087a4:	6808      	ldr	r0, [r1, #0]
 80087a6:	e8b0 4ff0 	ldmia.w	r0!, {r4, r5, r6, r7, r8, r9, sl, fp, lr}
 80087aa:	f380 8809 	msr	PSP, r0
 80087ae:	f3bf 8f6f 	isb	sy
 80087b2:	f04f 0000 	mov.w	r0, #0
 80087b6:	f380 8811 	msr	BASEPRI, r0
 80087ba:	4770      	bx	lr
 80087bc:	f3af 8000 	nop.w

080087c0 <pxCurrentTCBConst2>:
 80087c0:	200033a0 	.word	0x200033a0

080087c4 <vPortEnterCritical>:
 80087c4:	f04f 0350 	mov.w	r3, #80	; 0x50
 80087c8:	f383 8811 	msr	BASEPRI, r3
 80087cc:	f3bf 8f6f 	isb	sy
 80087d0:	f3bf 8f4f 	dsb	sy
 80087d4:	4a0b      	ldr	r2, [pc, #44]	; (8008804 <vPortEnterCritical+0x40>)
 80087d6:	6813      	ldr	r3, [r2, #0]
 80087d8:	3301      	adds	r3, #1
 80087da:	2b01      	cmp	r3, #1
 80087dc:	6013      	str	r3, [r2, #0]
 80087de:	d000      	beq.n	80087e2 <vPortEnterCritical+0x1e>
 80087e0:	4770      	bx	lr
 80087e2:	f04f 23e0 	mov.w	r3, #3758153728	; 0xe000e000
 80087e6:	f8d3 3d04 	ldr.w	r3, [r3, #3332]	; 0xd04
 80087ea:	b2db      	uxtb	r3, r3
 80087ec:	2b00      	cmp	r3, #0
 80087ee:	d0f7      	beq.n	80087e0 <vPortEnterCritical+0x1c>
 80087f0:	f04f 0350 	mov.w	r3, #80	; 0x50
 80087f4:	f383 8811 	msr	BASEPRI, r3
 80087f8:	f3bf 8f6f 	isb	sy
 80087fc:	f3bf 8f4f 	dsb	sy
 8008800:	e7fe      	b.n	8008800 <vPortEnterCritical+0x3c>
 8008802:	bf00      	nop
 8008804:	200003f8 	.word	0x200003f8

08008808 <vPortExitCritical>:
 8008808:	4a08      	ldr	r2, [pc, #32]	; (800882c <vPortExitCritical+0x24>)
 800880a:	6813      	ldr	r3, [r2, #0]
 800880c:	b943      	cbnz	r3, 8008820 <vPortExitCritical+0x18>
 800880e:	f04f 0350 	mov.w	r3, #80	; 0x50
 8008812:	f383 8811 	msr	BASEPRI, r3
 8008816:	f3bf 8f6f 	isb	sy
 800881a:	f3bf 8f4f 	dsb	sy
 800881e:	e7fe      	b.n	800881e <vPortExitCritical+0x16>
 8008820:	3b01      	subs	r3, #1
 8008822:	6013      	str	r3, [r2, #0]
 8008824:	b90b      	cbnz	r3, 800882a <vPortExitCritical+0x22>
 8008826:	f383 8811 	msr	BASEPRI, r3
 800882a:	4770      	bx	lr
 800882c:	200003f8 	.word	0x200003f8

08008830 <PendSV_Handler>:
 8008830:	f3ef 8009 	mrs	r0, PSP
 8008834:	f3bf 8f6f 	isb	sy
 8008838:	4b15      	ldr	r3, [pc, #84]	; (8008890 <pxCurrentTCBConst>)
 800883a:	681a      	ldr	r2, [r3, #0]
 800883c:	f01e 0f10 	tst.w	lr, #16
 8008840:	bf08      	it	eq
 8008842:	ed20 8a10 	vstmdbeq	r0!, {s16-s31}
 8008846:	e920 4ff0 	stmdb	r0!, {r4, r5, r6, r7, r8, r9, sl, fp, lr}
 800884a:	6010      	str	r0, [r2, #0]
 800884c:	e92d 0009 	stmdb	sp!, {r0, r3}
 8008850:	f04f 0050 	mov.w	r0, #80	; 0x50
 8008854:	f380 8811 	msr	BASEPRI, r0
 8008858:	f3bf 8f4f 	dsb	sy
 800885c:	f3bf 8f6f 	isb	sy
 8008860:	f7ff fb8e 	bl	8007f80 <vTaskSwitchContext>
 8008864:	f04f 0000 	mov.w	r0, #0
 8008868:	f380 8811 	msr	BASEPRI, r0
 800886c:	bc09      	pop	{r0, r3}
 800886e:	6819      	ldr	r1, [r3, #0]
 8008870:	6808      	ldr	r0, [r1, #0]
 8008872:	e8b0 4ff0 	ldmia.w	r0!, {r4, r5, r6, r7, r8, r9, sl, fp, lr}
 8008876:	f01e 0f10 	tst.w	lr, #16
 800887a:	bf08      	it	eq
 800887c:	ecb0 8a10 	vldmiaeq	r0!, {s16-s31}
 8008880:	f380 8809 	msr	PSP, r0
 8008884:	f3bf 8f6f 	isb	sy
 8008888:	4770      	bx	lr
 800888a:	bf00      	nop
 800888c:	f3af 8000 	nop.w

08008890 <pxCurrentTCBConst>:
 8008890:	200033a0 	.word	0x200033a0

08008894 <xPortSysTickHandler>:
 8008894:	b508      	push	{r3, lr}
 8008896:	f04f 0350 	mov.w	r3, #80	; 0x50
 800889a:	f383 8811 	msr	BASEPRI, r3
 800889e:	f3bf 8f6f 	isb	sy
 80088a2:	f3bf 8f4f 	dsb	sy
 80088a6:	f7ff fb5b 	bl	8007f60 <xTaskIncrementTick>
 80088aa:	b128      	cbz	r0, 80088b8 <xPortSysTickHandler+0x24>
 80088ac:	f04f 23e0 	mov.w	r3, #3758153728	; 0xe000e000
 80088b0:	f04f 5280 	mov.w	r2, #268435456	; 0x10000000
 80088b4:	f8c3 2d04 	str.w	r2, [r3, #3332]	; 0xd04
 80088b8:	2300      	movs	r3, #0
 80088ba:	f383 8811 	msr	BASEPRI, r3
 80088be:	bd08      	pop	{r3, pc}

080088c0 <vPortSetupTimerInterrupt>:
 80088c0:	f04f 22e0 	mov.w	r2, #3758153728	; 0xe000e000
 80088c4:	2300      	movs	r3, #0
 80088c6:	4906      	ldr	r1, [pc, #24]	; (80088e0 <vPortSetupTimerInterrupt+0x20>)
 80088c8:	6113      	str	r3, [r2, #16]
 80088ca:	6193      	str	r3, [r2, #24]
 80088cc:	680b      	ldr	r3, [r1, #0]
 80088ce:	4805      	ldr	r0, [pc, #20]	; (80088e4 <vPortSetupTimerInterrupt+0x24>)
 80088d0:	fba0 0303 	umull	r0, r3, r0, r3
 80088d4:	099b      	lsrs	r3, r3, #6
 80088d6:	2107      	movs	r1, #7
 80088d8:	3b01      	subs	r3, #1
 80088da:	6153      	str	r3, [r2, #20]
 80088dc:	6111      	str	r1, [r2, #16]
 80088de:	4770      	bx	lr
 80088e0:	20000108 	.word	0x20000108
 80088e4:	10624dd3 	.word	0x10624dd3

080088e8 <xPortStartScheduler>:
 80088e8:	f04f 23e0 	mov.w	r3, #3758153728	; 0xe000e000
 80088ec:	4a48      	ldr	r2, [pc, #288]	; (8008a10 <xPortStartScheduler+0x128>)
 80088ee:	f8d3 1d00 	ldr.w	r1, [r3, #3328]	; 0xd00
 80088f2:	4291      	cmp	r1, r2
 80088f4:	d041      	beq.n	800897a <xPortStartScheduler+0x92>
 80088f6:	f8d3 2d00 	ldr.w	r2, [r3, #3328]	; 0xd00
 80088fa:	4b46      	ldr	r3, [pc, #280]	; (8008a14 <xPortStartScheduler+0x12c>)
 80088fc:	429a      	cmp	r2, r3
 80088fe:	d033      	beq.n	8008968 <xPortStartScheduler+0x80>
 8008900:	b570      	push	{r4, r5, r6, lr}
 8008902:	4b45      	ldr	r3, [pc, #276]	; (8008a18 <xPortStartScheduler+0x130>)
 8008904:	4c45      	ldr	r4, [pc, #276]	; (8008a1c <xPortStartScheduler+0x134>)
 8008906:	781a      	ldrb	r2, [r3, #0]
 8008908:	4845      	ldr	r0, [pc, #276]	; (8008a20 <xPortStartScheduler+0x138>)
 800890a:	b084      	sub	sp, #16
 800890c:	21ff      	movs	r1, #255	; 0xff
 800890e:	b2d2      	uxtb	r2, r2
 8008910:	9202      	str	r2, [sp, #8]
 8008912:	7019      	strb	r1, [r3, #0]
 8008914:	781b      	ldrb	r3, [r3, #0]
 8008916:	b2db      	uxtb	r3, r3
 8008918:	f88d 3007 	strb.w	r3, [sp, #7]
 800891c:	f89d 3007 	ldrb.w	r3, [sp, #7]
 8008920:	f89d 2007 	ldrb.w	r2, [sp, #7]
 8008924:	f003 0350 	and.w	r3, r3, #80	; 0x50
 8008928:	2107      	movs	r1, #7
 800892a:	0612      	lsls	r2, r2, #24
 800892c:	7023      	strb	r3, [r4, #0]
 800892e:	6001      	str	r1, [r0, #0]
 8008930:	bf48      	it	mi
 8008932:	2206      	movmi	r2, #6
 8008934:	d50f      	bpl.n	8008956 <xPortStartScheduler+0x6e>
 8008936:	f89d 3007 	ldrb.w	r3, [sp, #7]
 800893a:	005b      	lsls	r3, r3, #1
 800893c:	b2db      	uxtb	r3, r3
 800893e:	f88d 3007 	strb.w	r3, [sp, #7]
 8008942:	f89d 3007 	ldrb.w	r3, [sp, #7]
 8008946:	061b      	lsls	r3, r3, #24
 8008948:	4611      	mov	r1, r2
 800894a:	f102 32ff 	add.w	r2, r2, #4294967295
 800894e:	d4f2      	bmi.n	8008936 <xPortStartScheduler+0x4e>
 8008950:	2903      	cmp	r1, #3
 8008952:	d01b      	beq.n	800898c <xPortStartScheduler+0xa4>
 8008954:	6001      	str	r1, [r0, #0]
 8008956:	f04f 0350 	mov.w	r3, #80	; 0x50
 800895a:	f383 8811 	msr	BASEPRI, r3
 800895e:	f3bf 8f6f 	isb	sy
 8008962:	f3bf 8f4f 	dsb	sy
 8008966:	e7fe      	b.n	8008966 <xPortStartScheduler+0x7e>
 8008968:	f04f 0350 	mov.w	r3, #80	; 0x50
 800896c:	f383 8811 	msr	BASEPRI, r3
 8008970:	f3bf 8f6f 	isb	sy
 8008974:	f3bf 8f4f 	dsb	sy
 8008978:	e7fe      	b.n	8008978 <xPortStartScheduler+0x90>
 800897a:	f04f 0350 	mov.w	r3, #80	; 0x50
 800897e:	f383 8811 	msr	BASEPRI, r3
 8008982:	f3bf 8f6f 	isb	sy
 8008986:	f3bf 8f4f 	dsb	sy
 800898a:	e7fe      	b.n	800898a <xPortStartScheduler+0xa2>
 800898c:	9b02      	ldr	r3, [sp, #8]
 800898e:	4a22      	ldr	r2, [pc, #136]	; (8008a18 <xPortStartScheduler+0x130>)
 8008990:	4d24      	ldr	r5, [pc, #144]	; (8008a24 <xPortStartScheduler+0x13c>)
 8008992:	f04f 24e0 	mov.w	r4, #3758153728	; 0xe000e000
 8008996:	f44f 7140 	mov.w	r1, #768	; 0x300
 800899a:	b2db      	uxtb	r3, r3
 800899c:	6001      	str	r1, [r0, #0]
 800899e:	7013      	strb	r3, [r2, #0]
 80089a0:	f8d4 3d20 	ldr.w	r3, [r4, #3360]	; 0xd20
 80089a4:	f443 0370 	orr.w	r3, r3, #15728640	; 0xf00000
 80089a8:	f8c4 3d20 	str.w	r3, [r4, #3360]	; 0xd20
 80089ac:	f8d4 3d20 	ldr.w	r3, [r4, #3360]	; 0xd20
 80089b0:	f043 4370 	orr.w	r3, r3, #4026531840	; 0xf0000000
 80089b4:	f8c4 3d20 	str.w	r3, [r4, #3360]	; 0xd20
 80089b8:	2600      	movs	r6, #0
 80089ba:	f7ff ff81 	bl	80088c0 <vPortSetupTimerInterrupt>
 80089be:	602e      	str	r6, [r5, #0]
 80089c0:	f7ff feaa 	bl	8008718 <vPortEnableVFP>
 80089c4:	f8d4 3f34 	ldr.w	r3, [r4, #3892]	; 0xf34
 80089c8:	f043 4340 	orr.w	r3, r3, #3221225472	; 0xc0000000
 80089cc:	f8c4 3f34 	str.w	r3, [r4, #3892]	; 0xf34
 80089d0:	f7ff fe8e 	bl	80086f0 <prvPortStartFirstTask>
 80089d4:	f7ff fad4 	bl	8007f80 <vTaskSwitchContext>
 80089d8:	682b      	ldr	r3, [r5, #0]
 80089da:	9603      	str	r6, [sp, #12]
 80089dc:	3301      	adds	r3, #1
 80089de:	d008      	beq.n	80089f2 <xPortStartScheduler+0x10a>
 80089e0:	f04f 0350 	mov.w	r3, #80	; 0x50
 80089e4:	f383 8811 	msr	BASEPRI, r3
 80089e8:	f3bf 8f6f 	isb	sy
 80089ec:	f3bf 8f4f 	dsb	sy
 80089f0:	e7fe      	b.n	80089f0 <xPortStartScheduler+0x108>
 80089f2:	f04f 0350 	mov.w	r3, #80	; 0x50
 80089f6:	f383 8811 	msr	BASEPRI, r3
 80089fa:	f3bf 8f6f 	isb	sy
 80089fe:	f3bf 8f4f 	dsb	sy
 8008a02:	9b03      	ldr	r3, [sp, #12]
 8008a04:	2b00      	cmp	r3, #0
 8008a06:	d0fc      	beq.n	8008a02 <xPortStartScheduler+0x11a>
 8008a08:	2000      	movs	r0, #0
 8008a0a:	b004      	add	sp, #16
 8008a0c:	bd70      	pop	{r4, r5, r6, pc}
 8008a0e:	bf00      	nop
 8008a10:	410fc271 	.word	0x410fc271
 8008a14:	410fc270 	.word	0x410fc270
 8008a18:	e000e400 	.word	0xe000e400
 8008a1c:	200039c8 	.word	0x200039c8
 8008a20:	200039cc 	.word	0x200039cc
 8008a24:	200003f8 	.word	0x200003f8

08008a28 <pvPortMalloc>:
 8008a28:	e92d 41f0 	stmdb	sp!, {r4, r5, r6, r7, r8, lr}
 8008a2c:	4606      	mov	r6, r0
 8008a2e:	f7ff fa79 	bl	8007f24 <vTaskSuspendAll>
 8008a32:	4b52      	ldr	r3, [pc, #328]	; (8008b7c <pvPortMalloc+0x154>)
 8008a34:	681d      	ldr	r5, [r3, #0]
 8008a36:	2d00      	cmp	r5, #0
 8008a38:	d06e      	beq.n	8008b18 <pvPortMalloc+0xf0>
 8008a3a:	4b51      	ldr	r3, [pc, #324]	; (8008b80 <pvPortMalloc+0x158>)
 8008a3c:	681f      	ldr	r7, [r3, #0]
 8008a3e:	423e      	tst	r6, r7
 8008a40:	d12e      	bne.n	8008aa0 <pvPortMalloc+0x78>
 8008a42:	b36e      	cbz	r6, 8008aa0 <pvPortMalloc+0x78>
 8008a44:	f106 0408 	add.w	r4, r6, #8
 8008a48:	0776      	lsls	r6, r6, #29
 8008a4a:	bf1c      	itt	ne
 8008a4c:	f024 0407 	bicne.w	r4, r4, #7
 8008a50:	3408      	addne	r4, #8
 8008a52:	b32c      	cbz	r4, 8008aa0 <pvPortMalloc+0x78>
 8008a54:	f8df c13c 	ldr.w	ip, [pc, #316]	; 8008b94 <pvPortMalloc+0x16c>
 8008a58:	f8dc 6000 	ldr.w	r6, [ip]
 8008a5c:	42a6      	cmp	r6, r4
 8008a5e:	d31f      	bcc.n	8008aa0 <pvPortMalloc+0x78>
 8008a60:	4848      	ldr	r0, [pc, #288]	; (8008b84 <pvPortMalloc+0x15c>)
 8008a62:	6803      	ldr	r3, [r0, #0]
 8008a64:	e003      	b.n	8008a6e <pvPortMalloc+0x46>
 8008a66:	681a      	ldr	r2, [r3, #0]
 8008a68:	b122      	cbz	r2, 8008a74 <pvPortMalloc+0x4c>
 8008a6a:	4618      	mov	r0, r3
 8008a6c:	4613      	mov	r3, r2
 8008a6e:	6859      	ldr	r1, [r3, #4]
 8008a70:	42a1      	cmp	r1, r4
 8008a72:	d3f8      	bcc.n	8008a66 <pvPortMalloc+0x3e>
 8008a74:	42ab      	cmp	r3, r5
 8008a76:	d013      	beq.n	8008aa0 <pvPortMalloc+0x78>
 8008a78:	4698      	mov	r8, r3
 8008a7a:	1b0a      	subs	r2, r1, r4
 8008a7c:	f858 eb08 	ldr.w	lr, [r8], #8
 8008a80:	f8c0 e000 	str.w	lr, [r0]
 8008a84:	2a10      	cmp	r2, #16
 8008a86:	d929      	bls.n	8008adc <pvPortMalloc+0xb4>
 8008a88:	1919      	adds	r1, r3, r4
 8008a8a:	0748      	lsls	r0, r1, #29
 8008a8c:	d00f      	beq.n	8008aae <pvPortMalloc+0x86>
 8008a8e:	f04f 0350 	mov.w	r3, #80	; 0x50
 8008a92:	f383 8811 	msr	BASEPRI, r3
 8008a96:	f3bf 8f6f 	isb	sy
 8008a9a:	f3bf 8f4f 	dsb	sy
 8008a9e:	e7fe      	b.n	8008a9e <pvPortMalloc+0x76>
 8008aa0:	f7ff fa48 	bl	8007f34 <xTaskResumeAll>
 8008aa4:	f04f 0800 	mov.w	r8, #0
 8008aa8:	4640      	mov	r0, r8
 8008aaa:	e8bd 81f0 	ldmia.w	sp!, {r4, r5, r6, r7, r8, pc}
 8008aae:	604a      	str	r2, [r1, #4]
 8008ab0:	4a34      	ldr	r2, [pc, #208]	; (8008b84 <pvPortMalloc+0x15c>)
 8008ab2:	605c      	str	r4, [r3, #4]
 8008ab4:	4614      	mov	r4, r2
 8008ab6:	6812      	ldr	r2, [r2, #0]
 8008ab8:	4291      	cmp	r1, r2
 8008aba:	d8fb      	bhi.n	8008ab4 <pvPortMalloc+0x8c>
 8008abc:	6860      	ldr	r0, [r4, #4]
 8008abe:	eb04 0e00 	add.w	lr, r4, r0
 8008ac2:	4571      	cmp	r1, lr
 8008ac4:	d04a      	beq.n	8008b5c <pvPortMalloc+0x134>
 8008ac6:	f8d1 e004 	ldr.w	lr, [r1, #4]
 8008aca:	eb01 000e 	add.w	r0, r1, lr
 8008ace:	4282      	cmp	r2, r0
 8008ad0:	d04b      	beq.n	8008b6a <pvPortMalloc+0x142>
 8008ad2:	600a      	str	r2, [r1, #0]
 8008ad4:	428c      	cmp	r4, r1
 8008ad6:	bf18      	it	ne
 8008ad8:	6021      	strne	r1, [r4, #0]
 8008ada:	6859      	ldr	r1, [r3, #4]
 8008adc:	4a2a      	ldr	r2, [pc, #168]	; (8008b88 <pvPortMalloc+0x160>)
 8008ade:	6810      	ldr	r0, [r2, #0]
 8008ae0:	1a76      	subs	r6, r6, r1
 8008ae2:	4286      	cmp	r6, r0
 8008ae4:	bf38      	it	cc
 8008ae6:	6016      	strcc	r6, [r2, #0]
 8008ae8:	4a28      	ldr	r2, [pc, #160]	; (8008b8c <pvPortMalloc+0x164>)
 8008aea:	f8cc 6000 	str.w	r6, [ip]
 8008aee:	4339      	orrs	r1, r7
 8008af0:	2000      	movs	r0, #0
 8008af2:	e9c3 0100 	strd	r0, r1, [r3]
 8008af6:	6813      	ldr	r3, [r2, #0]
 8008af8:	3301      	adds	r3, #1
 8008afa:	6013      	str	r3, [r2, #0]
 8008afc:	f7ff fa1a 	bl	8007f34 <xTaskResumeAll>
 8008b00:	f018 0f07 	tst.w	r8, #7
 8008b04:	d0d0      	beq.n	8008aa8 <pvPortMalloc+0x80>
 8008b06:	f04f 0350 	mov.w	r3, #80	; 0x50
 8008b0a:	f383 8811 	msr	BASEPRI, r3
 8008b0e:	f3bf 8f6f 	isb	sy
 8008b12:	f3bf 8f4f 	dsb	sy
 8008b16:	e7fe      	b.n	8008b16 <pvPortMalloc+0xee>
 8008b18:	491d      	ldr	r1, [pc, #116]	; (8008b90 <pvPortMalloc+0x168>)
 8008b1a:	4c19      	ldr	r4, [pc, #100]	; (8008b80 <pvPortMalloc+0x158>)
 8008b1c:	074f      	lsls	r7, r1, #29
 8008b1e:	bf14      	ite	ne
 8008b20:	1dca      	addne	r2, r1, #7
 8008b22:	460a      	moveq	r2, r1
 8008b24:	f501 5170 	add.w	r1, r1, #15360	; 0x3c00
 8008b28:	f1a1 0508 	sub.w	r5, r1, #8
 8008b2c:	f025 0507 	bic.w	r5, r5, #7
 8008b30:	bf18      	it	ne
 8008b32:	f022 0207 	bicne.w	r2, r2, #7
 8008b36:	4914      	ldr	r1, [pc, #80]	; (8008b88 <pvPortMalloc+0x160>)
 8008b38:	601d      	str	r5, [r3, #0]
 8008b3a:	4610      	mov	r0, r2
 8008b3c:	1aab      	subs	r3, r5, r2
 8008b3e:	4a15      	ldr	r2, [pc, #84]	; (8008b94 <pvPortMalloc+0x16c>)
 8008b40:	600b      	str	r3, [r1, #0]
 8008b42:	4910      	ldr	r1, [pc, #64]	; (8008b84 <pvPortMalloc+0x15c>)
 8008b44:	6013      	str	r3, [r2, #0]
 8008b46:	f04f 4700 	mov.w	r7, #2147483648	; 0x80000000
 8008b4a:	2200      	movs	r2, #0
 8008b4c:	6008      	str	r0, [r1, #0]
 8008b4e:	604a      	str	r2, [r1, #4]
 8008b50:	6027      	str	r7, [r4, #0]
 8008b52:	e9c5 2200 	strd	r2, r2, [r5]
 8008b56:	e9c0 5300 	strd	r5, r3, [r0]
 8008b5a:	e770      	b.n	8008a3e <pvPortMalloc+0x16>
 8008b5c:	6849      	ldr	r1, [r1, #4]
 8008b5e:	eb00 0e01 	add.w	lr, r0, r1
 8008b62:	f8c4 e004 	str.w	lr, [r4, #4]
 8008b66:	4621      	mov	r1, r4
 8008b68:	e7af      	b.n	8008aca <pvPortMalloc+0xa2>
 8008b6a:	42aa      	cmp	r2, r5
 8008b6c:	d0b1      	beq.n	8008ad2 <pvPortMalloc+0xaa>
 8008b6e:	6850      	ldr	r0, [r2, #4]
 8008b70:	6812      	ldr	r2, [r2, #0]
 8008b72:	600a      	str	r2, [r1, #0]
 8008b74:	4470      	add	r0, lr
 8008b76:	6048      	str	r0, [r1, #4]
 8008b78:	e7ac      	b.n	8008ad4 <pvPortMalloc+0xac>
 8008b7a:	bf00      	nop
 8008b7c:	200039d0 	.word	0x200039d0
 8008b80:	200075d4 	.word	0x200075d4
 8008b84:	200075e8 	.word	0x200075e8
 8008b88:	200075dc 	.word	0x200075dc
 8008b8c:	200075e0 	.word	0x200075e0
 8008b90:	200039d4 	.word	0x200039d4
 8008b94:	200075d8 	.word	0x200075d8

08008b98 <vPortFree>:
 8008b98:	b1d0      	cbz	r0, 8008bd0 <vPortFree+0x38>
 8008b9a:	4a2b      	ldr	r2, [pc, #172]	; (8008c48 <vPortFree+0xb0>)
 8008b9c:	f850 3c04 	ldr.w	r3, [r0, #-4]
 8008ba0:	6812      	ldr	r2, [r2, #0]
 8008ba2:	4213      	tst	r3, r2
 8008ba4:	d00b      	beq.n	8008bbe <vPortFree+0x26>
 8008ba6:	f850 1c08 	ldr.w	r1, [r0, #-8]
 8008baa:	b191      	cbz	r1, 8008bd2 <vPortFree+0x3a>
 8008bac:	f04f 0350 	mov.w	r3, #80	; 0x50
 8008bb0:	f383 8811 	msr	BASEPRI, r3
 8008bb4:	f3bf 8f6f 	isb	sy
 8008bb8:	f3bf 8f4f 	dsb	sy
 8008bbc:	e7fe      	b.n	8008bbc <vPortFree+0x24>
 8008bbe:	f04f 0350 	mov.w	r3, #80	; 0x50
 8008bc2:	f383 8811 	msr	BASEPRI, r3
 8008bc6:	f3bf 8f6f 	isb	sy
 8008bca:	f3bf 8f4f 	dsb	sy
 8008bce:	e7fe      	b.n	8008bce <vPortFree+0x36>
 8008bd0:	4770      	bx	lr
 8008bd2:	b510      	push	{r4, lr}
 8008bd4:	ea23 0302 	bic.w	r3, r3, r2
 8008bd8:	b082      	sub	sp, #8
 8008bda:	f840 3c04 	str.w	r3, [r0, #-4]
 8008bde:	4c1b      	ldr	r4, [pc, #108]	; (8008c4c <vPortFree+0xb4>)
 8008be0:	9001      	str	r0, [sp, #4]
 8008be2:	f7ff f99f 	bl	8007f24 <vTaskSuspendAll>
 8008be6:	9801      	ldr	r0, [sp, #4]
 8008be8:	6822      	ldr	r2, [r4, #0]
 8008bea:	f850 1c04 	ldr.w	r1, [r0, #-4]
 8008bee:	4b18      	ldr	r3, [pc, #96]	; (8008c50 <vPortFree+0xb8>)
 8008bf0:	440a      	add	r2, r1
 8008bf2:	3808      	subs	r0, #8
 8008bf4:	6022      	str	r2, [r4, #0]
 8008bf6:	461a      	mov	r2, r3
 8008bf8:	681b      	ldr	r3, [r3, #0]
 8008bfa:	4298      	cmp	r0, r3
 8008bfc:	d8fb      	bhi.n	8008bf6 <vPortFree+0x5e>
 8008bfe:	6854      	ldr	r4, [r2, #4]
 8008c00:	eb02 0e04 	add.w	lr, r2, r4
 8008c04:	4570      	cmp	r0, lr
 8008c06:	d01a      	beq.n	8008c3e <vPortFree+0xa6>
 8008c08:	eb00 0c01 	add.w	ip, r0, r1
 8008c0c:	4563      	cmp	r3, ip
 8008c0e:	d00c      	beq.n	8008c2a <vPortFree+0x92>
 8008c10:	6003      	str	r3, [r0, #0]
 8008c12:	4282      	cmp	r2, r0
 8008c14:	bf18      	it	ne
 8008c16:	6010      	strne	r0, [r2, #0]
 8008c18:	4a0e      	ldr	r2, [pc, #56]	; (8008c54 <vPortFree+0xbc>)
 8008c1a:	6813      	ldr	r3, [r2, #0]
 8008c1c:	3301      	adds	r3, #1
 8008c1e:	6013      	str	r3, [r2, #0]
 8008c20:	b002      	add	sp, #8
 8008c22:	e8bd 4010 	ldmia.w	sp!, {r4, lr}
 8008c26:	f7ff b985 	b.w	8007f34 <xTaskResumeAll>
 8008c2a:	4c0b      	ldr	r4, [pc, #44]	; (8008c58 <vPortFree+0xc0>)
 8008c2c:	6824      	ldr	r4, [r4, #0]
 8008c2e:	42a3      	cmp	r3, r4
 8008c30:	d0ee      	beq.n	8008c10 <vPortFree+0x78>
 8008c32:	e9d3 3400 	ldrd	r3, r4, [r3]
 8008c36:	4421      	add	r1, r4
 8008c38:	e9c0 3100 	strd	r3, r1, [r0]
 8008c3c:	e7e9      	b.n	8008c12 <vPortFree+0x7a>
 8008c3e:	4421      	add	r1, r4
 8008c40:	6051      	str	r1, [r2, #4]
 8008c42:	4610      	mov	r0, r2
 8008c44:	e7e0      	b.n	8008c08 <vPortFree+0x70>
 8008c46:	bf00      	nop
 8008c48:	200075d4 	.word	0x200075d4
 8008c4c:	200075d8 	.word	0x200075d8
 8008c50:	200075e8 	.word	0x200075e8
 8008c54:	200075e4 	.word	0x200075e4
 8008c58:	200039d0 	.word	0x200039d0

08008c5c <__errno>:
 8008c5c:	4b01      	ldr	r3, [pc, #4]	; (8008c64 <__errno+0x8>)
 8008c5e:	6818      	ldr	r0, [r3, #0]
 8008c60:	4770      	bx	lr
 8008c62:	bf00      	nop
 8008c64:	200003fc 	.word	0x200003fc

08008c68 <__libc_init_array>:
 8008c68:	b570      	push	{r4, r5, r6, lr}
 8008c6a:	4d0d      	ldr	r5, [pc, #52]	; (8008ca0 <__libc_init_array+0x38>)
 8008c6c:	4c0d      	ldr	r4, [pc, #52]	; (8008ca4 <__libc_init_array+0x3c>)
 8008c6e:	1b64      	subs	r4, r4, r5
 8008c70:	10a4      	asrs	r4, r4, #2
 8008c72:	2600      	movs	r6, #0
 8008c74:	42a6      	cmp	r6, r4
 8008c76:	d109      	bne.n	8008c8c <__libc_init_array+0x24>
 8008c78:	4d0b      	ldr	r5, [pc, #44]	; (8008ca8 <__libc_init_array+0x40>)
 8008c7a:	4c0c      	ldr	r4, [pc, #48]	; (8008cac <__libc_init_array+0x44>)
 8008c7c:	f000 fca2 	bl	80095c4 <_init>
 8008c80:	1b64      	subs	r4, r4, r5
 8008c82:	10a4      	asrs	r4, r4, #2
 8008c84:	2600      	movs	r6, #0
 8008c86:	42a6      	cmp	r6, r4
 8008c88:	d105      	bne.n	8008c96 <__libc_init_array+0x2e>
 8008c8a:	bd70      	pop	{r4, r5, r6, pc}
 8008c8c:	f855 3b04 	ldr.w	r3, [r5], #4
 8008c90:	4798      	blx	r3
 8008c92:	3601      	adds	r6, #1
 8008c94:	e7ee      	b.n	8008c74 <__libc_init_array+0xc>
 8008c96:	f855 3b04 	ldr.w	r3, [r5], #4
 8008c9a:	4798      	blx	r3
 8008c9c:	3601      	adds	r6, #1
 8008c9e:	e7f2      	b.n	8008c86 <__libc_init_array+0x1e>
 8008ca0:	0800983c 	.word	0x0800983c
 8008ca4:	0800983c 	.word	0x0800983c
 8008ca8:	0800983c 	.word	0x0800983c
 8008cac:	08009840 	.word	0x08009840

08008cb0 <memcpy>:
 8008cb0:	440a      	add	r2, r1
 8008cb2:	4291      	cmp	r1, r2
 8008cb4:	f100 33ff 	add.w	r3, r0, #4294967295
 8008cb8:	d100      	bne.n	8008cbc <memcpy+0xc>
 8008cba:	4770      	bx	lr
 8008cbc:	b510      	push	{r4, lr}
 8008cbe:	f811 4b01 	ldrb.w	r4, [r1], #1
 8008cc2:	f803 4f01 	strb.w	r4, [r3, #1]!
 8008cc6:	4291      	cmp	r1, r2
 8008cc8:	d1f9      	bne.n	8008cbe <memcpy+0xe>
 8008cca:	bd10      	pop	{r4, pc}

08008ccc <memset>:
 8008ccc:	4402      	add	r2, r0
 8008cce:	4603      	mov	r3, r0
 8008cd0:	4293      	cmp	r3, r2
 8008cd2:	d100      	bne.n	8008cd6 <memset+0xa>
 8008cd4:	4770      	bx	lr
 8008cd6:	f803 1b01 	strb.w	r1, [r3], #1
 8008cda:	e7f9      	b.n	8008cd0 <memset+0x4>

08008cdc <sniprintf>:
 8008cdc:	b40c      	push	{r2, r3}
 8008cde:	b530      	push	{r4, r5, lr}
 8008ce0:	4b17      	ldr	r3, [pc, #92]	; (8008d40 <sniprintf+0x64>)
 8008ce2:	1e0c      	subs	r4, r1, #0
 8008ce4:	681d      	ldr	r5, [r3, #0]
 8008ce6:	b09d      	sub	sp, #116	; 0x74
 8008ce8:	da08      	bge.n	8008cfc <sniprintf+0x20>
 8008cea:	238b      	movs	r3, #139	; 0x8b
 8008cec:	602b      	str	r3, [r5, #0]
 8008cee:	f04f 30ff 	mov.w	r0, #4294967295
 8008cf2:	b01d      	add	sp, #116	; 0x74
 8008cf4:	e8bd 4030 	ldmia.w	sp!, {r4, r5, lr}
 8008cf8:	b002      	add	sp, #8
 8008cfa:	4770      	bx	lr
 8008cfc:	f44f 7302 	mov.w	r3, #520	; 0x208
 8008d00:	f8ad 3014 	strh.w	r3, [sp, #20]
 8008d04:	bf14      	ite	ne
 8008d06:	f104 33ff 	addne.w	r3, r4, #4294967295
 8008d0a:	4623      	moveq	r3, r4
 8008d0c:	9304      	str	r3, [sp, #16]
 8008d0e:	9307      	str	r3, [sp, #28]
 8008d10:	f64f 73ff 	movw	r3, #65535	; 0xffff
 8008d14:	9002      	str	r0, [sp, #8]
 8008d16:	9006      	str	r0, [sp, #24]
 8008d18:	f8ad 3016 	strh.w	r3, [sp, #22]
 8008d1c:	9a20      	ldr	r2, [sp, #128]	; 0x80
 8008d1e:	ab21      	add	r3, sp, #132	; 0x84
 8008d20:	a902      	add	r1, sp, #8
 8008d22:	4628      	mov	r0, r5
 8008d24:	9301      	str	r3, [sp, #4]
 8008d26:	f000 f869 	bl	8008dfc <_svfiprintf_r>
 8008d2a:	1c43      	adds	r3, r0, #1
 8008d2c:	bfbc      	itt	lt
 8008d2e:	238b      	movlt	r3, #139	; 0x8b
 8008d30:	602b      	strlt	r3, [r5, #0]
 8008d32:	2c00      	cmp	r4, #0
 8008d34:	d0dd      	beq.n	8008cf2 <sniprintf+0x16>
 8008d36:	9b02      	ldr	r3, [sp, #8]
 8008d38:	2200      	movs	r2, #0
 8008d3a:	701a      	strb	r2, [r3, #0]
 8008d3c:	e7d9      	b.n	8008cf2 <sniprintf+0x16>
 8008d3e:	bf00      	nop
 8008d40:	200003fc 	.word	0x200003fc

08008d44 <__ssputs_r>:
 8008d44:	e92d 47f0 	stmdb	sp!, {r4, r5, r6, r7, r8, r9, sl, lr}
 8008d48:	688e      	ldr	r6, [r1, #8]
 8008d4a:	429e      	cmp	r6, r3
 8008d4c:	4682      	mov	sl, r0
 8008d4e:	460c      	mov	r4, r1
 8008d50:	4690      	mov	r8, r2
 8008d52:	461f      	mov	r7, r3
 8008d54:	d838      	bhi.n	8008dc8 <__ssputs_r+0x84>
 8008d56:	898a      	ldrh	r2, [r1, #12]
 8008d58:	f412 6f90 	tst.w	r2, #1152	; 0x480
 8008d5c:	d032      	beq.n	8008dc4 <__ssputs_r+0x80>
 8008d5e:	6825      	ldr	r5, [r4, #0]
 8008d60:	6909      	ldr	r1, [r1, #16]
 8008d62:	eba5 0901 	sub.w	r9, r5, r1
 8008d66:	6965      	ldr	r5, [r4, #20]
 8008d68:	eb05 0545 	add.w	r5, r5, r5, lsl #1
 8008d6c:	eb05 75d5 	add.w	r5, r5, r5, lsr #31
 8008d70:	3301      	adds	r3, #1
 8008d72:	444b      	add	r3, r9
 8008d74:	106d      	asrs	r5, r5, #1
 8008d76:	429d      	cmp	r5, r3
 8008d78:	bf38      	it	cc
 8008d7a:	461d      	movcc	r5, r3
 8008d7c:	0553      	lsls	r3, r2, #21
 8008d7e:	d531      	bpl.n	8008de4 <__ssputs_r+0xa0>
 8008d80:	4629      	mov	r1, r5
 8008d82:	f000 fb55 	bl	8009430 <_malloc_r>
 8008d86:	4606      	mov	r6, r0
 8008d88:	b950      	cbnz	r0, 8008da0 <__ssputs_r+0x5c>
 8008d8a:	230c      	movs	r3, #12
 8008d8c:	f8ca 3000 	str.w	r3, [sl]
 8008d90:	89a3      	ldrh	r3, [r4, #12]
 8008d92:	f043 0340 	orr.w	r3, r3, #64	; 0x40
 8008d96:	81a3      	strh	r3, [r4, #12]
 8008d98:	f04f 30ff 	mov.w	r0, #4294967295
 8008d9c:	e8bd 87f0 	ldmia.w	sp!, {r4, r5, r6, r7, r8, r9, sl, pc}
 8008da0:	6921      	ldr	r1, [r4, #16]
 8008da2:	464a      	mov	r2, r9
 8008da4:	f7ff ff84 	bl	8008cb0 <memcpy>
 8008da8:	89a3      	ldrh	r3, [r4, #12]
 8008daa:	f423 6390 	bic.w	r3, r3, #1152	; 0x480
 8008dae:	f043 0380 	orr.w	r3, r3, #128	; 0x80
 8008db2:	81a3      	strh	r3, [r4, #12]
 8008db4:	6126      	str	r6, [r4, #16]
 8008db6:	6165      	str	r5, [r4, #20]
 8008db8:	444e      	add	r6, r9
 8008dba:	eba5 0509 	sub.w	r5, r5, r9
 8008dbe:	6026      	str	r6, [r4, #0]
 8008dc0:	60a5      	str	r5, [r4, #8]
 8008dc2:	463e      	mov	r6, r7
 8008dc4:	42be      	cmp	r6, r7
 8008dc6:	d900      	bls.n	8008dca <__ssputs_r+0x86>
 8008dc8:	463e      	mov	r6, r7
 8008dca:	6820      	ldr	r0, [r4, #0]
 8008dcc:	4632      	mov	r2, r6
 8008dce:	4641      	mov	r1, r8
 8008dd0:	f000 faa8 	bl	8009324 <memmove>
 8008dd4:	68a3      	ldr	r3, [r4, #8]
 8008dd6:	1b9b      	subs	r3, r3, r6
 8008dd8:	60a3      	str	r3, [r4, #8]
 8008dda:	6823      	ldr	r3, [r4, #0]
 8008ddc:	4433      	add	r3, r6
 8008dde:	6023      	str	r3, [r4, #0]
 8008de0:	2000      	movs	r0, #0
 8008de2:	e7db      	b.n	8008d9c <__ssputs_r+0x58>
 8008de4:	462a      	mov	r2, r5
 8008de6:	f000 fb97 	bl	8009518 <_realloc_r>
 8008dea:	4606      	mov	r6, r0
 8008dec:	2800      	cmp	r0, #0
 8008dee:	d1e1      	bne.n	8008db4 <__ssputs_r+0x70>
 8008df0:	6921      	ldr	r1, [r4, #16]
 8008df2:	4650      	mov	r0, sl
 8008df4:	f000 fab0 	bl	8009358 <_free_r>
 8008df8:	e7c7      	b.n	8008d8a <__ssputs_r+0x46>
	...

08008dfc <_svfiprintf_r>:
 8008dfc:	e92d 4ff0 	stmdb	sp!, {r4, r5, r6, r7, r8, r9, sl, fp, lr}
 8008e00:	4698      	mov	r8, r3
 8008e02:	898b      	ldrh	r3, [r1, #12]
 8008e04:	061b      	lsls	r3, r3, #24
 8008e06:	b09d      	sub	sp, #116	; 0x74
 8008e08:	4607      	mov	r7, r0
 8008e0a:	460d      	mov	r5, r1
 8008e0c:	4614      	mov	r4, r2
 8008e0e:	d50e      	bpl.n	8008e2e <_svfiprintf_r+0x32>
 8008e10:	690b      	ldr	r3, [r1, #16]
 8008e12:	b963      	cbnz	r3, 8008e2e <_svfiprintf_r+0x32>
 8008e14:	2140      	movs	r1, #64	; 0x40
 8008e16:	f000 fb0b 	bl	8009430 <_malloc_r>
 8008e1a:	6028      	str	r0, [r5, #0]
 8008e1c:	6128      	str	r0, [r5, #16]
 8008e1e:	b920      	cbnz	r0, 8008e2a <_svfiprintf_r+0x2e>
 8008e20:	230c      	movs	r3, #12
 8008e22:	603b      	str	r3, [r7, #0]
 8008e24:	f04f 30ff 	mov.w	r0, #4294967295
 8008e28:	e0d1      	b.n	8008fce <_svfiprintf_r+0x1d2>
 8008e2a:	2340      	movs	r3, #64	; 0x40
 8008e2c:	616b      	str	r3, [r5, #20]
 8008e2e:	2300      	movs	r3, #0
 8008e30:	9309      	str	r3, [sp, #36]	; 0x24
 8008e32:	2320      	movs	r3, #32
 8008e34:	f88d 3029 	strb.w	r3, [sp, #41]	; 0x29
 8008e38:	f8cd 800c 	str.w	r8, [sp, #12]
 8008e3c:	2330      	movs	r3, #48	; 0x30
 8008e3e:	f8df 81a8 	ldr.w	r8, [pc, #424]	; 8008fe8 <_svfiprintf_r+0x1ec>
 8008e42:	f88d 302a 	strb.w	r3, [sp, #42]	; 0x2a
 8008e46:	f04f 0901 	mov.w	r9, #1
 8008e4a:	4623      	mov	r3, r4
 8008e4c:	469a      	mov	sl, r3
 8008e4e:	f813 2b01 	ldrb.w	r2, [r3], #1
 8008e52:	b10a      	cbz	r2, 8008e58 <_svfiprintf_r+0x5c>
 8008e54:	2a25      	cmp	r2, #37	; 0x25
 8008e56:	d1f9      	bne.n	8008e4c <_svfiprintf_r+0x50>
 8008e58:	ebba 0b04 	subs.w	fp, sl, r4
 8008e5c:	d00b      	beq.n	8008e76 <_svfiprintf_r+0x7a>
 8008e5e:	465b      	mov	r3, fp
 8008e60:	4622      	mov	r2, r4
 8008e62:	4629      	mov	r1, r5
 8008e64:	4638      	mov	r0, r7
 8008e66:	f7ff ff6d 	bl	8008d44 <__ssputs_r>
 8008e6a:	3001      	adds	r0, #1
 8008e6c:	f000 80aa 	beq.w	8008fc4 <_svfiprintf_r+0x1c8>
 8008e70:	9a09      	ldr	r2, [sp, #36]	; 0x24
 8008e72:	445a      	add	r2, fp
 8008e74:	9209      	str	r2, [sp, #36]	; 0x24
 8008e76:	f89a 3000 	ldrb.w	r3, [sl]
 8008e7a:	2b00      	cmp	r3, #0
 8008e7c:	f000 80a2 	beq.w	8008fc4 <_svfiprintf_r+0x1c8>
 8008e80:	2300      	movs	r3, #0
 8008e82:	f04f 32ff 	mov.w	r2, #4294967295
 8008e86:	e9cd 2305 	strd	r2, r3, [sp, #20]
 8008e8a:	f10a 0a01 	add.w	sl, sl, #1
 8008e8e:	9304      	str	r3, [sp, #16]
 8008e90:	9307      	str	r3, [sp, #28]
 8008e92:	f88d 3053 	strb.w	r3, [sp, #83]	; 0x53
 8008e96:	931a      	str	r3, [sp, #104]	; 0x68
 8008e98:	4654      	mov	r4, sl
 8008e9a:	2205      	movs	r2, #5
 8008e9c:	f814 1b01 	ldrb.w	r1, [r4], #1
 8008ea0:	4851      	ldr	r0, [pc, #324]	; (8008fe8 <_svfiprintf_r+0x1ec>)
 8008ea2:	f7f7 f99d 	bl	80001e0 <memchr>
 8008ea6:	9a04      	ldr	r2, [sp, #16]
 8008ea8:	b9d8      	cbnz	r0, 8008ee2 <_svfiprintf_r+0xe6>
 8008eaa:	06d0      	lsls	r0, r2, #27
 8008eac:	bf44      	itt	mi
 8008eae:	2320      	movmi	r3, #32
 8008eb0:	f88d 3053 	strbmi.w	r3, [sp, #83]	; 0x53
 8008eb4:	0711      	lsls	r1, r2, #28
 8008eb6:	bf44      	itt	mi
 8008eb8:	232b      	movmi	r3, #43	; 0x2b
 8008eba:	f88d 3053 	strbmi.w	r3, [sp, #83]	; 0x53
 8008ebe:	f89a 3000 	ldrb.w	r3, [sl]
 8008ec2:	2b2a      	cmp	r3, #42	; 0x2a
 8008ec4:	d015      	beq.n	8008ef2 <_svfiprintf_r+0xf6>
 8008ec6:	9a07      	ldr	r2, [sp, #28]
 8008ec8:	4654      	mov	r4, sl
 8008eca:	2000      	movs	r0, #0
 8008ecc:	f04f 0c0a 	mov.w	ip, #10
 8008ed0:	4621      	mov	r1, r4
 8008ed2:	f811 3b01 	ldrb.w	r3, [r1], #1
 8008ed6:	3b30      	subs	r3, #48	; 0x30
 8008ed8:	2b09      	cmp	r3, #9
 8008eda:	d94e      	bls.n	8008f7a <_svfiprintf_r+0x17e>
 8008edc:	b1b0      	cbz	r0, 8008f0c <_svfiprintf_r+0x110>
 8008ede:	9207      	str	r2, [sp, #28]
 8008ee0:	e014      	b.n	8008f0c <_svfiprintf_r+0x110>
 8008ee2:	eba0 0308 	sub.w	r3, r0, r8
 8008ee6:	fa09 f303 	lsl.w	r3, r9, r3
 8008eea:	4313      	orrs	r3, r2
 8008eec:	9304      	str	r3, [sp, #16]
 8008eee:	46a2      	mov	sl, r4
 8008ef0:	e7d2      	b.n	8008e98 <_svfiprintf_r+0x9c>
 8008ef2:	9b03      	ldr	r3, [sp, #12]
 8008ef4:	1d19      	adds	r1, r3, #4
 8008ef6:	681b      	ldr	r3, [r3, #0]
 8008ef8:	9103      	str	r1, [sp, #12]
 8008efa:	2b00      	cmp	r3, #0
 8008efc:	bfbb      	ittet	lt
 8008efe:	425b      	neglt	r3, r3
 8008f00:	f042 0202 	orrlt.w	r2, r2, #2
 8008f04:	9307      	strge	r3, [sp, #28]
 8008f06:	9307      	strlt	r3, [sp, #28]
 8008f08:	bfb8      	it	lt
 8008f0a:	9204      	strlt	r2, [sp, #16]
 8008f0c:	7823      	ldrb	r3, [r4, #0]
 8008f0e:	2b2e      	cmp	r3, #46	; 0x2e
 8008f10:	d10c      	bne.n	8008f2c <_svfiprintf_r+0x130>
 8008f12:	7863      	ldrb	r3, [r4, #1]
 8008f14:	2b2a      	cmp	r3, #42	; 0x2a
 8008f16:	d135      	bne.n	8008f84 <_svfiprintf_r+0x188>
 8008f18:	9b03      	ldr	r3, [sp, #12]
 8008f1a:	1d1a      	adds	r2, r3, #4
 8008f1c:	681b      	ldr	r3, [r3, #0]
 8008f1e:	9203      	str	r2, [sp, #12]
 8008f20:	2b00      	cmp	r3, #0
 8008f22:	bfb8      	it	lt
 8008f24:	f04f 33ff 	movlt.w	r3, #4294967295
 8008f28:	3402      	adds	r4, #2
 8008f2a:	9305      	str	r3, [sp, #20]
 8008f2c:	f8df a0c8 	ldr.w	sl, [pc, #200]	; 8008ff8 <_svfiprintf_r+0x1fc>
 8008f30:	7821      	ldrb	r1, [r4, #0]
 8008f32:	2203      	movs	r2, #3
 8008f34:	4650      	mov	r0, sl
 8008f36:	f7f7 f953 	bl	80001e0 <memchr>
 8008f3a:	b140      	cbz	r0, 8008f4e <_svfiprintf_r+0x152>
 8008f3c:	2340      	movs	r3, #64	; 0x40
 8008f3e:	eba0 000a 	sub.w	r0, r0, sl
 8008f42:	fa03 f000 	lsl.w	r0, r3, r0
 8008f46:	9b04      	ldr	r3, [sp, #16]
 8008f48:	4303      	orrs	r3, r0
 8008f4a:	3401      	adds	r4, #1
 8008f4c:	9304      	str	r3, [sp, #16]
 8008f4e:	f814 1b01 	ldrb.w	r1, [r4], #1
 8008f52:	4826      	ldr	r0, [pc, #152]	; (8008fec <_svfiprintf_r+0x1f0>)
 8008f54:	f88d 1028 	strb.w	r1, [sp, #40]	; 0x28
 8008f58:	2206      	movs	r2, #6
 8008f5a:	f7f7 f941 	bl	80001e0 <memchr>
 8008f5e:	2800      	cmp	r0, #0
 8008f60:	d038      	beq.n	8008fd4 <_svfiprintf_r+0x1d8>
 8008f62:	4b23      	ldr	r3, [pc, #140]	; (8008ff0 <_svfiprintf_r+0x1f4>)
 8008f64:	bb1b      	cbnz	r3, 8008fae <_svfiprintf_r+0x1b2>
 8008f66:	9b03      	ldr	r3, [sp, #12]
 8008f68:	3307      	adds	r3, #7
 8008f6a:	f023 0307 	bic.w	r3, r3, #7
 8008f6e:	3308      	adds	r3, #8
 8008f70:	9303      	str	r3, [sp, #12]
 8008f72:	9b09      	ldr	r3, [sp, #36]	; 0x24
 8008f74:	4433      	add	r3, r6
 8008f76:	9309      	str	r3, [sp, #36]	; 0x24
 8008f78:	e767      	b.n	8008e4a <_svfiprintf_r+0x4e>
 8008f7a:	fb0c 3202 	mla	r2, ip, r2, r3
 8008f7e:	460c      	mov	r4, r1
 8008f80:	2001      	movs	r0, #1
 8008f82:	e7a5      	b.n	8008ed0 <_svfiprintf_r+0xd4>
 8008f84:	2300      	movs	r3, #0
 8008f86:	3401      	adds	r4, #1
 8008f88:	9305      	str	r3, [sp, #20]
 8008f8a:	4619      	mov	r1, r3
 8008f8c:	f04f 0c0a 	mov.w	ip, #10
 8008f90:	4620      	mov	r0, r4
 8008f92:	f810 2b01 	ldrb.w	r2, [r0], #1
 8008f96:	3a30      	subs	r2, #48	; 0x30
 8008f98:	2a09      	cmp	r2, #9
 8008f9a:	d903      	bls.n	8008fa4 <_svfiprintf_r+0x1a8>
 8008f9c:	2b00      	cmp	r3, #0
 8008f9e:	d0c5      	beq.n	8008f2c <_svfiprintf_r+0x130>
 8008fa0:	9105      	str	r1, [sp, #20]
 8008fa2:	e7c3      	b.n	8008f2c <_svfiprintf_r+0x130>
 8008fa4:	fb0c 2101 	mla	r1, ip, r1, r2
 8008fa8:	4604      	mov	r4, r0
 8008faa:	2301      	movs	r3, #1
 8008fac:	e7f0      	b.n	8008f90 <_svfiprintf_r+0x194>
 8008fae:	ab03      	add	r3, sp, #12
 8008fb0:	9300      	str	r3, [sp, #0]
 8008fb2:	462a      	mov	r2, r5
 8008fb4:	4b0f      	ldr	r3, [pc, #60]	; (8008ff4 <_svfiprintf_r+0x1f8>)
 8008fb6:	a904      	add	r1, sp, #16
 8008fb8:	4638      	mov	r0, r7
 8008fba:	f3af 8000 	nop.w
 8008fbe:	1c42      	adds	r2, r0, #1
 8008fc0:	4606      	mov	r6, r0
 8008fc2:	d1d6      	bne.n	8008f72 <_svfiprintf_r+0x176>
 8008fc4:	89ab      	ldrh	r3, [r5, #12]
 8008fc6:	065b      	lsls	r3, r3, #25
 8008fc8:	f53f af2c 	bmi.w	8008e24 <_svfiprintf_r+0x28>
 8008fcc:	9809      	ldr	r0, [sp, #36]	; 0x24
 8008fce:	b01d      	add	sp, #116	; 0x74
 8008fd0:	e8bd 8ff0 	ldmia.w	sp!, {r4, r5, r6, r7, r8, r9, sl, fp, pc}
 8008fd4:	ab03      	add	r3, sp, #12
 8008fd6:	9300      	str	r3, [sp, #0]
 8008fd8:	462a      	mov	r2, r5
 8008fda:	4b06      	ldr	r3, [pc, #24]	; (8008ff4 <_svfiprintf_r+0x1f8>)
 8008fdc:	a904      	add	r1, sp, #16
 8008fde:	4638      	mov	r0, r7
 8008fe0:	f000 f87a 	bl	80090d8 <_printf_i>
 8008fe4:	e7eb      	b.n	8008fbe <_svfiprintf_r+0x1c2>
 8008fe6:	bf00      	nop
 8008fe8:	08009800 	.word	0x08009800
 8008fec:	0800980a 	.word	0x0800980a
 8008ff0:	00000000 	.word	0x00000000
 8008ff4:	08008d45 	.word	0x08008d45
 8008ff8:	08009806 	.word	0x08009806

08008ffc <_printf_common>:
 8008ffc:	e92d 47f0 	stmdb	sp!, {r4, r5, r6, r7, r8, r9, sl, lr}
 8009000:	4616      	mov	r6, r2
 8009002:	4699      	mov	r9, r3
 8009004:	688a      	ldr	r2, [r1, #8]
 8009006:	690b      	ldr	r3, [r1, #16]
 8009008:	f8dd 8020 	ldr.w	r8, [sp, #32]
 800900c:	4293      	cmp	r3, r2
 800900e:	bfb8      	it	lt
 8009010:	4613      	movlt	r3, r2
 8009012:	6033      	str	r3, [r6, #0]
 8009014:	f891 2043 	ldrb.w	r2, [r1, #67]	; 0x43
 8009018:	4607      	mov	r7, r0
 800901a:	460c      	mov	r4, r1
 800901c:	b10a      	cbz	r2, 8009022 <_printf_common+0x26>
 800901e:	3301      	adds	r3, #1
 8009020:	6033      	str	r3, [r6, #0]
 8009022:	6823      	ldr	r3, [r4, #0]
 8009024:	0699      	lsls	r1, r3, #26
 8009026:	bf42      	ittt	mi
 8009028:	6833      	ldrmi	r3, [r6, #0]
 800902a:	3302      	addmi	r3, #2
 800902c:	6033      	strmi	r3, [r6, #0]
 800902e:	6825      	ldr	r5, [r4, #0]
 8009030:	f015 0506 	ands.w	r5, r5, #6
 8009034:	d106      	bne.n	8009044 <_printf_common+0x48>
 8009036:	f104 0a19 	add.w	sl, r4, #25
 800903a:	68e3      	ldr	r3, [r4, #12]
 800903c:	6832      	ldr	r2, [r6, #0]
 800903e:	1a9b      	subs	r3, r3, r2
 8009040:	42ab      	cmp	r3, r5
 8009042:	dc26      	bgt.n	8009092 <_printf_common+0x96>
 8009044:	f894 2043 	ldrb.w	r2, [r4, #67]	; 0x43
 8009048:	1e13      	subs	r3, r2, #0
 800904a:	6822      	ldr	r2, [r4, #0]
 800904c:	bf18      	it	ne
 800904e:	2301      	movne	r3, #1
 8009050:	0692      	lsls	r2, r2, #26
 8009052:	d42b      	bmi.n	80090ac <_printf_common+0xb0>
 8009054:	f104 0243 	add.w	r2, r4, #67	; 0x43
 8009058:	4649      	mov	r1, r9
 800905a:	4638      	mov	r0, r7
 800905c:	47c0      	blx	r8
 800905e:	3001      	adds	r0, #1
 8009060:	d01e      	beq.n	80090a0 <_printf_common+0xa4>
 8009062:	6823      	ldr	r3, [r4, #0]
 8009064:	68e5      	ldr	r5, [r4, #12]
 8009066:	6832      	ldr	r2, [r6, #0]
 8009068:	f003 0306 	and.w	r3, r3, #6
 800906c:	2b04      	cmp	r3, #4
 800906e:	bf08      	it	eq
 8009070:	1aad      	subeq	r5, r5, r2
 8009072:	68a3      	ldr	r3, [r4, #8]
 8009074:	6922      	ldr	r2, [r4, #16]
 8009076:	bf0c      	ite	eq
 8009078:	ea25 75e5 	biceq.w	r5, r5, r5, asr #31
 800907c:	2500      	movne	r5, #0
 800907e:	4293      	cmp	r3, r2
 8009080:	bfc4      	itt	gt
 8009082:	1a9b      	subgt	r3, r3, r2
 8009084:	18ed      	addgt	r5, r5, r3
 8009086:	2600      	movs	r6, #0
 8009088:	341a      	adds	r4, #26
 800908a:	42b5      	cmp	r5, r6
 800908c:	d11a      	bne.n	80090c4 <_printf_common+0xc8>
 800908e:	2000      	movs	r0, #0
 8009090:	e008      	b.n	80090a4 <_printf_common+0xa8>
 8009092:	2301      	movs	r3, #1
 8009094:	4652      	mov	r2, sl
 8009096:	4649      	mov	r1, r9
 8009098:	4638      	mov	r0, r7
 800909a:	47c0      	blx	r8
 800909c:	3001      	adds	r0, #1
 800909e:	d103      	bne.n	80090a8 <_printf_common+0xac>
 80090a0:	f04f 30ff 	mov.w	r0, #4294967295
 80090a4:	e8bd 87f0 	ldmia.w	sp!, {r4, r5, r6, r7, r8, r9, sl, pc}
 80090a8:	3501      	adds	r5, #1
 80090aa:	e7c6      	b.n	800903a <_printf_common+0x3e>
 80090ac:	18e1      	adds	r1, r4, r3
 80090ae:	1c5a      	adds	r2, r3, #1
 80090b0:	2030      	movs	r0, #48	; 0x30
 80090b2:	f881 0043 	strb.w	r0, [r1, #67]	; 0x43
 80090b6:	4422      	add	r2, r4
 80090b8:	f894 1045 	ldrb.w	r1, [r4, #69]	; 0x45
 80090bc:	f882 1043 	strb.w	r1, [r2, #67]	; 0x43
 80090c0:	3302      	adds	r3, #2
 80090c2:	e7c7      	b.n	8009054 <_printf_common+0x58>
 80090c4:	2301      	movs	r3, #1
 80090c6:	4622      	mov	r2, r4
 80090c8:	4649      	mov	r1, r9
 80090ca:	4638      	mov	r0, r7
 80090cc:	47c0      	blx	r8
 80090ce:	3001      	adds	r0, #1
 80090d0:	d0e6      	beq.n	80090a0 <_printf_common+0xa4>
 80090d2:	3601      	adds	r6, #1
 80090d4:	e7d9      	b.n	800908a <_printf_common+0x8e>
	...

080090d8 <_printf_i>:
 80090d8:	e92d 47ff 	stmdb	sp!, {r0, r1, r2, r3, r4, r5, r6, r7, r8, r9, sl, lr}
 80090dc:	7e0f      	ldrb	r7, [r1, #24]
 80090de:	9d0c      	ldr	r5, [sp, #48]	; 0x30
 80090e0:	2f78      	cmp	r7, #120	; 0x78
 80090e2:	4691      	mov	r9, r2
 80090e4:	4680      	mov	r8, r0
 80090e6:	460c      	mov	r4, r1
 80090e8:	469a      	mov	sl, r3
 80090ea:	f101 0243 	add.w	r2, r1, #67	; 0x43
 80090ee:	d807      	bhi.n	8009100 <_printf_i+0x28>
 80090f0:	2f62      	cmp	r7, #98	; 0x62
 80090f2:	d80a      	bhi.n	800910a <_printf_i+0x32>
 80090f4:	2f00      	cmp	r7, #0
 80090f6:	f000 80d8 	beq.w	80092aa <_printf_i+0x1d2>
 80090fa:	2f58      	cmp	r7, #88	; 0x58
 80090fc:	f000 80a3 	beq.w	8009246 <_printf_i+0x16e>
 8009100:	f104 0542 	add.w	r5, r4, #66	; 0x42
 8009104:	f884 7042 	strb.w	r7, [r4, #66]	; 0x42
 8009108:	e03a      	b.n	8009180 <_printf_i+0xa8>
 800910a:	f1a7 0363 	sub.w	r3, r7, #99	; 0x63
 800910e:	2b15      	cmp	r3, #21
 8009110:	d8f6      	bhi.n	8009100 <_printf_i+0x28>
 8009112:	a101      	add	r1, pc, #4	; (adr r1, 8009118 <_printf_i+0x40>)
 8009114:	f851 f023 	ldr.w	pc, [r1, r3, lsl #2]
 8009118:	08009171 	.word	0x08009171
 800911c:	08009185 	.word	0x08009185
 8009120:	08009101 	.word	0x08009101
 8009124:	08009101 	.word	0x08009101
 8009128:	08009101 	.word	0x08009101
 800912c:	08009101 	.word	0x08009101
 8009130:	08009185 	.word	0x08009185
 8009134:	08009101 	.word	0x08009101
 8009138:	08009101 	.word	0x08009101
 800913c:	08009101 	.word	0x08009101
 8009140:	08009101 	.word	0x08009101
 8009144:	08009291 	.word	0x08009291
 8009148:	080091b5 	.word	0x080091b5
 800914c:	08009273 	.word	0x08009273
 8009150:	08009101 	.word	0x08009101
 8009154:	08009101 	.word	0x08009101
 8009158:	080092b3 	.word	0x080092b3
 800915c:	08009101 	.word	0x08009101
 8009160:	080091b5 	.word	0x080091b5
 8009164:	08009101 	.word	0x08009101
 8009168:	08009101 	.word	0x08009101
 800916c:	0800927b 	.word	0x0800927b
 8009170:	682b      	ldr	r3, [r5, #0]
 8009172:	1d1a      	adds	r2, r3, #4
 8009174:	681b      	ldr	r3, [r3, #0]
 8009176:	602a      	str	r2, [r5, #0]
 8009178:	f104 0542 	add.w	r5, r4, #66	; 0x42
 800917c:	f884 3042 	strb.w	r3, [r4, #66]	; 0x42
 8009180:	2301      	movs	r3, #1
 8009182:	e0a3      	b.n	80092cc <_printf_i+0x1f4>
 8009184:	6820      	ldr	r0, [r4, #0]
 8009186:	6829      	ldr	r1, [r5, #0]
 8009188:	0606      	lsls	r6, r0, #24
 800918a:	f101 0304 	add.w	r3, r1, #4
 800918e:	d50a      	bpl.n	80091a6 <_printf_i+0xce>
 8009190:	680e      	ldr	r6, [r1, #0]
 8009192:	602b      	str	r3, [r5, #0]
 8009194:	2e00      	cmp	r6, #0
 8009196:	da03      	bge.n	80091a0 <_printf_i+0xc8>
 8009198:	232d      	movs	r3, #45	; 0x2d
 800919a:	4276      	negs	r6, r6
 800919c:	f884 3043 	strb.w	r3, [r4, #67]	; 0x43
 80091a0:	485e      	ldr	r0, [pc, #376]	; (800931c <_printf_i+0x244>)
 80091a2:	230a      	movs	r3, #10
 80091a4:	e019      	b.n	80091da <_printf_i+0x102>
 80091a6:	680e      	ldr	r6, [r1, #0]
 80091a8:	602b      	str	r3, [r5, #0]
 80091aa:	f010 0f40 	tst.w	r0, #64	; 0x40
 80091ae:	bf18      	it	ne
 80091b0:	b236      	sxthne	r6, r6
 80091b2:	e7ef      	b.n	8009194 <_printf_i+0xbc>
 80091b4:	682b      	ldr	r3, [r5, #0]
 80091b6:	6820      	ldr	r0, [r4, #0]
 80091b8:	1d19      	adds	r1, r3, #4
 80091ba:	6029      	str	r1, [r5, #0]
 80091bc:	0601      	lsls	r1, r0, #24
 80091be:	d501      	bpl.n	80091c4 <_printf_i+0xec>
 80091c0:	681e      	ldr	r6, [r3, #0]
 80091c2:	e002      	b.n	80091ca <_printf_i+0xf2>
 80091c4:	0646      	lsls	r6, r0, #25
 80091c6:	d5fb      	bpl.n	80091c0 <_printf_i+0xe8>
 80091c8:	881e      	ldrh	r6, [r3, #0]
 80091ca:	4854      	ldr	r0, [pc, #336]	; (800931c <_printf_i+0x244>)
 80091cc:	2f6f      	cmp	r7, #111	; 0x6f
 80091ce:	bf0c      	ite	eq
 80091d0:	2308      	moveq	r3, #8
 80091d2:	230a      	movne	r3, #10
 80091d4:	2100      	movs	r1, #0
 80091d6:	f884 1043 	strb.w	r1, [r4, #67]	; 0x43
 80091da:	6865      	ldr	r5, [r4, #4]
 80091dc:	60a5      	str	r5, [r4, #8]
 80091de:	2d00      	cmp	r5, #0
 80091e0:	bfa2      	ittt	ge
 80091e2:	6821      	ldrge	r1, [r4, #0]
 80091e4:	f021 0104 	bicge.w	r1, r1, #4
 80091e8:	6021      	strge	r1, [r4, #0]
 80091ea:	b90e      	cbnz	r6, 80091f0 <_printf_i+0x118>
 80091ec:	2d00      	cmp	r5, #0
 80091ee:	d04d      	beq.n	800928c <_printf_i+0x1b4>
 80091f0:	4615      	mov	r5, r2
 80091f2:	fbb6 f1f3 	udiv	r1, r6, r3
 80091f6:	fb03 6711 	mls	r7, r3, r1, r6
 80091fa:	5dc7      	ldrb	r7, [r0, r7]
 80091fc:	f805 7d01 	strb.w	r7, [r5, #-1]!
 8009200:	4637      	mov	r7, r6
 8009202:	42bb      	cmp	r3, r7
 8009204:	460e      	mov	r6, r1
 8009206:	d9f4      	bls.n	80091f2 <_printf_i+0x11a>
 8009208:	2b08      	cmp	r3, #8
 800920a:	d10b      	bne.n	8009224 <_printf_i+0x14c>
 800920c:	6823      	ldr	r3, [r4, #0]
 800920e:	07de      	lsls	r6, r3, #31
 8009210:	d508      	bpl.n	8009224 <_printf_i+0x14c>
 8009212:	6923      	ldr	r3, [r4, #16]
 8009214:	6861      	ldr	r1, [r4, #4]
 8009216:	4299      	cmp	r1, r3
 8009218:	bfde      	ittt	le
 800921a:	2330      	movle	r3, #48	; 0x30
 800921c:	f805 3c01 	strble.w	r3, [r5, #-1]
 8009220:	f105 35ff 	addle.w	r5, r5, #4294967295
 8009224:	1b52      	subs	r2, r2, r5
 8009226:	6122      	str	r2, [r4, #16]
 8009228:	f8cd a000 	str.w	sl, [sp]
 800922c:	464b      	mov	r3, r9
 800922e:	aa03      	add	r2, sp, #12
 8009230:	4621      	mov	r1, r4
 8009232:	4640      	mov	r0, r8
 8009234:	f7ff fee2 	bl	8008ffc <_printf_common>
 8009238:	3001      	adds	r0, #1
 800923a:	d14c      	bne.n	80092d6 <_printf_i+0x1fe>
 800923c:	f04f 30ff 	mov.w	r0, #4294967295
 8009240:	b004      	add	sp, #16
 8009242:	e8bd 87f0 	ldmia.w	sp!, {r4, r5, r6, r7, r8, r9, sl, pc}
 8009246:	4835      	ldr	r0, [pc, #212]	; (800931c <_printf_i+0x244>)
 8009248:	f881 7045 	strb.w	r7, [r1, #69]	; 0x45
 800924c:	6829      	ldr	r1, [r5, #0]
 800924e:	6823      	ldr	r3, [r4, #0]
 8009250:	f851 6b04 	ldr.w	r6, [r1], #4
 8009254:	6029      	str	r1, [r5, #0]
 8009256:	061d      	lsls	r5, r3, #24
 8009258:	d514      	bpl.n	8009284 <_printf_i+0x1ac>
 800925a:	07df      	lsls	r7, r3, #31
 800925c:	bf44      	itt	mi
 800925e:	f043 0320 	orrmi.w	r3, r3, #32
 8009262:	6023      	strmi	r3, [r4, #0]
 8009264:	b91e      	cbnz	r6, 800926e <_printf_i+0x196>
 8009266:	6823      	ldr	r3, [r4, #0]
 8009268:	f023 0320 	bic.w	r3, r3, #32
 800926c:	6023      	str	r3, [r4, #0]
 800926e:	2310      	movs	r3, #16
 8009270:	e7b0      	b.n	80091d4 <_printf_i+0xfc>
 8009272:	6823      	ldr	r3, [r4, #0]
 8009274:	f043 0320 	orr.w	r3, r3, #32
 8009278:	6023      	str	r3, [r4, #0]
 800927a:	2378      	movs	r3, #120	; 0x78
 800927c:	4828      	ldr	r0, [pc, #160]	; (8009320 <_printf_i+0x248>)
 800927e:	f884 3045 	strb.w	r3, [r4, #69]	; 0x45
 8009282:	e7e3      	b.n	800924c <_printf_i+0x174>
 8009284:	0659      	lsls	r1, r3, #25
 8009286:	bf48      	it	mi
 8009288:	b2b6      	uxthmi	r6, r6
 800928a:	e7e6      	b.n	800925a <_printf_i+0x182>
 800928c:	4615      	mov	r5, r2
 800928e:	e7bb      	b.n	8009208 <_printf_i+0x130>
 8009290:	682b      	ldr	r3, [r5, #0]
 8009292:	6826      	ldr	r6, [r4, #0]
 8009294:	6961      	ldr	r1, [r4, #20]
 8009296:	1d18      	adds	r0, r3, #4
 8009298:	6028      	str	r0, [r5, #0]
 800929a:	0635      	lsls	r5, r6, #24
 800929c:	681b      	ldr	r3, [r3, #0]
 800929e:	d501      	bpl.n	80092a4 <_printf_i+0x1cc>
 80092a0:	6019      	str	r1, [r3, #0]
 80092a2:	e002      	b.n	80092aa <_printf_i+0x1d2>
 80092a4:	0670      	lsls	r0, r6, #25
 80092a6:	d5fb      	bpl.n	80092a0 <_printf_i+0x1c8>
 80092a8:	8019      	strh	r1, [r3, #0]
 80092aa:	2300      	movs	r3, #0
 80092ac:	6123      	str	r3, [r4, #16]
 80092ae:	4615      	mov	r5, r2
 80092b0:	e7ba      	b.n	8009228 <_printf_i+0x150>
 80092b2:	682b      	ldr	r3, [r5, #0]
 80092b4:	1d1a      	adds	r2, r3, #4
 80092b6:	602a      	str	r2, [r5, #0]
 80092b8:	681d      	ldr	r5, [r3, #0]
 80092ba:	6862      	ldr	r2, [r4, #4]
 80092bc:	2100      	movs	r1, #0
 80092be:	4628      	mov	r0, r5
 80092c0:	f7f6 ff8e 	bl	80001e0 <memchr>
 80092c4:	b108      	cbz	r0, 80092ca <_printf_i+0x1f2>
 80092c6:	1b40      	subs	r0, r0, r5
 80092c8:	6060      	str	r0, [r4, #4]
 80092ca:	6863      	ldr	r3, [r4, #4]
 80092cc:	6123      	str	r3, [r4, #16]
 80092ce:	2300      	movs	r3, #0
 80092d0:	f884 3043 	strb.w	r3, [r4, #67]	; 0x43
 80092d4:	e7a8      	b.n	8009228 <_printf_i+0x150>
 80092d6:	6923      	ldr	r3, [r4, #16]
 80092d8:	462a      	mov	r2, r5
 80092da:	4649      	mov	r1, r9
 80092dc:	4640      	mov	r0, r8
 80092de:	47d0      	blx	sl
 80092e0:	3001      	adds	r0, #1
 80092e2:	d0ab      	beq.n	800923c <_printf_i+0x164>
 80092e4:	6823      	ldr	r3, [r4, #0]
 80092e6:	079b      	lsls	r3, r3, #30
 80092e8:	d413      	bmi.n	8009312 <_printf_i+0x23a>
 80092ea:	68e0      	ldr	r0, [r4, #12]
 80092ec:	9b03      	ldr	r3, [sp, #12]
 80092ee:	4298      	cmp	r0, r3
 80092f0:	bfb8      	it	lt
 80092f2:	4618      	movlt	r0, r3
 80092f4:	e7a4      	b.n	8009240 <_printf_i+0x168>
 80092f6:	2301      	movs	r3, #1
 80092f8:	4632      	mov	r2, r6
 80092fa:	4649      	mov	r1, r9
 80092fc:	4640      	mov	r0, r8
 80092fe:	47d0      	blx	sl
 8009300:	3001      	adds	r0, #1
 8009302:	d09b      	beq.n	800923c <_printf_i+0x164>
 8009304:	3501      	adds	r5, #1
 8009306:	68e3      	ldr	r3, [r4, #12]
 8009308:	9903      	ldr	r1, [sp, #12]
 800930a:	1a5b      	subs	r3, r3, r1
 800930c:	42ab      	cmp	r3, r5
 800930e:	dcf2      	bgt.n	80092f6 <_printf_i+0x21e>
 8009310:	e7eb      	b.n	80092ea <_printf_i+0x212>
 8009312:	2500      	movs	r5, #0
 8009314:	f104 0619 	add.w	r6, r4, #25
 8009318:	e7f5      	b.n	8009306 <_printf_i+0x22e>
 800931a:	bf00      	nop
 800931c:	08009811 	.word	0x08009811
 8009320:	08009822 	.word	0x08009822

08009324 <memmove>:
 8009324:	4288      	cmp	r0, r1
 8009326:	b510      	push	{r4, lr}
 8009328:	eb01 0402 	add.w	r4, r1, r2
 800932c:	d902      	bls.n	8009334 <memmove+0x10>
 800932e:	4284      	cmp	r4, r0
 8009330:	4623      	mov	r3, r4
 8009332:	d807      	bhi.n	8009344 <memmove+0x20>
 8009334:	1e43      	subs	r3, r0, #1
 8009336:	42a1      	cmp	r1, r4
 8009338:	d008      	beq.n	800934c <memmove+0x28>
 800933a:	f811 2b01 	ldrb.w	r2, [r1], #1
 800933e:	f803 2f01 	strb.w	r2, [r3, #1]!
 8009342:	e7f8      	b.n	8009336 <memmove+0x12>
 8009344:	4402      	add	r2, r0
 8009346:	4601      	mov	r1, r0
 8009348:	428a      	cmp	r2, r1
 800934a:	d100      	bne.n	800934e <memmove+0x2a>
 800934c:	bd10      	pop	{r4, pc}
 800934e:	f813 4d01 	ldrb.w	r4, [r3, #-1]!
 8009352:	f802 4d01 	strb.w	r4, [r2, #-1]!
 8009356:	e7f7      	b.n	8009348 <memmove+0x24>

08009358 <_free_r>:
 8009358:	b537      	push	{r0, r1, r2, r4, r5, lr}
 800935a:	2900      	cmp	r1, #0
 800935c:	d044      	beq.n	80093e8 <_free_r+0x90>
 800935e:	f851 3c04 	ldr.w	r3, [r1, #-4]
 8009362:	9001      	str	r0, [sp, #4]
 8009364:	2b00      	cmp	r3, #0
 8009366:	f1a1 0404 	sub.w	r4, r1, #4
 800936a:	bfb8      	it	lt
 800936c:	18e4      	addlt	r4, r4, r3
 800936e:	f000 f913 	bl	8009598 <__malloc_lock>
 8009372:	4a1e      	ldr	r2, [pc, #120]	; (80093ec <_free_r+0x94>)
 8009374:	9801      	ldr	r0, [sp, #4]
 8009376:	6813      	ldr	r3, [r2, #0]
 8009378:	b933      	cbnz	r3, 8009388 <_free_r+0x30>
 800937a:	6063      	str	r3, [r4, #4]
 800937c:	6014      	str	r4, [r2, #0]
 800937e:	b003      	add	sp, #12
 8009380:	e8bd 4030 	ldmia.w	sp!, {r4, r5, lr}
 8009384:	f000 b90e 	b.w	80095a4 <__malloc_unlock>
 8009388:	42a3      	cmp	r3, r4
 800938a:	d908      	bls.n	800939e <_free_r+0x46>
 800938c:	6825      	ldr	r5, [r4, #0]
 800938e:	1961      	adds	r1, r4, r5
 8009390:	428b      	cmp	r3, r1
 8009392:	bf01      	itttt	eq
 8009394:	6819      	ldreq	r1, [r3, #0]
 8009396:	685b      	ldreq	r3, [r3, #4]
 8009398:	1949      	addeq	r1, r1, r5
 800939a:	6021      	streq	r1, [r4, #0]
 800939c:	e7ed      	b.n	800937a <_free_r+0x22>
 800939e:	461a      	mov	r2, r3
 80093a0:	685b      	ldr	r3, [r3, #4]
 80093a2:	b10b      	cbz	r3, 80093a8 <_free_r+0x50>
 80093a4:	42a3      	cmp	r3, r4
 80093a6:	d9fa      	bls.n	800939e <_free_r+0x46>
 80093a8:	6811      	ldr	r1, [r2, #0]
 80093aa:	1855      	adds	r5, r2, r1
 80093ac:	42a5      	cmp	r5, r4
 80093ae:	d10b      	bne.n	80093c8 <_free_r+0x70>
 80093b0:	6824      	ldr	r4, [r4, #0]
 80093b2:	4421      	add	r1, r4
 80093b4:	1854      	adds	r4, r2, r1
 80093b6:	42a3      	cmp	r3, r4
 80093b8:	6011      	str	r1, [r2, #0]
 80093ba:	d1e0      	bne.n	800937e <_free_r+0x26>
 80093bc:	681c      	ldr	r4, [r3, #0]
 80093be:	685b      	ldr	r3, [r3, #4]
 80093c0:	6053      	str	r3, [r2, #4]
 80093c2:	4421      	add	r1, r4
 80093c4:	6011      	str	r1, [r2, #0]
 80093c6:	e7da      	b.n	800937e <_free_r+0x26>
 80093c8:	d902      	bls.n	80093d0 <_free_r+0x78>
 80093ca:	230c      	movs	r3, #12
 80093cc:	6003      	str	r3, [r0, #0]
 80093ce:	e7d6      	b.n	800937e <_free_r+0x26>
 80093d0:	6825      	ldr	r5, [r4, #0]
 80093d2:	1961      	adds	r1, r4, r5
 80093d4:	428b      	cmp	r3, r1
 80093d6:	bf04      	itt	eq
 80093d8:	6819      	ldreq	r1, [r3, #0]
 80093da:	685b      	ldreq	r3, [r3, #4]
 80093dc:	6063      	str	r3, [r4, #4]
 80093de:	bf04      	itt	eq
 80093e0:	1949      	addeq	r1, r1, r5
 80093e2:	6021      	streq	r1, [r4, #0]
 80093e4:	6054      	str	r4, [r2, #4]
 80093e6:	e7ca      	b.n	800937e <_free_r+0x26>
 80093e8:	b003      	add	sp, #12
 80093ea:	bd30      	pop	{r4, r5, pc}
 80093ec:	200075f0 	.word	0x200075f0

080093f0 <sbrk_aligned>:
 80093f0:	b570      	push	{r4, r5, r6, lr}
 80093f2:	4e0e      	ldr	r6, [pc, #56]	; (800942c <sbrk_aligned+0x3c>)
 80093f4:	460c      	mov	r4, r1
 80093f6:	6831      	ldr	r1, [r6, #0]
 80093f8:	4605      	mov	r5, r0
 80093fa:	b911      	cbnz	r1, 8009402 <sbrk_aligned+0x12>
 80093fc:	f000 f8bc 	bl	8009578 <_sbrk_r>
 8009400:	6030      	str	r0, [r6, #0]
 8009402:	4621      	mov	r1, r4
 8009404:	4628      	mov	r0, r5
 8009406:	f000 f8b7 	bl	8009578 <_sbrk_r>
 800940a:	1c43      	adds	r3, r0, #1
 800940c:	d00a      	beq.n	8009424 <sbrk_aligned+0x34>
 800940e:	1cc4      	adds	r4, r0, #3
 8009410:	f024 0403 	bic.w	r4, r4, #3
 8009414:	42a0      	cmp	r0, r4
 8009416:	d007      	beq.n	8009428 <sbrk_aligned+0x38>
 8009418:	1a21      	subs	r1, r4, r0
 800941a:	4628      	mov	r0, r5
 800941c:	f000 f8ac 	bl	8009578 <_sbrk_r>
 8009420:	3001      	adds	r0, #1
 8009422:	d101      	bne.n	8009428 <sbrk_aligned+0x38>
 8009424:	f04f 34ff 	mov.w	r4, #4294967295
 8009428:	4620      	mov	r0, r4
 800942a:	bd70      	pop	{r4, r5, r6, pc}
 800942c:	200075f4 	.word	0x200075f4

08009430 <_malloc_r>:
 8009430:	e92d 41f0 	stmdb	sp!, {r4, r5, r6, r7, r8, lr}
 8009434:	1ccd      	adds	r5, r1, #3
 8009436:	f025 0503 	bic.w	r5, r5, #3
 800943a:	3508      	adds	r5, #8
 800943c:	2d0c      	cmp	r5, #12
 800943e:	bf38      	it	cc
 8009440:	250c      	movcc	r5, #12
 8009442:	2d00      	cmp	r5, #0
 8009444:	4607      	mov	r7, r0
 8009446:	db01      	blt.n	800944c <_malloc_r+0x1c>
 8009448:	42a9      	cmp	r1, r5
 800944a:	d905      	bls.n	8009458 <_malloc_r+0x28>
 800944c:	230c      	movs	r3, #12
 800944e:	603b      	str	r3, [r7, #0]
 8009450:	2600      	movs	r6, #0
 8009452:	4630      	mov	r0, r6
 8009454:	e8bd 81f0 	ldmia.w	sp!, {r4, r5, r6, r7, r8, pc}
 8009458:	4e2e      	ldr	r6, [pc, #184]	; (8009514 <_malloc_r+0xe4>)
 800945a:	f000 f89d 	bl	8009598 <__malloc_lock>
 800945e:	6833      	ldr	r3, [r6, #0]
 8009460:	461c      	mov	r4, r3
 8009462:	bb34      	cbnz	r4, 80094b2 <_malloc_r+0x82>
 8009464:	4629      	mov	r1, r5
 8009466:	4638      	mov	r0, r7
 8009468:	f7ff ffc2 	bl	80093f0 <sbrk_aligned>
 800946c:	1c43      	adds	r3, r0, #1
 800946e:	4604      	mov	r4, r0
 8009470:	d14d      	bne.n	800950e <_malloc_r+0xde>
 8009472:	6834      	ldr	r4, [r6, #0]
 8009474:	4626      	mov	r6, r4
 8009476:	2e00      	cmp	r6, #0
 8009478:	d140      	bne.n	80094fc <_malloc_r+0xcc>
 800947a:	6823      	ldr	r3, [r4, #0]
 800947c:	4631      	mov	r1, r6
 800947e:	4638      	mov	r0, r7
 8009480:	eb04 0803 	add.w	r8, r4, r3
 8009484:	f000 f878 	bl	8009578 <_sbrk_r>
 8009488:	4580      	cmp	r8, r0
 800948a:	d13a      	bne.n	8009502 <_malloc_r+0xd2>
 800948c:	6821      	ldr	r1, [r4, #0]
 800948e:	3503      	adds	r5, #3
 8009490:	1a6d      	subs	r5, r5, r1
 8009492:	f025 0503 	bic.w	r5, r5, #3
 8009496:	3508      	adds	r5, #8
 8009498:	2d0c      	cmp	r5, #12
 800949a:	bf38      	it	cc
 800949c:	250c      	movcc	r5, #12
 800949e:	4629      	mov	r1, r5
 80094a0:	4638      	mov	r0, r7
 80094a2:	f7ff ffa5 	bl	80093f0 <sbrk_aligned>
 80094a6:	3001      	adds	r0, #1
 80094a8:	d02b      	beq.n	8009502 <_malloc_r+0xd2>
 80094aa:	6823      	ldr	r3, [r4, #0]
 80094ac:	442b      	add	r3, r5
 80094ae:	6023      	str	r3, [r4, #0]
 80094b0:	e00e      	b.n	80094d0 <_malloc_r+0xa0>
 80094b2:	6822      	ldr	r2, [r4, #0]
 80094b4:	1b52      	subs	r2, r2, r5
 80094b6:	d41e      	bmi.n	80094f6 <_malloc_r+0xc6>
 80094b8:	2a0b      	cmp	r2, #11
 80094ba:	d916      	bls.n	80094ea <_malloc_r+0xba>
 80094bc:	1961      	adds	r1, r4, r5
 80094be:	42a3      	cmp	r3, r4
 80094c0:	6025      	str	r5, [r4, #0]
 80094c2:	bf18      	it	ne
 80094c4:	6059      	strne	r1, [r3, #4]
 80094c6:	6863      	ldr	r3, [r4, #4]
 80094c8:	bf08      	it	eq
 80094ca:	6031      	streq	r1, [r6, #0]
 80094cc:	5162      	str	r2, [r4, r5]
 80094ce:	604b      	str	r3, [r1, #4]
 80094d0:	4638      	mov	r0, r7
 80094d2:	f104 060b 	add.w	r6, r4, #11
 80094d6:	f000 f865 	bl	80095a4 <__malloc_unlock>
 80094da:	f026 0607 	bic.w	r6, r6, #7
 80094de:	1d23      	adds	r3, r4, #4
 80094e0:	1af2      	subs	r2, r6, r3
 80094e2:	d0b6      	beq.n	8009452 <_malloc_r+0x22>
 80094e4:	1b9b      	subs	r3, r3, r6
 80094e6:	50a3      	str	r3, [r4, r2]
 80094e8:	e7b3      	b.n	8009452 <_malloc_r+0x22>
 80094ea:	6862      	ldr	r2, [r4, #4]
 80094ec:	42a3      	cmp	r3, r4
 80094ee:	bf0c      	ite	eq
 80094f0:	6032      	streq	r2, [r6, #0]
 80094f2:	605a      	strne	r2, [r3, #4]
 80094f4:	e7ec      	b.n	80094d0 <_malloc_r+0xa0>
 80094f6:	4623      	mov	r3, r4
 80094f8:	6864      	ldr	r4, [r4, #4]
 80094fa:	e7b2      	b.n	8009462 <_malloc_r+0x32>
 80094fc:	4634      	mov	r4, r6
 80094fe:	6876      	ldr	r6, [r6, #4]
 8009500:	e7b9      	b.n	8009476 <_malloc_r+0x46>
 8009502:	230c      	movs	r3, #12
 8009504:	603b      	str	r3, [r7, #0]
 8009506:	4638      	mov	r0, r7
 8009508:	f000 f84c 	bl	80095a4 <__malloc_unlock>
 800950c:	e7a1      	b.n	8009452 <_malloc_r+0x22>
 800950e:	6025      	str	r5, [r4, #0]
 8009510:	e7de      	b.n	80094d0 <_malloc_r+0xa0>
 8009512:	bf00      	nop
 8009514:	200075f0 	.word	0x200075f0

08009518 <_realloc_r>:
 8009518:	e92d 41f0 	stmdb	sp!, {r4, r5, r6, r7, r8, lr}
 800951c:	4680      	mov	r8, r0
 800951e:	4614      	mov	r4, r2
 8009520:	460e      	mov	r6, r1
 8009522:	b921      	cbnz	r1, 800952e <_realloc_r+0x16>
 8009524:	e8bd 41f0 	ldmia.w	sp!, {r4, r5, r6, r7, r8, lr}
 8009528:	4611      	mov	r1, r2
 800952a:	f7ff bf81 	b.w	8009430 <_malloc_r>
 800952e:	b92a      	cbnz	r2, 800953c <_realloc_r+0x24>
 8009530:	f7ff ff12 	bl	8009358 <_free_r>
 8009534:	4625      	mov	r5, r4
 8009536:	4628      	mov	r0, r5
 8009538:	e8bd 81f0 	ldmia.w	sp!, {r4, r5, r6, r7, r8, pc}
 800953c:	f000 f838 	bl	80095b0 <_malloc_usable_size_r>
 8009540:	4284      	cmp	r4, r0
 8009542:	4607      	mov	r7, r0
 8009544:	d802      	bhi.n	800954c <_realloc_r+0x34>
 8009546:	ebb4 0f50 	cmp.w	r4, r0, lsr #1
 800954a:	d812      	bhi.n	8009572 <_realloc_r+0x5a>
 800954c:	4621      	mov	r1, r4
 800954e:	4640      	mov	r0, r8
 8009550:	f7ff ff6e 	bl	8009430 <_malloc_r>
 8009554:	4605      	mov	r5, r0
 8009556:	2800      	cmp	r0, #0
 8009558:	d0ed      	beq.n	8009536 <_realloc_r+0x1e>
 800955a:	42bc      	cmp	r4, r7
 800955c:	4622      	mov	r2, r4
 800955e:	4631      	mov	r1, r6
 8009560:	bf28      	it	cs
 8009562:	463a      	movcs	r2, r7
 8009564:	f7ff fba4 	bl	8008cb0 <memcpy>
 8009568:	4631      	mov	r1, r6
 800956a:	4640      	mov	r0, r8
 800956c:	f7ff fef4 	bl	8009358 <_free_r>
 8009570:	e7e1      	b.n	8009536 <_realloc_r+0x1e>
 8009572:	4635      	mov	r5, r6
 8009574:	e7df      	b.n	8009536 <_realloc_r+0x1e>
	...

08009578 <_sbrk_r>:
 8009578:	b538      	push	{r3, r4, r5, lr}
 800957a:	4d06      	ldr	r5, [pc, #24]	; (8009594 <_sbrk_r+0x1c>)
 800957c:	2300      	movs	r3, #0
 800957e:	4604      	mov	r4, r0
 8009580:	4608      	mov	r0, r1
 8009582:	602b      	str	r3, [r5, #0]
 8009584:	f7f7 fe54 	bl	8001230 <_sbrk>
 8009588:	1c43      	adds	r3, r0, #1
 800958a:	d102      	bne.n	8009592 <_sbrk_r+0x1a>
 800958c:	682b      	ldr	r3, [r5, #0]
 800958e:	b103      	cbz	r3, 8009592 <_sbrk_r+0x1a>
 8009590:	6023      	str	r3, [r4, #0]
 8009592:	bd38      	pop	{r3, r4, r5, pc}
 8009594:	200075f8 	.word	0x200075f8

08009598 <__malloc_lock>:
 8009598:	4801      	ldr	r0, [pc, #4]	; (80095a0 <__malloc_lock+0x8>)
 800959a:	f000 b811 	b.w	80095c0 <__retarget_lock_acquire_recursive>
 800959e:	bf00      	nop
 80095a0:	200075fc 	.word	0x200075fc

080095a4 <__malloc_unlock>:
 80095a4:	4801      	ldr	r0, [pc, #4]	; (80095ac <__malloc_unlock+0x8>)
 80095a6:	f000 b80c 	b.w	80095c2 <__retarget_lock_release_recursive>
 80095aa:	bf00      	nop
 80095ac:	200075fc 	.word	0x200075fc

080095b0 <_malloc_usable_size_r>:
 80095b0:	f851 3c04 	ldr.w	r3, [r1, #-4]
 80095b4:	1f18      	subs	r0, r3, #4
 80095b6:	2b00      	cmp	r3, #0
 80095b8:	bfbc      	itt	lt
 80095ba:	580b      	ldrlt	r3, [r1, r0]
 80095bc:	18c0      	addlt	r0, r0, r3
 80095be:	4770      	bx	lr

080095c0 <__retarget_lock_acquire_recursive>:
 80095c0:	4770      	bx	lr

080095c2 <__retarget_lock_release_recursive>:
 80095c2:	4770      	bx	lr

080095c4 <_init>:
 80095c4:	b5f8      	push	{r3, r4, r5, r6, r7, lr}
 80095c6:	bf00      	nop
 80095c8:	bcf8      	pop	{r3, r4, r5, r6, r7}
 80095ca:	bc08      	pop	{r3}
 80095cc:	469e      	mov	lr, r3
 80095ce:	4770      	bx	lr

080095d0 <_fini>:
 80095d0:	b5f8      	push	{r3, r4, r5, r6, r7, lr}
 80095d2:	bf00      	nop
 80095d4:	bcf8      	pop	{r3, r4, r5, r6, r7}
 80095d6:	bc08      	pop	{r3}
 80095d8:	469e      	mov	lr, r3
 80095da:	4770      	bx	lr
