
F411_chunithm_15.6.elf:     file format elf32-littlearm

Sections:
Idx Name          Size      VMA       LMA       File off  Algn
  0 .isr_vector   00000198  08000000  08000000  00010000  2**0
                  CONTENTS, ALLOC, LOAD, READONLY, DATA
  1 .text         000068e0  080001a0  080001a0  000101a0  2**4
                  CONTENTS, ALLOC, LOAD, READONLY, CODE
  2 .rodata       000001e0  08006a80  08006a80  00016a80  2**2
                  CONTENTS, ALLOC, LOAD, READONLY, DATA
  3 .ARM.extab    00000000  08006c60  08006c60  00020238  2**0
                  CONTENTS
  4 .ARM          00000008  08006c60  08006c60  00016c60  2**2
                  CONTENTS, ALLOC, LOAD, READONLY, DATA
  5 .preinit_array 00000000  08006c68  08006c68  00020238  2**0
                  CONTENTS, ALLOC, LOAD, DATA
  6 .init_array   00000004  08006c68  08006c68  00016c68  2**2
                  CONTENTS, ALLOC, LOAD, DATA
  7 .fini_array   00000004  08006c6c  08006c6c  00016c6c  2**2
                  CONTENTS, ALLOC, LOAD, DATA
  8 .data         00000238  20000000  08006c70  00020000  2**2
                  CONTENTS, ALLOC, LOAD, DATA
  9 .bss          00005808  20000238  08006ea8  00020238  2**2
                  ALLOC
 10 ._user_heap_stack 00000600  20005a40  08006ea8  00025a40  2**0
                  ALLOC
 11 .ARM.attributes 00000030  00000000  00000000  00020238  2**0
                  CONTENTS, READONLY
 12 .comment      00000050  00000000  00000000  00020268  2**0
                  CONTENTS, READONLY
 13 .debug_frame  000004d0  00000000  00000000  000202b8  2**2
                  CONTENTS, READONLY, DEBUGGING, OCTETS

Disassembly of section .text:

080001a0 <__do_global_dtors_aux>:
 80001a0:	b510      	push	{r4, lr}
 80001a2:	4c05      	ldr	r4, [pc, #20]	; (80001b8 <__do_global_dtors_aux+0x18>)
 80001a4:	7823      	ldrb	r3, [r4, #0]
 80001a6:	b933      	cbnz	r3, 80001b6 <__do_global_dtors_aux+0x16>
 80001a8:	4b04      	ldr	r3, [pc, #16]	; (80001bc <__do_global_dtors_aux+0x1c>)
 80001aa:	b113      	cbz	r3, 80001b2 <__do_global_dtors_aux+0x12>
 80001ac:	4804      	ldr	r0, [pc, #16]	; (80001c0 <__do_global_dtors_aux+0x20>)
 80001ae:	f3af 8000 	nop.w
 80001b2:	2301      	movs	r3, #1
 80001b4:	7023      	strb	r3, [r4, #0]
 80001b6:	bd10      	pop	{r4, pc}
 80001b8:	20000238 	.word	0x20000238
 80001bc:	00000000 	.word	0x00000000
 80001c0:	08006a68 	.word	0x08006a68

080001c4 <frame_dummy>:
 80001c4:	b508      	push	{r3, lr}
 80001c6:	4b03      	ldr	r3, [pc, #12]	; (80001d4 <frame_dummy+0x10>)
 80001c8:	b11b      	cbz	r3, 80001d2 <frame_dummy+0xe>
 80001ca:	4903      	ldr	r1, [pc, #12]	; (80001d8 <frame_dummy+0x14>)
 80001cc:	4803      	ldr	r0, [pc, #12]	; (80001dc <frame_dummy+0x18>)
 80001ce:	f3af 8000 	nop.w
 80001d2:	bd08      	pop	{r3, pc}
 80001d4:	00000000 	.word	0x00000000
 80001d8:	2000023c 	.word	0x2000023c
 80001dc:	08006a68 	.word	0x08006a68

080001e0 <memchr>:
 80001e0:	f001 01ff 	and.w	r1, r1, #255	; 0xff
 80001e4:	2a10      	cmp	r2, #16
 80001e6:	db2b      	blt.n	8000240 <memchr+0x60>
 80001e8:	f010 0f07 	tst.w	r0, #7
 80001ec:	d008      	beq.n	8000200 <memchr+0x20>
 80001ee:	f810 3b01 	ldrb.w	r3, [r0], #1
 80001f2:	3a01      	subs	r2, #1
 80001f4:	428b      	cmp	r3, r1
 80001f6:	d02d      	beq.n	8000254 <memchr+0x74>
 80001f8:	f010 0f07 	tst.w	r0, #7
 80001fc:	b342      	cbz	r2, 8000250 <memchr+0x70>
 80001fe:	d1f6      	bne.n	80001ee <memchr+0xe>
 8000200:	b4f0      	push	{r4, r5, r6, r7}
 8000202:	ea41 2101 	orr.w	r1, r1, r1, lsl #8
 8000206:	ea41 4101 	orr.w	r1, r1, r1, lsl #16
 800020a:	f022 0407 	bic.w	r4, r2, #7
 800020e:	f07f 0700 	mvns.w	r7, #0
 8000212:	2300      	movs	r3, #0
 8000214:	e8f0 5602 	ldrd	r5, r6, [r0], #8
 8000218:	3c08      	subs	r4, #8
 800021a:	ea85 0501 	eor.w	r5, r5, r1
 800021e:	ea86 0601 	eor.w	r6, r6, r1
 8000222:	fa85 f547 	uadd8	r5, r5, r7
 8000226:	faa3 f587 	sel	r5, r3, r7
 800022a:	fa86 f647 	uadd8	r6, r6, r7
 800022e:	faa5 f687 	sel	r6, r5, r7
 8000232:	b98e      	cbnz	r6, 8000258 <memchr+0x78>
 8000234:	d1ee      	bne.n	8000214 <memchr+0x34>
 8000236:	bcf0      	pop	{r4, r5, r6, r7}
 8000238:	f001 01ff 	and.w	r1, r1, #255	; 0xff
 800023c:	f002 0207 	and.w	r2, r2, #7
 8000240:	b132      	cbz	r2, 8000250 <memchr+0x70>
 8000242:	f810 3b01 	ldrb.w	r3, [r0], #1
 8000246:	3a01      	subs	r2, #1
 8000248:	ea83 0301 	eor.w	r3, r3, r1
 800024c:	b113      	cbz	r3, 8000254 <memchr+0x74>
 800024e:	d1f8      	bne.n	8000242 <memchr+0x62>
 8000250:	2000      	movs	r0, #0
 8000252:	4770      	bx	lr
 8000254:	3801      	subs	r0, #1
 8000256:	4770      	bx	lr
 8000258:	2d00      	cmp	r5, #0
 800025a:	bf06      	itte	eq
 800025c:	4635      	moveq	r5, r6
 800025e:	3803      	subeq	r0, #3
 8000260:	3807      	subne	r0, #7
 8000262:	f015 0f01 	tst.w	r5, #1
 8000266:	d107      	bne.n	8000278 <memchr+0x98>
 8000268:	3001      	adds	r0, #1
 800026a:	f415 7f80 	tst.w	r5, #256	; 0x100
 800026e:	bf02      	ittt	eq
 8000270:	3001      	addeq	r0, #1
 8000272:	f415 3fc0 	tsteq.w	r5, #98304	; 0x18000
 8000276:	3001      	addeq	r0, #1
 8000278:	bcf0      	pop	{r4, r5, r6, r7}
 800027a:	3801      	subs	r0, #1
 800027c:	4770      	bx	lr
 800027e:	bf00      	nop

08000280 <__aeabi_uldivmod>:
 8000280:	b953      	cbnz	r3, 8000298 <__aeabi_uldivmod+0x18>
 8000282:	b94a      	cbnz	r2, 8000298 <__aeabi_uldivmod+0x18>
 8000284:	2900      	cmp	r1, #0
 8000286:	bf08      	it	eq
 8000288:	2800      	cmpeq	r0, #0
 800028a:	bf1c      	itt	ne
 800028c:	f04f 31ff 	movne.w	r1, #4294967295
 8000290:	f04f 30ff 	movne.w	r0, #4294967295
 8000294:	f000 b974 	b.w	8000580 <__aeabi_idiv0>
 8000298:	f1ad 0c08 	sub.w	ip, sp, #8
 800029c:	e96d ce04 	strd	ip, lr, [sp, #-16]!
 80002a0:	f000 f806 	bl	80002b0 <__udivmoddi4>
 80002a4:	f8dd e004 	ldr.w	lr, [sp, #4]
 80002a8:	e9dd 2302 	ldrd	r2, r3, [sp, #8]
 80002ac:	b004      	add	sp, #16
 80002ae:	4770      	bx	lr

080002b0 <__udivmoddi4>:
 80002b0:	e92d 47f0 	stmdb	sp!, {r4, r5, r6, r7, r8, r9, sl, lr}
 80002b4:	9d08      	ldr	r5, [sp, #32]
 80002b6:	4604      	mov	r4, r0
 80002b8:	468e      	mov	lr, r1
 80002ba:	2b00      	cmp	r3, #0
 80002bc:	d14d      	bne.n	800035a <__udivmoddi4+0xaa>
 80002be:	428a      	cmp	r2, r1
 80002c0:	4694      	mov	ip, r2
 80002c2:	d969      	bls.n	8000398 <__udivmoddi4+0xe8>
 80002c4:	fab2 f282 	clz	r2, r2
 80002c8:	b152      	cbz	r2, 80002e0 <__udivmoddi4+0x30>
 80002ca:	fa01 f302 	lsl.w	r3, r1, r2
 80002ce:	f1c2 0120 	rsb	r1, r2, #32
 80002d2:	fa20 f101 	lsr.w	r1, r0, r1
 80002d6:	fa0c fc02 	lsl.w	ip, ip, r2
 80002da:	ea41 0e03 	orr.w	lr, r1, r3
 80002de:	4094      	lsls	r4, r2
 80002e0:	ea4f 481c 	mov.w	r8, ip, lsr #16
 80002e4:	0c21      	lsrs	r1, r4, #16
 80002e6:	fbbe f6f8 	udiv	r6, lr, r8
 80002ea:	fa1f f78c 	uxth.w	r7, ip
 80002ee:	fb08 e316 	mls	r3, r8, r6, lr
 80002f2:	ea41 4303 	orr.w	r3, r1, r3, lsl #16
 80002f6:	fb06 f107 	mul.w	r1, r6, r7
 80002fa:	4299      	cmp	r1, r3
 80002fc:	d90a      	bls.n	8000314 <__udivmoddi4+0x64>
 80002fe:	eb1c 0303 	adds.w	r3, ip, r3
 8000302:	f106 30ff 	add.w	r0, r6, #4294967295
 8000306:	f080 811f 	bcs.w	8000548 <__udivmoddi4+0x298>
 800030a:	4299      	cmp	r1, r3
 800030c:	f240 811c 	bls.w	8000548 <__udivmoddi4+0x298>
 8000310:	3e02      	subs	r6, #2
 8000312:	4463      	add	r3, ip
 8000314:	1a5b      	subs	r3, r3, r1
 8000316:	b2a4      	uxth	r4, r4
 8000318:	fbb3 f0f8 	udiv	r0, r3, r8
 800031c:	fb08 3310 	mls	r3, r8, r0, r3
 8000320:	ea44 4403 	orr.w	r4, r4, r3, lsl #16
 8000324:	fb00 f707 	mul.w	r7, r0, r7
 8000328:	42a7      	cmp	r7, r4
 800032a:	d90a      	bls.n	8000342 <__udivmoddi4+0x92>
 800032c:	eb1c 0404 	adds.w	r4, ip, r4
 8000330:	f100 33ff 	add.w	r3, r0, #4294967295
 8000334:	f080 810a 	bcs.w	800054c <__udivmoddi4+0x29c>
 8000338:	42a7      	cmp	r7, r4
 800033a:	f240 8107 	bls.w	800054c <__udivmoddi4+0x29c>
 800033e:	4464      	add	r4, ip
 8000340:	3802      	subs	r0, #2
 8000342:	ea40 4006 	orr.w	r0, r0, r6, lsl #16
 8000346:	1be4      	subs	r4, r4, r7
 8000348:	2600      	movs	r6, #0
 800034a:	b11d      	cbz	r5, 8000354 <__udivmoddi4+0xa4>
 800034c:	40d4      	lsrs	r4, r2
 800034e:	2300      	movs	r3, #0
 8000350:	e9c5 4300 	strd	r4, r3, [r5]
 8000354:	4631      	mov	r1, r6
 8000356:	e8bd 87f0 	ldmia.w	sp!, {r4, r5, r6, r7, r8, r9, sl, pc}
 800035a:	428b      	cmp	r3, r1
 800035c:	d909      	bls.n	8000372 <__udivmoddi4+0xc2>
 800035e:	2d00      	cmp	r5, #0
 8000360:	f000 80ef 	beq.w	8000542 <__udivmoddi4+0x292>
 8000364:	2600      	movs	r6, #0
 8000366:	e9c5 0100 	strd	r0, r1, [r5]
 800036a:	4630      	mov	r0, r6
 800036c:	4631      	mov	r1, r6
 800036e:	e8bd 87f0 	ldmia.w	sp!, {r4, r5, r6, r7, r8, r9, sl, pc}
 8000372:	fab3 f683 	clz	r6, r3
 8000376:	2e00      	cmp	r6, #0
 8000378:	d14a      	bne.n	8000410 <__udivmoddi4+0x160>
 800037a:	428b      	cmp	r3, r1
 800037c:	d302      	bcc.n	8000384 <__udivmoddi4+0xd4>
 800037e:	4282      	cmp	r2, r0
 8000380:	f200 80f9 	bhi.w	8000576 <__udivmoddi4+0x2c6>
 8000384:	1a84      	subs	r4, r0, r2
 8000386:	eb61 0303 	sbc.w	r3, r1, r3
 800038a:	2001      	movs	r0, #1
 800038c:	469e      	mov	lr, r3
 800038e:	2d00      	cmp	r5, #0
 8000390:	d0e0      	beq.n	8000354 <__udivmoddi4+0xa4>
 8000392:	e9c5 4e00 	strd	r4, lr, [r5]
 8000396:	e7dd      	b.n	8000354 <__udivmoddi4+0xa4>
 8000398:	b902      	cbnz	r2, 800039c <__udivmoddi4+0xec>
 800039a:	deff      	udf	#255	; 0xff
 800039c:	fab2 f282 	clz	r2, r2
 80003a0:	2a00      	cmp	r2, #0
 80003a2:	f040 8092 	bne.w	80004ca <__udivmoddi4+0x21a>
 80003a6:	eba1 010c 	sub.w	r1, r1, ip
 80003aa:	ea4f 471c 	mov.w	r7, ip, lsr #16
 80003ae:	fa1f fe8c 	uxth.w	lr, ip
 80003b2:	2601      	movs	r6, #1
 80003b4:	0c20      	lsrs	r0, r4, #16
 80003b6:	fbb1 f3f7 	udiv	r3, r1, r7
 80003ba:	fb07 1113 	mls	r1, r7, r3, r1
 80003be:	ea40 4101 	orr.w	r1, r0, r1, lsl #16
 80003c2:	fb0e f003 	mul.w	r0, lr, r3
 80003c6:	4288      	cmp	r0, r1
 80003c8:	d908      	bls.n	80003dc <__udivmoddi4+0x12c>
 80003ca:	eb1c 0101 	adds.w	r1, ip, r1
 80003ce:	f103 38ff 	add.w	r8, r3, #4294967295
 80003d2:	d202      	bcs.n	80003da <__udivmoddi4+0x12a>
 80003d4:	4288      	cmp	r0, r1
 80003d6:	f200 80cb 	bhi.w	8000570 <__udivmoddi4+0x2c0>
 80003da:	4643      	mov	r3, r8
 80003dc:	1a09      	subs	r1, r1, r0
 80003de:	b2a4      	uxth	r4, r4
 80003e0:	fbb1 f0f7 	udiv	r0, r1, r7
 80003e4:	fb07 1110 	mls	r1, r7, r0, r1
 80003e8:	ea44 4401 	orr.w	r4, r4, r1, lsl #16
 80003ec:	fb0e fe00 	mul.w	lr, lr, r0
 80003f0:	45a6      	cmp	lr, r4
 80003f2:	d908      	bls.n	8000406 <__udivmoddi4+0x156>
 80003f4:	eb1c 0404 	adds.w	r4, ip, r4
 80003f8:	f100 31ff 	add.w	r1, r0, #4294967295
 80003fc:	d202      	bcs.n	8000404 <__udivmoddi4+0x154>
 80003fe:	45a6      	cmp	lr, r4
 8000400:	f200 80bb 	bhi.w	800057a <__udivmoddi4+0x2ca>
 8000404:	4608      	mov	r0, r1
 8000406:	eba4 040e 	sub.w	r4, r4, lr
 800040a:	ea40 4003 	orr.w	r0, r0, r3, lsl #16
 800040e:	e79c      	b.n	800034a <__udivmoddi4+0x9a>
 8000410:	f1c6 0720 	rsb	r7, r6, #32
 8000414:	40b3      	lsls	r3, r6
 8000416:	fa22 fc07 	lsr.w	ip, r2, r7
 800041a:	ea4c 0c03 	orr.w	ip, ip, r3
 800041e:	fa20 f407 	lsr.w	r4, r0, r7
 8000422:	fa01 f306 	lsl.w	r3, r1, r6
 8000426:	431c      	orrs	r4, r3
 8000428:	40f9      	lsrs	r1, r7
 800042a:	ea4f 491c 	mov.w	r9, ip, lsr #16
 800042e:	fa00 f306 	lsl.w	r3, r0, r6
 8000432:	fbb1 f8f9 	udiv	r8, r1, r9
 8000436:	0c20      	lsrs	r0, r4, #16
 8000438:	fa1f fe8c 	uxth.w	lr, ip
 800043c:	fb09 1118 	mls	r1, r9, r8, r1
 8000440:	ea40 4101 	orr.w	r1, r0, r1, lsl #16
 8000444:	fb08 f00e 	mul.w	r0, r8, lr
 8000448:	4288      	cmp	r0, r1
 800044a:	fa02 f206 	lsl.w	r2, r2, r6
 800044e:	d90b      	bls.n	8000468 <__udivmoddi4+0x1b8>
 8000450:	eb1c 0101 	adds.w	r1, ip, r1
 8000454:	f108 3aff 	add.w	sl, r8, #4294967295
 8000458:	f080 8088 	bcs.w	800056c <__udivmoddi4+0x2bc>
 800045c:	4288      	cmp	r0, r1
 800045e:	f240 8085 	bls.w	800056c <__udivmoddi4+0x2bc>
 8000462:	f1a8 0802 	sub.w	r8, r8, #2
 8000466:	4461      	add	r1, ip
 8000468:	1a09      	subs	r1, r1, r0
 800046a:	b2a4      	uxth	r4, r4
 800046c:	fbb1 f0f9 	udiv	r0, r1, r9
 8000470:	fb09 1110 	mls	r1, r9, r0, r1
 8000474:	ea44 4101 	orr.w	r1, r4, r1, lsl #16
 8000478:	fb00 fe0e 	mul.w	lr, r0, lr
 800047c:	458e      	cmp	lr, r1
 800047e:	d908      	bls.n	8000492 <__udivmoddi4+0x1e2>
 8000480:	eb1c 0101 	adds.w	r1, ip, r1
 8000484:	f100 34ff 	add.w	r4, r0, #4294967295
 8000488:	d26c      	bcs.n	8000564 <__udivmoddi4+0x2b4>
 800048a:	458e      	cmp	lr, r1
 800048c:	d96a      	bls.n	8000564 <__udivmoddi4+0x2b4>
 800048e:	3802      	subs	r0, #2
 8000490:	4461      	add	r1, ip
 8000492:	ea40 4008 	orr.w	r0, r0, r8, lsl #16
 8000496:	fba0 9402 	umull	r9, r4, r0, r2
 800049a:	eba1 010e 	sub.w	r1, r1, lr
 800049e:	42a1      	cmp	r1, r4
 80004a0:	46c8      	mov	r8, r9
 80004a2:	46a6      	mov	lr, r4
 80004a4:	d356      	bcc.n	8000554 <__udivmoddi4+0x2a4>
 80004a6:	d053      	beq.n	8000550 <__udivmoddi4+0x2a0>
 80004a8:	b15d      	cbz	r5, 80004c2 <__udivmoddi4+0x212>
 80004aa:	ebb3 0208 	subs.w	r2, r3, r8
 80004ae:	eb61 010e 	sbc.w	r1, r1, lr
 80004b2:	fa01 f707 	lsl.w	r7, r1, r7
 80004b6:	fa22 f306 	lsr.w	r3, r2, r6
 80004ba:	40f1      	lsrs	r1, r6
 80004bc:	431f      	orrs	r7, r3
 80004be:	e9c5 7100 	strd	r7, r1, [r5]
 80004c2:	2600      	movs	r6, #0
 80004c4:	4631      	mov	r1, r6
 80004c6:	e8bd 87f0 	ldmia.w	sp!, {r4, r5, r6, r7, r8, r9, sl, pc}
 80004ca:	f1c2 0320 	rsb	r3, r2, #32
 80004ce:	40d8      	lsrs	r0, r3
 80004d0:	fa0c fc02 	lsl.w	ip, ip, r2
 80004d4:	fa21 f303 	lsr.w	r3, r1, r3
 80004d8:	4091      	lsls	r1, r2
 80004da:	4301      	orrs	r1, r0
 80004dc:	ea4f 471c 	mov.w	r7, ip, lsr #16
 80004e0:	fa1f fe8c 	uxth.w	lr, ip
 80004e4:	fbb3 f0f7 	udiv	r0, r3, r7
 80004e8:	fb07 3610 	mls	r6, r7, r0, r3
 80004ec:	0c0b      	lsrs	r3, r1, #16
 80004ee:	ea43 4306 	orr.w	r3, r3, r6, lsl #16
 80004f2:	fb00 f60e 	mul.w	r6, r0, lr
 80004f6:	429e      	cmp	r6, r3
 80004f8:	fa04 f402 	lsl.w	r4, r4, r2
 80004fc:	d908      	bls.n	8000510 <__udivmoddi4+0x260>
 80004fe:	eb1c 0303 	adds.w	r3, ip, r3
 8000502:	f100 38ff 	add.w	r8, r0, #4294967295
 8000506:	d22f      	bcs.n	8000568 <__udivmoddi4+0x2b8>
 8000508:	429e      	cmp	r6, r3
 800050a:	d92d      	bls.n	8000568 <__udivmoddi4+0x2b8>
 800050c:	3802      	subs	r0, #2
 800050e:	4463      	add	r3, ip
 8000510:	1b9b      	subs	r3, r3, r6
 8000512:	b289      	uxth	r1, r1
 8000514:	fbb3 f6f7 	udiv	r6, r3, r7
 8000518:	fb07 3316 	mls	r3, r7, r6, r3
 800051c:	ea41 4103 	orr.w	r1, r1, r3, lsl #16
 8000520:	fb06 f30e 	mul.w	r3, r6, lr
 8000524:	428b      	cmp	r3, r1
 8000526:	d908      	bls.n	800053a <__udivmoddi4+0x28a>
 8000528:	eb1c 0101 	adds.w	r1, ip, r1
 800052c:	f106 38ff 	add.w	r8, r6, #4294967295
 8000530:	d216      	bcs.n	8000560 <__udivmoddi4+0x2b0>
 8000532:	428b      	cmp	r3, r1
 8000534:	d914      	bls.n	8000560 <__udivmoddi4+0x2b0>
 8000536:	3e02      	subs	r6, #2
 8000538:	4461      	add	r1, ip
 800053a:	1ac9      	subs	r1, r1, r3
 800053c:	ea46 4600 	orr.w	r6, r6, r0, lsl #16
 8000540:	e738      	b.n	80003b4 <__udivmoddi4+0x104>
 8000542:	462e      	mov	r6, r5
 8000544:	4628      	mov	r0, r5
 8000546:	e705      	b.n	8000354 <__udivmoddi4+0xa4>
 8000548:	4606      	mov	r6, r0
 800054a:	e6e3      	b.n	8000314 <__udivmoddi4+0x64>
 800054c:	4618      	mov	r0, r3
 800054e:	e6f8      	b.n	8000342 <__udivmoddi4+0x92>
 8000550:	454b      	cmp	r3, r9
 8000552:	d2a9      	bcs.n	80004a8 <__udivmoddi4+0x1f8>
 8000554:	ebb9 0802 	subs.w	r8, r9, r2
 8000558:	eb64 0e0c 	sbc.w	lr, r4, ip
 800055c:	3801      	subs	r0, #1
 800055e:	e7a3      	b.n	80004a8 <__udivmoddi4+0x1f8>
 8000560:	4646      	mov	r6, r8
 8000562:	e7ea      	b.n	800053a <__udivmoddi4+0x28a>
 8000564:	4620      	mov	r0, r4
 8000566:	e794      	b.n	8000492 <__udivmoddi4+0x1e2>
 8000568:	4640      	mov	r0, r8
 800056a:	e7d1      	b.n	8000510 <__udivmoddi4+0x260>
 800056c:	46d0      	mov	r8, sl
 800056e:	e77b      	b.n	8000468 <__udivmoddi4+0x1b8>
 8000570:	3b02      	subs	r3, #2
 8000572:	4461      	add	r1, ip
 8000574:	e732      	b.n	80003dc <__udivmoddi4+0x12c>
 8000576:	4630      	mov	r0, r6
 8000578:	e709      	b.n	800038e <__udivmoddi4+0xde>
 800057a:	4464      	add	r4, ip
 800057c:	3802      	subs	r0, #2
 800057e:	e742      	b.n	8000406 <__udivmoddi4+0x156>

08000580 <__aeabi_idiv0>:
 8000580:	4770      	bx	lr
 8000582:	bf00      	nop

08000584 <key_scan>:
 8000584:	e92d 47ff 	stmdb	sp!, {r0, r1, r2, r3, r4, r5, r6, r7, r8, r9, sl, lr}
 8000588:	4f1b      	ldr	r7, [pc, #108]	; (80005f8 <key_scan+0x74>)
 800058a:	4d1c      	ldr	r5, [pc, #112]	; (80005fc <key_scan+0x78>)
 800058c:	f8df 8074 	ldr.w	r8, [pc, #116]	; 8000604 <key_scan+0x80>
 8000590:	f8df 906c 	ldr.w	r9, [pc, #108]	; 8000600 <key_scan+0x7c>
 8000594:	463e      	mov	r6, r7
 8000596:	2400      	movs	r4, #0
 8000598:	2264      	movs	r2, #100	; 0x64
 800059a:	2301      	movs	r3, #1
 800059c:	e9cd 3201 	strd	r3, r2, [sp, #4]
 80005a0:	9500      	str	r5, [sp, #0]
 80005a2:	f816 2b01 	ldrb.w	r2, [r6], #1
 80005a6:	216e      	movs	r1, #110	; 0x6e
 80005a8:	4640      	mov	r0, r8
 80005aa:	f001 f8d7 	bl	800175c <HAL_I2C_Mem_Read>
 80005ae:	b910      	cbnz	r0, 80005b6 <key_scan+0x32>
 80005b0:	782b      	ldrb	r3, [r5, #0]
 80005b2:	f804 3009 	strb.w	r3, [r4, r9]
 80005b6:	3401      	adds	r4, #1
 80005b8:	2c10      	cmp	r4, #16
 80005ba:	d1ed      	bne.n	8000598 <key_scan+0x14>
 80005bc:	4e10      	ldr	r6, [pc, #64]	; (8000600 <key_scan+0x7c>)
 80005be:	f8df a048 	ldr.w	sl, [pc, #72]	; 8000608 <key_scan+0x84>
 80005c2:	f04f 0864 	mov.w	r8, #100	; 0x64
 80005c6:	f04f 0901 	mov.w	r9, #1
 80005ca:	e9cd 9801 	strd	r9, r8, [sp, #4]
 80005ce:	f817 2b01 	ldrb.w	r2, [r7], #1
 80005d2:	9500      	str	r5, [sp, #0]
 80005d4:	2301      	movs	r3, #1
 80005d6:	216e      	movs	r1, #110	; 0x6e
 80005d8:	4650      	mov	r0, sl
 80005da:	f001 f8bf 	bl	800175c <HAL_I2C_Mem_Read>
 80005de:	b908      	cbnz	r0, 80005e4 <key_scan+0x60>
 80005e0:	782b      	ldrb	r3, [r5, #0]
 80005e2:	7433      	strb	r3, [r6, #16]
 80005e4:	1e63      	subs	r3, r4, #1
 80005e6:	f013 04ff 	ands.w	r4, r3, #255	; 0xff
 80005ea:	f106 0601 	add.w	r6, r6, #1
 80005ee:	d1ec      	bne.n	80005ca <key_scan+0x46>
 80005f0:	b004      	add	sp, #16
 80005f2:	e8bd 87f0 	ldmia.w	sp!, {r4, r5, r6, r7, r8, r9, sl, pc}
 80005f6:	bf00      	nop
 80005f8:	20000002 	.word	0x20000002
 80005fc:	20000274 	.word	0x20000274
 8000600:	20000254 	.word	0x20000254
 8000604:	20000280 	.word	0x20000280
 8000608:	200002d4 	.word	0x200002d4

0800060c <Sensor_softRST>:
 800060c:	b57f      	push	{r0, r1, r2, r3, r4, r5, r6, lr}
 800060e:	23ff      	movs	r3, #255	; 0xff
 8000610:	f88d 3017 	strb.w	r3, [sp, #23]
 8000614:	2264      	movs	r2, #100	; 0x64
 8000616:	2301      	movs	r3, #1
 8000618:	e9cd 3201 	strd	r3, r2, [sp, #4]
 800061c:	f10d 0217 	add.w	r2, sp, #23
 8000620:	9200      	str	r2, [sp, #0]
 8000622:	216e      	movs	r1, #110	; 0x6e
 8000624:	2286      	movs	r2, #134	; 0x86
 8000626:	4803      	ldr	r0, [pc, #12]	; (8000634 <Sensor_softRST+0x28>)
 8000628:	f001 f808 	bl	800163c <HAL_I2C_Mem_Write>
 800062c:	b007      	add	sp, #28
 800062e:	f85d fb04 	ldr.w	pc, [sp], #4
 8000632:	bf00      	nop
 8000634:	200002d4 	.word	0x200002d4

08000638 <Sensor_Cfg>:
 8000638:	b5f0      	push	{r4, r5, r6, r7, lr}
 800063a:	b087      	sub	sp, #28
 800063c:	2301      	movs	r3, #1
 800063e:	f10d 0213 	add.w	r2, sp, #19
 8000642:	2464      	movs	r4, #100	; 0x64
 8000644:	e9cd 3401 	strd	r3, r4, [sp, #4]
 8000648:	9200      	str	r2, [sp, #0]
 800064a:	484f      	ldr	r0, [pc, #316]	; (8000788 <Sensor_Cfg+0x150>)
 800064c:	f88d 3013 	strb.w	r3, [sp, #19]
 8000650:	228a      	movs	r2, #138	; 0x8a
 8000652:	216e      	movs	r1, #110	; 0x6e
 8000654:	f001 f882 	bl	800175c <HAL_I2C_Mem_Read>
 8000658:	f89d 3013 	ldrb.w	r3, [sp, #19]
 800065c:	2b01      	cmp	r3, #1
 800065e:	f040 8090 	bne.w	8000782 <Sensor_Cfg+0x14a>
 8000662:	4e4a      	ldr	r6, [pc, #296]	; (800078c <Sensor_Cfg+0x154>)
 8000664:	4d4a      	ldr	r5, [pc, #296]	; (8000790 <Sensor_Cfg+0x158>)
 8000666:	9402      	str	r4, [sp, #8]
 8000668:	2380      	movs	r3, #128	; 0x80
 800066a:	e9cd 6300 	strd	r6, r3, [sp]
 800066e:	2200      	movs	r2, #0
 8000670:	2301      	movs	r3, #1
 8000672:	216e      	movs	r1, #110	; 0x6e
 8000674:	4628      	mov	r0, r5
 8000676:	f000 ffe1 	bl	800163c <HAL_I2C_Mem_Write>
 800067a:	2800      	cmp	r0, #0
 800067c:	d1f3      	bne.n	8000666 <Sensor_Cfg+0x2e>
 800067e:	2303      	movs	r3, #3
 8000680:	4c43      	ldr	r4, [pc, #268]	; (8000790 <Sensor_Cfg+0x158>)
 8000682:	f88d 3014 	strb.w	r3, [sp, #20]
 8000686:	2664      	movs	r6, #100	; 0x64
 8000688:	2501      	movs	r5, #1
 800068a:	ab05      	add	r3, sp, #20
 800068c:	9300      	str	r3, [sp, #0]
 800068e:	e9cd 5601 	strd	r5, r6, [sp, #4]
 8000692:	2301      	movs	r3, #1
 8000694:	2286      	movs	r2, #134	; 0x86
 8000696:	216e      	movs	r1, #110	; 0x6e
 8000698:	4620      	mov	r0, r4
 800069a:	f000 ffcf 	bl	800163c <HAL_I2C_Mem_Write>
 800069e:	2800      	cmp	r0, #0
 80006a0:	d1f3      	bne.n	800068a <Sensor_Cfg+0x52>
 80006a2:	f44f 70fa 	mov.w	r0, #500	; 0x1f4
 80006a6:	f004 f888 	bl	80047ba <osDelay>
 80006aa:	4d3a      	ldr	r5, [pc, #232]	; (8000794 <Sensor_Cfg+0x15c>)
 80006ac:	4e38      	ldr	r6, [pc, #224]	; (8000790 <Sensor_Cfg+0x158>)
 80006ae:	2764      	movs	r7, #100	; 0x64
 80006b0:	2402      	movs	r4, #2
 80006b2:	e9cd 5400 	strd	r5, r4, [sp]
 80006b6:	9702      	str	r7, [sp, #8]
 80006b8:	2301      	movs	r3, #1
 80006ba:	2294      	movs	r2, #148	; 0x94
 80006bc:	216e      	movs	r1, #110	; 0x6e
 80006be:	4630      	mov	r0, r6
 80006c0:	f001 f84c 	bl	800175c <HAL_I2C_Mem_Read>
 80006c4:	2800      	cmp	r0, #0
 80006c6:	d1f3      	bne.n	80006b0 <Sensor_Cfg+0x78>
 80006c8:	4932      	ldr	r1, [pc, #200]	; (8000794 <Sensor_Cfg+0x15c>)
 80006ca:	4e31      	ldr	r6, [pc, #196]	; (8000790 <Sensor_Cfg+0x158>)
 80006cc:	4622      	mov	r2, r4
 80006ce:	f002 ff21 	bl	8003514 <CDC_Transmit>
 80006d2:	2064      	movs	r0, #100	; 0x64
 80006d4:	f004 f871 	bl	80047ba <osDelay>
 80006d8:	2764      	movs	r7, #100	; 0x64
 80006da:	e9cd 4701 	strd	r4, r7, [sp, #4]
 80006de:	9500      	str	r5, [sp, #0]
 80006e0:	2301      	movs	r3, #1
 80006e2:	227e      	movs	r2, #126	; 0x7e
 80006e4:	216e      	movs	r1, #110	; 0x6e
 80006e6:	4630      	mov	r0, r6
 80006e8:	f000 ffa8 	bl	800163c <HAL_I2C_Mem_Write>
 80006ec:	2800      	cmp	r0, #0
 80006ee:	d1f4      	bne.n	80006da <Sensor_Cfg+0xa2>
 80006f0:	f88d 4015 	strb.w	r4, [sp, #21]
 80006f4:	4c26      	ldr	r4, [pc, #152]	; (8000790 <Sensor_Cfg+0x158>)
 80006f6:	2664      	movs	r6, #100	; 0x64
 80006f8:	2501      	movs	r5, #1
 80006fa:	f10d 0315 	add.w	r3, sp, #21
 80006fe:	9300      	str	r3, [sp, #0]
 8000700:	e9cd 5601 	strd	r5, r6, [sp, #4]
 8000704:	2301      	movs	r3, #1
 8000706:	2286      	movs	r2, #134	; 0x86
 8000708:	216e      	movs	r1, #110	; 0x6e
 800070a:	4620      	mov	r0, r4
 800070c:	f000 ff96 	bl	800163c <HAL_I2C_Mem_Write>
 8000710:	2800      	cmp	r0, #0
 8000712:	d1f2      	bne.n	80006fa <Sensor_Cfg+0xc2>
 8000714:	20dc      	movs	r0, #220	; 0xdc
 8000716:	f004 f850 	bl	80047ba <osDelay>
 800071a:	4c1d      	ldr	r4, [pc, #116]	; (8000790 <Sensor_Cfg+0x158>)
 800071c:	2302      	movs	r3, #2
 800071e:	f88d 3016 	strb.w	r3, [sp, #22]
 8000722:	2664      	movs	r6, #100	; 0x64
 8000724:	2501      	movs	r5, #1
 8000726:	f10d 0316 	add.w	r3, sp, #22
 800072a:	9300      	str	r3, [sp, #0]
 800072c:	e9cd 5601 	strd	r5, r6, [sp, #4]
 8000730:	2301      	movs	r3, #1
 8000732:	2288      	movs	r2, #136	; 0x88
 8000734:	216e      	movs	r1, #110	; 0x6e
 8000736:	4620      	mov	r0, r4
 8000738:	f001 f810 	bl	800175c <HAL_I2C_Mem_Read>
 800073c:	2800      	cmp	r0, #0
 800073e:	d1f2      	bne.n	8000726 <Sensor_Cfg+0xee>
 8000740:	f89d 3016 	ldrb.w	r3, [sp, #22]
 8000744:	b1db      	cbz	r3, 800077e <Sensor_Cfg+0x146>
 8000746:	4e12      	ldr	r6, [pc, #72]	; (8000790 <Sensor_Cfg+0x158>)
 8000748:	2501      	movs	r5, #1
 800074a:	f44f 707a 	mov.w	r0, #1000	; 0x3e8
 800074e:	f004 f834 	bl	80047ba <osDelay>
 8000752:	2300      	movs	r3, #0
 8000754:	f88d 3017 	strb.w	r3, [sp, #23]
 8000758:	2764      	movs	r7, #100	; 0x64
 800075a:	f10d 0417 	add.w	r4, sp, #23
 800075e:	e9cd 5701 	strd	r5, r7, [sp, #4]
 8000762:	9400      	str	r4, [sp, #0]
 8000764:	2301      	movs	r3, #1
 8000766:	2289      	movs	r2, #137	; 0x89
 8000768:	216e      	movs	r1, #110	; 0x6e
 800076a:	4630      	mov	r0, r6
 800076c:	f000 fff6 	bl	800175c <HAL_I2C_Mem_Read>
 8000770:	2800      	cmp	r0, #0
 8000772:	d1f2      	bne.n	800075a <Sensor_Cfg+0x122>
 8000774:	2201      	movs	r2, #1
 8000776:	4621      	mov	r1, r4
 8000778:	f002 fecc 	bl	8003514 <CDC_Transmit>
 800077c:	e7e5      	b.n	800074a <Sensor_Cfg+0x112>
 800077e:	f7ff ff45 	bl	800060c <Sensor_softRST>
 8000782:	b007      	add	sp, #28
 8000784:	bdf0      	pop	{r4, r5, r6, r7, pc}
 8000786:	bf00      	nop
 8000788:	20000280 	.word	0x20000280
 800078c:	08006aa4 	.word	0x08006aa4
 8000790:	200002d4 	.word	0x200002d4
 8000794:	20000000 	.word	0x20000000

08000798 <StartDefaultTask>:
 8000798:	b5f0      	push	{r4, r5, r6, r7, lr}
 800079a:	2005      	movs	r0, #5
 800079c:	b08b      	sub	sp, #44	; 0x2c
 800079e:	f004 f80c 	bl	80047ba <osDelay>
 80007a2:	f7ff ff49 	bl	8000638 <Sensor_Cfg>
 80007a6:	4b21      	ldr	r3, [pc, #132]	; (800082c <StartDefaultTask+0x94>)
 80007a8:	aa01      	add	r2, sp, #4
 80007aa:	f103 0620 	add.w	r6, r3, #32
 80007ae:	4614      	mov	r4, r2
 80007b0:	6818      	ldr	r0, [r3, #0]
 80007b2:	6859      	ldr	r1, [r3, #4]
 80007b4:	4615      	mov	r5, r2
 80007b6:	c503      	stmia	r5!, {r0, r1}
 80007b8:	3308      	adds	r3, #8
 80007ba:	42b3      	cmp	r3, r6
 80007bc:	462a      	mov	r2, r5
 80007be:	d1f7      	bne.n	80007b0 <StartDefaultTask+0x18>
 80007c0:	6818      	ldr	r0, [r3, #0]
 80007c2:	6028      	str	r0, [r5, #0]
 80007c4:	4d1a      	ldr	r5, [pc, #104]	; (8000830 <StartDefaultTask+0x98>)
 80007c6:	2003      	movs	r0, #3
 80007c8:	f003 fff7 	bl	80047ba <osDelay>
 80007cc:	782b      	ldrb	r3, [r5, #0]
 80007ce:	2b01      	cmp	r3, #1
 80007d0:	d1f9      	bne.n	80007c6 <StartDefaultTask+0x2e>
 80007d2:	f7ff fed7 	bl	8000584 <key_scan>
 80007d6:	4b17      	ldr	r3, [pc, #92]	; (8000834 <StartDefaultTask+0x9c>)
 80007d8:	2120      	movs	r1, #32
 80007da:	f44f 7290 	mov.w	r2, #288	; 0x120
 80007de:	461f      	mov	r7, r3
 80007e0:	20fe      	movs	r0, #254	; 0xfe
 80007e2:	f813 6b01 	ldrb.w	r6, [r3], #1
 80007e6:	2eff      	cmp	r6, #255	; 0xff
 80007e8:	d102      	bne.n	80007f0 <StartDefaultTask+0x58>
 80007ea:	f803 0c01 	strb.w	r0, [r3, #-1]
 80007ee:	e001      	b.n	80007f4 <StartDefaultTask+0x5c>
 80007f0:	2efd      	cmp	r6, #253	; 0xfd
 80007f2:	d0fa      	beq.n	80007ea <StartDefaultTask+0x52>
 80007f4:	f813 6c01 	ldrb.w	r6, [r3, #-1]
 80007f8:	3901      	subs	r1, #1
 80007fa:	f011 01ff 	ands.w	r1, r1, #255	; 0xff
 80007fe:	4432      	add	r2, r6
 8000800:	d1ef      	bne.n	80007e2 <StartDefaultTask+0x4a>
 8000802:	490d      	ldr	r1, [pc, #52]	; (8000838 <StartDefaultTask+0xa0>)
 8000804:	f10d 0307 	add.w	r3, sp, #7
 8000808:	2020      	movs	r0, #32
 800080a:	f811 6b01 	ldrb.w	r6, [r1], #1
 800080e:	3801      	subs	r0, #1
 8000810:	5dbe      	ldrb	r6, [r7, r6]
 8000812:	f803 6b01 	strb.w	r6, [r3], #1
 8000816:	f010 00ff 	ands.w	r0, r0, #255	; 0xff
 800081a:	d1f6      	bne.n	800080a <StartDefaultTask+0x72>
 800081c:	4252      	negs	r2, r2
 800081e:	f88d 2027 	strb.w	r2, [sp, #39]	; 0x27
 8000822:	4621      	mov	r1, r4
 8000824:	2224      	movs	r2, #36	; 0x24
 8000826:	f002 fe75 	bl	8003514 <CDC_Transmit>
 800082a:	e7cc      	b.n	80007c6 <StartDefaultTask+0x2e>
 800082c:	08006a80 	.word	0x08006a80
 8000830:	20000329 	.word	0x20000329
 8000834:	20000254 	.word	0x20000254
 8000838:	08006b24 	.word	0x08006b24

0800083c <StartTask02>:
 800083c:	b508      	push	{r3, lr}
 800083e:	4c0f      	ldr	r4, [pc, #60]	; (800087c <StartTask02+0x40>)
 8000840:	2005      	movs	r0, #5
 8000842:	f003 ffba 	bl	80047ba <osDelay>
 8000846:	7823      	ldrb	r3, [r4, #0]
 8000848:	2b04      	cmp	r3, #4
 800084a:	d011      	beq.n	8000870 <StartTask02+0x34>
 800084c:	d806      	bhi.n	800085c <StartTask02+0x20>
 800084e:	2b02      	cmp	r3, #2
 8000850:	d00b      	beq.n	800086a <StartTask02+0x2e>
 8000852:	2b03      	cmp	r3, #3
 8000854:	d1f4      	bne.n	8000840 <StartTask02+0x4>
 8000856:	f000 f9c1 	bl	8000bdc <slider_scan_start>
 800085a:	e7f1      	b.n	8000840 <StartTask02+0x4>
 800085c:	2b10      	cmp	r3, #16
 800085e:	d00a      	beq.n	8000876 <StartTask02+0x3a>
 8000860:	2bf0      	cmp	r3, #240	; 0xf0
 8000862:	d1ed      	bne.n	8000840 <StartTask02+0x4>
 8000864:	f000 f9c6 	bl	8000bf4 <slider_get_board_info>
 8000868:	e7ea      	b.n	8000840 <StartTask02+0x4>
 800086a:	f000 f9cb 	bl	8000c04 <slider_set_led>
 800086e:	e7e7      	b.n	8000840 <StartTask02+0x4>
 8000870:	f000 f9ba 	bl	8000be8 <slider_scan_stop>
 8000874:	e7e4      	b.n	8000840 <StartTask02+0x4>
 8000876:	f000 f9c6 	bl	8000c06 <slider_reset>
 800087a:	e7e1      	b.n	8000840 <StartTask02+0x4>
 800087c:	20000328 	.word	0x20000328

08000880 <MX_FREERTOS_Init>:
 8000880:	b508      	push	{r3, lr}
 8000882:	4a07      	ldr	r2, [pc, #28]	; (80008a0 <MX_FREERTOS_Init+0x20>)
 8000884:	4807      	ldr	r0, [pc, #28]	; (80008a4 <MX_FREERTOS_Init+0x24>)
 8000886:	2100      	movs	r1, #0
 8000888:	f003 ff4e 	bl	8004728 <osThreadNew>
 800088c:	4b06      	ldr	r3, [pc, #24]	; (80008a8 <MX_FREERTOS_Init+0x28>)
 800088e:	4a07      	ldr	r2, [pc, #28]	; (80008ac <MX_FREERTOS_Init+0x2c>)
 8000890:	6018      	str	r0, [r3, #0]
 8000892:	2100      	movs	r1, #0
 8000894:	4806      	ldr	r0, [pc, #24]	; (80008b0 <MX_FREERTOS_Init+0x30>)
 8000896:	f003 ff47 	bl	8004728 <osThreadNew>
 800089a:	4b06      	ldr	r3, [pc, #24]	; (80008b4 <MX_FREERTOS_Init+0x34>)
 800089c:	6018      	str	r0, [r3, #0]
 800089e:	bd08      	pop	{r3, pc}
 80008a0:	08006b7c 	.word	0x08006b7c
 80008a4:	08000799 	.word	0x08000799
 80008a8:	2000027c 	.word	0x2000027c
 80008ac:	08006b58 	.word	0x08006b58
 80008b0:	0800083d 	.word	0x0800083d
 80008b4:	20000278 	.word	0x20000278

080008b8 <MX_GPIO_Init>:
 80008b8:	b530      	push	{r4, r5, lr}
 80008ba:	2214      	movs	r2, #20
 80008bc:	b08b      	sub	sp, #44	; 0x2c
 80008be:	eb0d 0002 	add.w	r0, sp, r2
 80008c2:	2100      	movs	r1, #0
 80008c4:	f005 fc54 	bl	8006170 <memset>
 80008c8:	2400      	movs	r4, #0
 80008ca:	4b2b      	ldr	r3, [pc, #172]	; (8000978 <MX_GPIO_Init+0xc0>)
 80008cc:	9401      	str	r4, [sp, #4]
 80008ce:	6b1a      	ldr	r2, [r3, #48]	; 0x30
 80008d0:	482a      	ldr	r0, [pc, #168]	; (800097c <MX_GPIO_Init+0xc4>)
 80008d2:	f042 0204 	orr.w	r2, r2, #4
 80008d6:	631a      	str	r2, [r3, #48]	; 0x30
 80008d8:	6b1a      	ldr	r2, [r3, #48]	; 0x30
 80008da:	f002 0204 	and.w	r2, r2, #4
 80008de:	9201      	str	r2, [sp, #4]
 80008e0:	9a01      	ldr	r2, [sp, #4]
 80008e2:	9402      	str	r4, [sp, #8]
 80008e4:	6b1a      	ldr	r2, [r3, #48]	; 0x30
 80008e6:	f042 0280 	orr.w	r2, r2, #128	; 0x80
 80008ea:	631a      	str	r2, [r3, #48]	; 0x30
 80008ec:	6b1a      	ldr	r2, [r3, #48]	; 0x30
 80008ee:	f002 0280 	and.w	r2, r2, #128	; 0x80
 80008f2:	9202      	str	r2, [sp, #8]
 80008f4:	9a02      	ldr	r2, [sp, #8]
 80008f6:	9403      	str	r4, [sp, #12]
 80008f8:	6b1a      	ldr	r2, [r3, #48]	; 0x30
 80008fa:	f042 0202 	orr.w	r2, r2, #2
 80008fe:	631a      	str	r2, [r3, #48]	; 0x30
 8000900:	6b1a      	ldr	r2, [r3, #48]	; 0x30
 8000902:	f002 0202 	and.w	r2, r2, #2
 8000906:	9203      	str	r2, [sp, #12]
 8000908:	9a03      	ldr	r2, [sp, #12]
 800090a:	9404      	str	r4, [sp, #16]
 800090c:	6b1a      	ldr	r2, [r3, #48]	; 0x30
 800090e:	f042 0201 	orr.w	r2, r2, #1
 8000912:	631a      	str	r2, [r3, #48]	; 0x30
 8000914:	6b1b      	ldr	r3, [r3, #48]	; 0x30
 8000916:	f003 0301 	and.w	r3, r3, #1
 800091a:	4622      	mov	r2, r4
 800091c:	9304      	str	r3, [sp, #16]
 800091e:	f44f 5100 	mov.w	r1, #8192	; 0x2000
 8000922:	2501      	movs	r5, #1
 8000924:	9b04      	ldr	r3, [sp, #16]
 8000926:	f000 fbf3 	bl	8001110 <HAL_GPIO_WritePin>
 800092a:	f44f 5300 	mov.w	r3, #8192	; 0x2000
 800092e:	a905      	add	r1, sp, #20
 8000930:	4812      	ldr	r0, [pc, #72]	; (800097c <MX_GPIO_Init+0xc4>)
 8000932:	e9cd 3505 	strd	r3, r5, [sp, #20]
 8000936:	e9cd 5407 	strd	r5, r4, [sp, #28]
 800093a:	f000 fb21 	bl	8000f80 <HAL_GPIO_Init>
 800093e:	f44f 1304 	mov.w	r3, #2162688	; 0x210000
 8000942:	f248 0280 	movw	r2, #32896	; 0x8080
 8000946:	a905      	add	r1, sp, #20
 8000948:	480d      	ldr	r0, [pc, #52]	; (8000980 <MX_GPIO_Init+0xc8>)
 800094a:	9507      	str	r5, [sp, #28]
 800094c:	e9cd 2305 	strd	r2, r3, [sp, #20]
 8000950:	f000 fb16 	bl	8000f80 <HAL_GPIO_Init>
 8000954:	4622      	mov	r2, r4
 8000956:	2105      	movs	r1, #5
 8000958:	2017      	movs	r0, #23
 800095a:	f000 fabd 	bl	8000ed8 <HAL_NVIC_SetPriority>
 800095e:	2017      	movs	r0, #23
 8000960:	f000 faec 	bl	8000f3c <HAL_NVIC_EnableIRQ>
 8000964:	4622      	mov	r2, r4
 8000966:	2105      	movs	r1, #5
 8000968:	2028      	movs	r0, #40	; 0x28
 800096a:	f000 fab5 	bl	8000ed8 <HAL_NVIC_SetPriority>
 800096e:	2028      	movs	r0, #40	; 0x28
 8000970:	f000 fae4 	bl	8000f3c <HAL_NVIC_EnableIRQ>
 8000974:	b00b      	add	sp, #44	; 0x2c
 8000976:	bd30      	pop	{r4, r5, pc}
 8000978:	40023800 	.word	0x40023800
 800097c:	40020800 	.word	0x40020800
 8000980:	40020400 	.word	0x40020400

08000984 <MX_I2C1_Init>:
 8000984:	b508      	push	{r3, lr}
 8000986:	480b      	ldr	r0, [pc, #44]	; (80009b4 <MX_I2C1_Init+0x30>)
 8000988:	4a0b      	ldr	r2, [pc, #44]	; (80009b8 <MX_I2C1_Init+0x34>)
 800098a:	4b0c      	ldr	r3, [pc, #48]	; (80009bc <MX_I2C1_Init+0x38>)
 800098c:	e9c0 2300 	strd	r2, r3, [r0]
 8000990:	2300      	movs	r3, #0
 8000992:	f44f 4280 	mov.w	r2, #16384	; 0x4000
 8000996:	e9c0 3302 	strd	r3, r3, [r0, #8]
 800099a:	e9c0 2304 	strd	r2, r3, [r0, #16]
 800099e:	e9c0 3306 	strd	r3, r3, [r0, #24]
 80009a2:	6203      	str	r3, [r0, #32]
 80009a4:	f000 fda2 	bl	80014ec <HAL_I2C_Init>
 80009a8:	b118      	cbz	r0, 80009b2 <MX_I2C1_Init+0x2e>
 80009aa:	e8bd 4008 	ldmia.w	sp!, {r3, lr}
 80009ae:	f000 b913 	b.w	8000bd8 <Error_Handler>
 80009b2:	bd08      	pop	{r3, pc}
 80009b4:	20000280 	.word	0x20000280
 80009b8:	40005400 	.word	0x40005400
 80009bc:	000186a0 	.word	0x000186a0

080009c0 <MX_I2C3_Init>:
 80009c0:	b508      	push	{r3, lr}
 80009c2:	480b      	ldr	r0, [pc, #44]	; (80009f0 <MX_I2C3_Init+0x30>)
 80009c4:	4a0b      	ldr	r2, [pc, #44]	; (80009f4 <MX_I2C3_Init+0x34>)
 80009c6:	4b0c      	ldr	r3, [pc, #48]	; (80009f8 <MX_I2C3_Init+0x38>)
 80009c8:	e9c0 2300 	strd	r2, r3, [r0]
 80009cc:	2300      	movs	r3, #0
 80009ce:	f44f 4280 	mov.w	r2, #16384	; 0x4000
 80009d2:	e9c0 3302 	strd	r3, r3, [r0, #8]
 80009d6:	e9c0 2304 	strd	r2, r3, [r0, #16]
 80009da:	e9c0 3306 	strd	r3, r3, [r0, #24]
 80009de:	6203      	str	r3, [r0, #32]
 80009e0:	f000 fd84 	bl	80014ec <HAL_I2C_Init>
 80009e4:	b118      	cbz	r0, 80009ee <MX_I2C3_Init+0x2e>
 80009e6:	e8bd 4008 	ldmia.w	sp!, {r3, lr}
 80009ea:	f000 b8f5 	b.w	8000bd8 <Error_Handler>
 80009ee:	bd08      	pop	{r3, pc}
 80009f0:	200002d4 	.word	0x200002d4
 80009f4:	40005c00 	.word	0x40005c00
 80009f8:	000186a0 	.word	0x000186a0

080009fc <HAL_I2C_MspInit>:
 80009fc:	e92d 41f0 	stmdb	sp!, {r4, r5, r6, r7, r8, lr}
 8000a00:	2214      	movs	r2, #20
 8000a02:	b08a      	sub	sp, #40	; 0x28
 8000a04:	4604      	mov	r4, r0
 8000a06:	2100      	movs	r1, #0
 8000a08:	eb0d 0002 	add.w	r0, sp, r2
 8000a0c:	f005 fbb0 	bl	8006170 <memset>
 8000a10:	6823      	ldr	r3, [r4, #0]
 8000a12:	4a35      	ldr	r2, [pc, #212]	; (8000ae8 <HAL_I2C_MspInit+0xec>)
 8000a14:	4293      	cmp	r3, r2
 8000a16:	d127      	bne.n	8000a68 <HAL_I2C_MspInit+0x6c>
 8000a18:	4c34      	ldr	r4, [pc, #208]	; (8000aec <HAL_I2C_MspInit+0xf0>)
 8000a1a:	4835      	ldr	r0, [pc, #212]	; (8000af0 <HAL_I2C_MspInit+0xf4>)
 8000a1c:	2500      	movs	r5, #0
 8000a1e:	9500      	str	r5, [sp, #0]
 8000a20:	6b23      	ldr	r3, [r4, #48]	; 0x30
 8000a22:	f043 0302 	orr.w	r3, r3, #2
 8000a26:	6323      	str	r3, [r4, #48]	; 0x30
 8000a28:	6b23      	ldr	r3, [r4, #48]	; 0x30
 8000a2a:	f003 0302 	and.w	r3, r3, #2
 8000a2e:	9300      	str	r3, [sp, #0]
 8000a30:	9b00      	ldr	r3, [sp, #0]
 8000a32:	f44f 7240 	mov.w	r2, #768	; 0x300
 8000a36:	2312      	movs	r3, #18
 8000a38:	e9cd 2305 	strd	r2, r3, [sp, #20]
 8000a3c:	2101      	movs	r1, #1
 8000a3e:	2303      	movs	r3, #3
 8000a40:	e9cd 1307 	strd	r1, r3, [sp, #28]
 8000a44:	2304      	movs	r3, #4
 8000a46:	a905      	add	r1, sp, #20
 8000a48:	9309      	str	r3, [sp, #36]	; 0x24
 8000a4a:	f000 fa99 	bl	8000f80 <HAL_GPIO_Init>
 8000a4e:	9501      	str	r5, [sp, #4]
 8000a50:	6c23      	ldr	r3, [r4, #64]	; 0x40
 8000a52:	f443 1300 	orr.w	r3, r3, #2097152	; 0x200000
 8000a56:	6423      	str	r3, [r4, #64]	; 0x40
 8000a58:	6c23      	ldr	r3, [r4, #64]	; 0x40
 8000a5a:	f403 1300 	and.w	r3, r3, #2097152	; 0x200000
 8000a5e:	9301      	str	r3, [sp, #4]
 8000a60:	9b01      	ldr	r3, [sp, #4]
 8000a62:	b00a      	add	sp, #40	; 0x28
 8000a64:	e8bd 81f0 	ldmia.w	sp!, {r4, r5, r6, r7, r8, pc}
 8000a68:	4a22      	ldr	r2, [pc, #136]	; (8000af4 <HAL_I2C_MspInit+0xf8>)
 8000a6a:	4293      	cmp	r3, r2
 8000a6c:	d1f9      	bne.n	8000a62 <HAL_I2C_MspInit+0x66>
 8000a6e:	4c1f      	ldr	r4, [pc, #124]	; (8000aec <HAL_I2C_MspInit+0xf0>)
 8000a70:	4821      	ldr	r0, [pc, #132]	; (8000af8 <HAL_I2C_MspInit+0xfc>)
 8000a72:	2500      	movs	r5, #0
 8000a74:	9502      	str	r5, [sp, #8]
 8000a76:	6b23      	ldr	r3, [r4, #48]	; 0x30
 8000a78:	f043 0301 	orr.w	r3, r3, #1
 8000a7c:	6323      	str	r3, [r4, #48]	; 0x30
 8000a7e:	6b23      	ldr	r3, [r4, #48]	; 0x30
 8000a80:	f003 0301 	and.w	r3, r3, #1
 8000a84:	9302      	str	r3, [sp, #8]
 8000a86:	9b02      	ldr	r3, [sp, #8]
 8000a88:	9503      	str	r5, [sp, #12]
 8000a8a:	6b23      	ldr	r3, [r4, #48]	; 0x30
 8000a8c:	f043 0302 	orr.w	r3, r3, #2
 8000a90:	6323      	str	r3, [r4, #48]	; 0x30
 8000a92:	6b23      	ldr	r3, [r4, #48]	; 0x30
 8000a94:	f003 0302 	and.w	r3, r3, #2
 8000a98:	9303      	str	r3, [sp, #12]
 8000a9a:	9b03      	ldr	r3, [sp, #12]
 8000a9c:	f04f 0812 	mov.w	r8, #18
 8000aa0:	f44f 7380 	mov.w	r3, #256	; 0x100
 8000aa4:	e9cd 3805 	strd	r3, r8, [sp, #20]
 8000aa8:	2701      	movs	r7, #1
 8000aaa:	2304      	movs	r3, #4
 8000aac:	2603      	movs	r6, #3
 8000aae:	a905      	add	r1, sp, #20
 8000ab0:	9309      	str	r3, [sp, #36]	; 0x24
 8000ab2:	e9cd 7607 	strd	r7, r6, [sp, #28]
 8000ab6:	f000 fa63 	bl	8000f80 <HAL_GPIO_Init>
 8000aba:	2310      	movs	r3, #16
 8000abc:	e9cd 3805 	strd	r3, r8, [sp, #20]
 8000ac0:	480b      	ldr	r0, [pc, #44]	; (8000af0 <HAL_I2C_MspInit+0xf4>)
 8000ac2:	2309      	movs	r3, #9
 8000ac4:	a905      	add	r1, sp, #20
 8000ac6:	9309      	str	r3, [sp, #36]	; 0x24
 8000ac8:	e9cd 7607 	strd	r7, r6, [sp, #28]
 8000acc:	f000 fa58 	bl	8000f80 <HAL_GPIO_Init>
 8000ad0:	9504      	str	r5, [sp, #16]
 8000ad2:	6c23      	ldr	r3, [r4, #64]	; 0x40
 8000ad4:	f443 0300 	orr.w	r3, r3, #8388608	; 0x800000
 8000ad8:	6423      	str	r3, [r4, #64]	; 0x40
 8000ada:	6c23      	ldr	r3, [r4, #64]	; 0x40
 8000adc:	f403 0300 	and.w	r3, r3, #8388608	; 0x800000
 8000ae0:	9304      	str	r3, [sp, #16]
 8000ae2:	9b04      	ldr	r3, [sp, #16]
 8000ae4:	e7bd      	b.n	8000a62 <HAL_I2C_MspInit+0x66>
 8000ae6:	bf00      	nop
 8000ae8:	40005400 	.word	0x40005400
 8000aec:	40023800 	.word	0x40023800
 8000af0:	40020400 	.word	0x40020400
 8000af4:	40005c00 	.word	0x40005c00
 8000af8:	40020000 	.word	0x40020000

08000afc <SystemClock_Config>:
 8000afc:	b510      	push	{r4, lr}
 8000afe:	b094      	sub	sp, #80	; 0x50
 8000b00:	2210      	movs	r2, #16
 8000b02:	2100      	movs	r1, #0
 8000b04:	a80a      	add	r0, sp, #40	; 0x28
 8000b06:	f005 fb33 	bl	8006170 <memset>
 8000b0a:	2214      	movs	r2, #20
 8000b0c:	2100      	movs	r1, #0
 8000b0e:	a803      	add	r0, sp, #12
 8000b10:	f005 fb2e 	bl	8006170 <memset>
 8000b14:	4b1f      	ldr	r3, [pc, #124]	; (8000b94 <SystemClock_Config+0x98>)
 8000b16:	2100      	movs	r1, #0
 8000b18:	9101      	str	r1, [sp, #4]
 8000b1a:	6c1a      	ldr	r2, [r3, #64]	; 0x40
 8000b1c:	f042 5280 	orr.w	r2, r2, #268435456	; 0x10000000
 8000b20:	641a      	str	r2, [r3, #64]	; 0x40
 8000b22:	6c1b      	ldr	r3, [r3, #64]	; 0x40
 8000b24:	f003 5380 	and.w	r3, r3, #268435456	; 0x10000000
 8000b28:	9301      	str	r3, [sp, #4]
 8000b2a:	9b01      	ldr	r3, [sp, #4]
 8000b2c:	4b1a      	ldr	r3, [pc, #104]	; (8000b98 <SystemClock_Config+0x9c>)
 8000b2e:	9102      	str	r1, [sp, #8]
 8000b30:	681a      	ldr	r2, [r3, #0]
 8000b32:	f442 4240 	orr.w	r2, r2, #49152	; 0xc000
 8000b36:	601a      	str	r2, [r3, #0]
 8000b38:	681b      	ldr	r3, [r3, #0]
 8000b3a:	f403 4340 	and.w	r3, r3, #49152	; 0xc000
 8000b3e:	9302      	str	r3, [sp, #8]
 8000b40:	9b02      	ldr	r3, [sp, #8]
 8000b42:	2201      	movs	r2, #1
 8000b44:	f44f 3380 	mov.w	r3, #65536	; 0x10000
 8000b48:	2402      	movs	r4, #2
 8000b4a:	e9cd 2308 	strd	r2, r3, [sp, #32]
 8000b4e:	f44f 0380 	mov.w	r3, #4194304	; 0x400000
 8000b52:	e9cd 430e 	strd	r4, r3, [sp, #56]	; 0x38
 8000b56:	2119      	movs	r1, #25
 8000b58:	23c0      	movs	r3, #192	; 0xc0
 8000b5a:	e9cd 1310 	strd	r1, r3, [sp, #64]	; 0x40
 8000b5e:	a808      	add	r0, sp, #32
 8000b60:	2304      	movs	r3, #4
 8000b62:	9412      	str	r4, [sp, #72]	; 0x48
 8000b64:	9313      	str	r3, [sp, #76]	; 0x4c
 8000b66:	f001 fc57 	bl	8002418 <HAL_RCC_OscConfig>
 8000b6a:	b108      	cbz	r0, 8000b70 <SystemClock_Config+0x74>
 8000b6c:	b672      	cpsid	i
 8000b6e:	e7fe      	b.n	8000b6e <SystemClock_Config+0x72>
 8000b70:	230f      	movs	r3, #15
 8000b72:	e9cd 3403 	strd	r3, r4, [sp, #12]
 8000b76:	f44f 5380 	mov.w	r3, #4096	; 0x1000
 8000b7a:	e9cd 3006 	strd	r3, r0, [sp, #24]
 8000b7e:	9005      	str	r0, [sp, #20]
 8000b80:	2103      	movs	r1, #3
 8000b82:	a803      	add	r0, sp, #12
 8000b84:	f001 fe26 	bl	80027d4 <HAL_RCC_ClockConfig>
 8000b88:	b108      	cbz	r0, 8000b8e <SystemClock_Config+0x92>
 8000b8a:	b672      	cpsid	i
 8000b8c:	e7fe      	b.n	8000b8c <SystemClock_Config+0x90>
 8000b8e:	b014      	add	sp, #80	; 0x50
 8000b90:	bd10      	pop	{r4, pc}
 8000b92:	bf00      	nop
 8000b94:	40023800 	.word	0x40023800
 8000b98:	40007000 	.word	0x40007000

08000b9c <main>:
 8000b9c:	b508      	push	{r3, lr}
 8000b9e:	f000 f949 	bl	8000e34 <HAL_Init>
 8000ba2:	f7ff ffab 	bl	8000afc <SystemClock_Config>
 8000ba6:	f7ff fe87 	bl	80008b8 <MX_GPIO_Init>
 8000baa:	f7ff feeb 	bl	8000984 <MX_I2C1_Init>
 8000bae:	f7ff ff07 	bl	80009c0 <MX_I2C3_Init>
 8000bb2:	f000 f893 	bl	8000cdc <MX_USB_OTG_FS_PCD_Init>
 8000bb6:	f002 fc43 	bl	8003440 <MX_USB_DEVICE_Init>
 8000bba:	2201      	movs	r2, #1
 8000bbc:	f44f 5100 	mov.w	r1, #8192	; 0x2000
 8000bc0:	4804      	ldr	r0, [pc, #16]	; (8000bd4 <main+0x38>)
 8000bc2:	f000 faa5 	bl	8001110 <HAL_GPIO_WritePin>
 8000bc6:	f003 fd83 	bl	80046d0 <osKernelInitialize>
 8000bca:	f7ff fe59 	bl	8000880 <MX_FREERTOS_Init>
 8000bce:	f003 fd91 	bl	80046f4 <osKernelStart>
 8000bd2:	e7fe      	b.n	8000bd2 <main+0x36>
 8000bd4:	40020800 	.word	0x40020800

08000bd8 <Error_Handler>:
 8000bd8:	b672      	cpsid	i
 8000bda:	e7fe      	b.n	8000bda <Error_Handler+0x2>

08000bdc <slider_scan_start>:
 8000bdc:	4b01      	ldr	r3, [pc, #4]	; (8000be4 <slider_scan_start+0x8>)
 8000bde:	2201      	movs	r2, #1
 8000be0:	701a      	strb	r2, [r3, #0]
 8000be2:	4770      	bx	lr
 8000be4:	20000329 	.word	0x20000329

08000be8 <slider_scan_stop>:
 8000be8:	4b01      	ldr	r3, [pc, #4]	; (8000bf0 <slider_scan_stop+0x8>)
 8000bea:	2200      	movs	r2, #0
 8000bec:	701a      	strb	r2, [r3, #0]
 8000bee:	4770      	bx	lr
 8000bf0:	20000329 	.word	0x20000329

08000bf4 <slider_get_board_info>:
 8000bf4:	4902      	ldr	r1, [pc, #8]	; (8000c00 <slider_get_board_info+0xc>)
 8000bf6:	2225      	movs	r2, #37	; 0x25
 8000bf8:	2000      	movs	r0, #0
 8000bfa:	f002 bc8b 	b.w	8003514 <CDC_Transmit>
 8000bfe:	bf00      	nop
 8000c00:	20000012 	.word	0x20000012

08000c04 <slider_set_led>:
 8000c04:	4770      	bx	lr

08000c06 <slider_reset>:
 8000c06:	4770      	bx	lr

08000c08 <HAL_MspInit>:
 8000c08:	b082      	sub	sp, #8
 8000c0a:	4b0e      	ldr	r3, [pc, #56]	; (8000c44 <HAL_MspInit+0x3c>)
 8000c0c:	2200      	movs	r2, #0
 8000c0e:	9200      	str	r2, [sp, #0]
 8000c10:	6c59      	ldr	r1, [r3, #68]	; 0x44
 8000c12:	f441 4180 	orr.w	r1, r1, #16384	; 0x4000
 8000c16:	6459      	str	r1, [r3, #68]	; 0x44
 8000c18:	6c59      	ldr	r1, [r3, #68]	; 0x44
 8000c1a:	f401 4180 	and.w	r1, r1, #16384	; 0x4000
 8000c1e:	9100      	str	r1, [sp, #0]
 8000c20:	9900      	ldr	r1, [sp, #0]
 8000c22:	9201      	str	r2, [sp, #4]
 8000c24:	6c19      	ldr	r1, [r3, #64]	; 0x40
 8000c26:	f041 5180 	orr.w	r1, r1, #268435456	; 0x10000000
 8000c2a:	6419      	str	r1, [r3, #64]	; 0x40
 8000c2c:	6c1b      	ldr	r3, [r3, #64]	; 0x40
 8000c2e:	f003 5380 	and.w	r3, r3, #268435456	; 0x10000000
 8000c32:	9301      	str	r3, [sp, #4]
 8000c34:	9b01      	ldr	r3, [sp, #4]
 8000c36:	210f      	movs	r1, #15
 8000c38:	f06f 0001 	mvn.w	r0, #1
 8000c3c:	b002      	add	sp, #8
 8000c3e:	f000 b94b 	b.w	8000ed8 <HAL_NVIC_SetPriority>
 8000c42:	bf00      	nop
 8000c44:	40023800 	.word	0x40023800

08000c48 <NMI_Handler>:
 8000c48:	e7fe      	b.n	8000c48 <NMI_Handler>

08000c4a <HardFault_Handler>:
 8000c4a:	e7fe      	b.n	8000c4a <HardFault_Handler>

08000c4c <MemManage_Handler>:
 8000c4c:	e7fe      	b.n	8000c4c <MemManage_Handler>

08000c4e <BusFault_Handler>:
 8000c4e:	e7fe      	b.n	8000c4e <BusFault_Handler>

08000c50 <UsageFault_Handler>:
 8000c50:	e7fe      	b.n	8000c50 <UsageFault_Handler>

08000c52 <DebugMon_Handler>:
 8000c52:	4770      	bx	lr

08000c54 <SysTick_Handler>:
 8000c54:	b508      	push	{r3, lr}
 8000c56:	f000 f907 	bl	8000e68 <HAL_IncTick>
 8000c5a:	f004 fd67 	bl	800572c <xTaskGetSchedulerState>
 8000c5e:	2801      	cmp	r0, #1
 8000c60:	d003      	beq.n	8000c6a <SysTick_Handler+0x16>
 8000c62:	e8bd 4008 	ldmia.w	sp!, {r3, lr}
 8000c66:	f005 b875 	b.w	8005d54 <xPortSysTickHandler>
 8000c6a:	bd08      	pop	{r3, pc}

08000c6c <EXTI9_5_IRQHandler>:
 8000c6c:	2080      	movs	r0, #128	; 0x80
 8000c6e:	f000 ba55 	b.w	800111c <HAL_GPIO_EXTI_IRQHandler>

08000c72 <EXTI15_10_IRQHandler>:
 8000c72:	f44f 4000 	mov.w	r0, #32768	; 0x8000
 8000c76:	f000 ba51 	b.w	800111c <HAL_GPIO_EXTI_IRQHandler>
	...

08000c7c <OTG_FS_IRQHandler>:
 8000c7c:	4801      	ldr	r0, [pc, #4]	; (8000c84 <OTG_FS_IRQHandler+0x8>)
 8000c7e:	f001 b85f 	b.w	8001d40 <HAL_PCD_IRQHandler>
 8000c82:	bf00      	nop
 8000c84:	20000330 	.word	0x20000330

08000c88 <_sbrk>:
 8000c88:	4a0b      	ldr	r2, [pc, #44]	; (8000cb8 <_sbrk+0x30>)
 8000c8a:	6811      	ldr	r1, [r2, #0]
 8000c8c:	b510      	push	{r4, lr}
 8000c8e:	4603      	mov	r3, r0
 8000c90:	b909      	cbnz	r1, 8000c96 <_sbrk+0xe>
 8000c92:	490a      	ldr	r1, [pc, #40]	; (8000cbc <_sbrk+0x34>)
 8000c94:	6011      	str	r1, [r2, #0]
 8000c96:	6810      	ldr	r0, [r2, #0]
 8000c98:	4909      	ldr	r1, [pc, #36]	; (8000cc0 <_sbrk+0x38>)
 8000c9a:	4c0a      	ldr	r4, [pc, #40]	; (8000cc4 <_sbrk+0x3c>)
 8000c9c:	4403      	add	r3, r0
 8000c9e:	1b09      	subs	r1, r1, r4
 8000ca0:	428b      	cmp	r3, r1
 8000ca2:	d906      	bls.n	8000cb2 <_sbrk+0x2a>
 8000ca4:	f005 fa2c 	bl	8006100 <__errno>
 8000ca8:	230c      	movs	r3, #12
 8000caa:	6003      	str	r3, [r0, #0]
 8000cac:	f04f 30ff 	mov.w	r0, #4294967295
 8000cb0:	bd10      	pop	{r4, pc}
 8000cb2:	6013      	str	r3, [r2, #0]
 8000cb4:	e7fc      	b.n	8000cb0 <_sbrk+0x28>
 8000cb6:	bf00      	nop
 8000cb8:	2000032c 	.word	0x2000032c
 8000cbc:	20005a40 	.word	0x20005a40
 8000cc0:	20020000 	.word	0x20020000
 8000cc4:	00000400 	.word	0x00000400

08000cc8 <SystemInit>:
 8000cc8:	4a03      	ldr	r2, [pc, #12]	; (8000cd8 <SystemInit+0x10>)
 8000cca:	f8d2 3088 	ldr.w	r3, [r2, #136]	; 0x88
 8000cce:	f443 0370 	orr.w	r3, r3, #15728640	; 0xf00000
 8000cd2:	f8c2 3088 	str.w	r3, [r2, #136]	; 0x88
 8000cd6:	4770      	bx	lr
 8000cd8:	e000ed00 	.word	0xe000ed00

08000cdc <MX_USB_OTG_FS_PCD_Init>:
 8000cdc:	480c      	ldr	r0, [pc, #48]	; (8000d10 <MX_USB_OTG_FS_PCD_Init+0x34>)
 8000cde:	b508      	push	{r3, lr}
 8000ce0:	f04f 42a0 	mov.w	r2, #1342177280	; 0x50000000
 8000ce4:	2304      	movs	r3, #4
 8000ce6:	e9c0 2300 	strd	r2, r3, [r0]
 8000cea:	2300      	movs	r3, #0
 8000cec:	2202      	movs	r2, #2
 8000cee:	e9c0 2303 	strd	r2, r3, [r0, #12]
 8000cf2:	e9c0 2306 	strd	r2, r3, [r0, #24]
 8000cf6:	e9c0 3308 	strd	r3, r3, [r0, #32]
 8000cfa:	e9c0 330b 	strd	r3, r3, [r0, #44]	; 0x2c
 8000cfe:	f000 fe35 	bl	800196c <HAL_PCD_Init>
 8000d02:	b118      	cbz	r0, 8000d0c <MX_USB_OTG_FS_PCD_Init+0x30>
 8000d04:	e8bd 4008 	ldmia.w	sp!, {r3, lr}
 8000d08:	f7ff bf66 	b.w	8000bd8 <Error_Handler>
 8000d0c:	bd08      	pop	{r3, pc}
 8000d0e:	bf00      	nop
 8000d10:	20000330 	.word	0x20000330

08000d14 <HAL_PCD_MspInit>:
 8000d14:	b530      	push	{r4, r5, lr}
 8000d16:	4604      	mov	r4, r0
 8000d18:	b089      	sub	sp, #36	; 0x24
 8000d1a:	2214      	movs	r2, #20
 8000d1c:	2100      	movs	r1, #0
 8000d1e:	a803      	add	r0, sp, #12
 8000d20:	f005 fa26 	bl	8006170 <memset>
 8000d24:	6823      	ldr	r3, [r4, #0]
 8000d26:	f1b3 4fa0 	cmp.w	r3, #1342177280	; 0x50000000
 8000d2a:	d12e      	bne.n	8000d8a <HAL_PCD_MspInit+0x76>
 8000d2c:	4c18      	ldr	r4, [pc, #96]	; (8000d90 <HAL_PCD_MspInit+0x7c>)
 8000d2e:	4819      	ldr	r0, [pc, #100]	; (8000d94 <HAL_PCD_MspInit+0x80>)
 8000d30:	2500      	movs	r5, #0
 8000d32:	9501      	str	r5, [sp, #4]
 8000d34:	6b23      	ldr	r3, [r4, #48]	; 0x30
 8000d36:	f043 0301 	orr.w	r3, r3, #1
 8000d3a:	6323      	str	r3, [r4, #48]	; 0x30
 8000d3c:	6b23      	ldr	r3, [r4, #48]	; 0x30
 8000d3e:	f003 0301 	and.w	r3, r3, #1
 8000d42:	9301      	str	r3, [sp, #4]
 8000d44:	f44f 52c0 	mov.w	r2, #6144	; 0x1800
 8000d48:	9b01      	ldr	r3, [sp, #4]
 8000d4a:	2302      	movs	r3, #2
 8000d4c:	e9cd 2303 	strd	r2, r3, [sp, #12]
 8000d50:	2103      	movs	r1, #3
 8000d52:	230a      	movs	r3, #10
 8000d54:	e9cd 1306 	strd	r1, r3, [sp, #24]
 8000d58:	a903      	add	r1, sp, #12
 8000d5a:	f000 f911 	bl	8000f80 <HAL_GPIO_Init>
 8000d5e:	6b63      	ldr	r3, [r4, #52]	; 0x34
 8000d60:	f043 0380 	orr.w	r3, r3, #128	; 0x80
 8000d64:	6363      	str	r3, [r4, #52]	; 0x34
 8000d66:	9502      	str	r5, [sp, #8]
 8000d68:	6c63      	ldr	r3, [r4, #68]	; 0x44
 8000d6a:	f443 4380 	orr.w	r3, r3, #16384	; 0x4000
 8000d6e:	6463      	str	r3, [r4, #68]	; 0x44
 8000d70:	6c63      	ldr	r3, [r4, #68]	; 0x44
 8000d72:	f403 4380 	and.w	r3, r3, #16384	; 0x4000
 8000d76:	9302      	str	r3, [sp, #8]
 8000d78:	2043      	movs	r0, #67	; 0x43
 8000d7a:	462a      	mov	r2, r5
 8000d7c:	2105      	movs	r1, #5
 8000d7e:	9b02      	ldr	r3, [sp, #8]
 8000d80:	f000 f8aa 	bl	8000ed8 <HAL_NVIC_SetPriority>
 8000d84:	2043      	movs	r0, #67	; 0x43
 8000d86:	f000 f8d9 	bl	8000f3c <HAL_NVIC_EnableIRQ>
 8000d8a:	b009      	add	sp, #36	; 0x24
 8000d8c:	bd30      	pop	{r4, r5, pc}
 8000d8e:	bf00      	nop
 8000d90:	40023800 	.word	0x40023800
 8000d94:	40020000 	.word	0x40020000

08000d98 <Reset_Handler>:
 8000d98:	f8df d034 	ldr.w	sp, [pc, #52]	; 8000dd0 <LoopFillZerobss+0x12>
 8000d9c:	480d      	ldr	r0, [pc, #52]	; (8000dd4 <LoopFillZerobss+0x16>)
 8000d9e:	490e      	ldr	r1, [pc, #56]	; (8000dd8 <LoopFillZerobss+0x1a>)
 8000da0:	4a0e      	ldr	r2, [pc, #56]	; (8000ddc <LoopFillZerobss+0x1e>)
 8000da2:	2300      	movs	r3, #0
 8000da4:	e002      	b.n	8000dac <LoopCopyDataInit>

08000da6 <CopyDataInit>:
 8000da6:	58d4      	ldr	r4, [r2, r3]
 8000da8:	50c4      	str	r4, [r0, r3]
 8000daa:	3304      	adds	r3, #4

08000dac <LoopCopyDataInit>:
 8000dac:	18c4      	adds	r4, r0, r3
 8000dae:	428c      	cmp	r4, r1
 8000db0:	d3f9      	bcc.n	8000da6 <CopyDataInit>
 8000db2:	4a0b      	ldr	r2, [pc, #44]	; (8000de0 <LoopFillZerobss+0x22>)
 8000db4:	4c0b      	ldr	r4, [pc, #44]	; (8000de4 <LoopFillZerobss+0x26>)
 8000db6:	2300      	movs	r3, #0
 8000db8:	e001      	b.n	8000dbe <LoopFillZerobss>

08000dba <FillZerobss>:
 8000dba:	6013      	str	r3, [r2, #0]
 8000dbc:	3204      	adds	r2, #4

08000dbe <LoopFillZerobss>:
 8000dbe:	42a2      	cmp	r2, r4
 8000dc0:	d3fb      	bcc.n	8000dba <FillZerobss>
 8000dc2:	f7ff ff81 	bl	8000cc8 <SystemInit>
 8000dc6:	f005 f9a1 	bl	800610c <__libc_init_array>
 8000dca:	f7ff fee7 	bl	8000b9c <main>
 8000dce:	4770      	bx	lr
 8000dd0:	20020000 	.word	0x20020000
 8000dd4:	20000000 	.word	0x20000000
 8000dd8:	20000238 	.word	0x20000238
 8000ddc:	08006c70 	.word	0x08006c70
 8000de0:	20000238 	.word	0x20000238
 8000de4:	20005a40 	.word	0x20005a40

08000de8 <ADC_IRQHandler>:
 8000de8:	e7fe      	b.n	8000de8 <ADC_IRQHandler>
	...

08000dec <HAL_InitTick>:
 8000dec:	b538      	push	{r3, r4, r5, lr}
 8000dee:	4a0e      	ldr	r2, [pc, #56]	; (8000e28 <HAL_InitTick+0x3c>)
 8000df0:	4b0e      	ldr	r3, [pc, #56]	; (8000e2c <HAL_InitTick+0x40>)
 8000df2:	4605      	mov	r5, r0
 8000df4:	7818      	ldrb	r0, [r3, #0]
 8000df6:	f44f 737a 	mov.w	r3, #1000	; 0x3e8
 8000dfa:	fbb3 f3f0 	udiv	r3, r3, r0
 8000dfe:	6810      	ldr	r0, [r2, #0]
 8000e00:	fbb0 f0f3 	udiv	r0, r0, r3
 8000e04:	f000 f8a8 	bl	8000f58 <HAL_SYSTICK_Config>
 8000e08:	4604      	mov	r4, r0
 8000e0a:	b958      	cbnz	r0, 8000e24 <HAL_InitTick+0x38>
 8000e0c:	2d0f      	cmp	r5, #15
 8000e0e:	d809      	bhi.n	8000e24 <HAL_InitTick+0x38>
 8000e10:	4602      	mov	r2, r0
 8000e12:	4629      	mov	r1, r5
 8000e14:	f04f 30ff 	mov.w	r0, #4294967295
 8000e18:	f000 f85e 	bl	8000ed8 <HAL_NVIC_SetPriority>
 8000e1c:	4b04      	ldr	r3, [pc, #16]	; (8000e30 <HAL_InitTick+0x44>)
 8000e1e:	4620      	mov	r0, r4
 8000e20:	601d      	str	r5, [r3, #0]
 8000e22:	bd38      	pop	{r3, r4, r5, pc}
 8000e24:	2001      	movs	r0, #1
 8000e26:	e7fc      	b.n	8000e22 <HAL_InitTick+0x36>
 8000e28:	20000038 	.word	0x20000038
 8000e2c:	2000003c 	.word	0x2000003c
 8000e30:	20000040 	.word	0x20000040

08000e34 <HAL_Init>:
 8000e34:	b508      	push	{r3, lr}
 8000e36:	4b0b      	ldr	r3, [pc, #44]	; (8000e64 <HAL_Init+0x30>)
 8000e38:	681a      	ldr	r2, [r3, #0]
 8000e3a:	f442 7200 	orr.w	r2, r2, #512	; 0x200
 8000e3e:	601a      	str	r2, [r3, #0]
 8000e40:	681a      	ldr	r2, [r3, #0]
 8000e42:	f442 6280 	orr.w	r2, r2, #1024	; 0x400
 8000e46:	601a      	str	r2, [r3, #0]
 8000e48:	681a      	ldr	r2, [r3, #0]
 8000e4a:	f442 7280 	orr.w	r2, r2, #256	; 0x100
 8000e4e:	601a      	str	r2, [r3, #0]
 8000e50:	2003      	movs	r0, #3
 8000e52:	f000 f82f 	bl	8000eb4 <HAL_NVIC_SetPriorityGrouping>
 8000e56:	200f      	movs	r0, #15
 8000e58:	f7ff ffc8 	bl	8000dec <HAL_InitTick>
 8000e5c:	f7ff fed4 	bl	8000c08 <HAL_MspInit>
 8000e60:	2000      	movs	r0, #0
 8000e62:	bd08      	pop	{r3, pc}
 8000e64:	40023c00 	.word	0x40023c00

08000e68 <HAL_IncTick>:
 8000e68:	4a03      	ldr	r2, [pc, #12]	; (8000e78 <HAL_IncTick+0x10>)
 8000e6a:	4b04      	ldr	r3, [pc, #16]	; (8000e7c <HAL_IncTick+0x14>)
 8000e6c:	6811      	ldr	r1, [r2, #0]
 8000e6e:	781b      	ldrb	r3, [r3, #0]
 8000e70:	440b      	add	r3, r1
 8000e72:	6013      	str	r3, [r2, #0]
 8000e74:	4770      	bx	lr
 8000e76:	bf00      	nop
 8000e78:	2000083c 	.word	0x2000083c
 8000e7c:	2000003c 	.word	0x2000003c

08000e80 <HAL_GetTick>:
 8000e80:	4b01      	ldr	r3, [pc, #4]	; (8000e88 <HAL_GetTick+0x8>)
 8000e82:	6818      	ldr	r0, [r3, #0]
 8000e84:	4770      	bx	lr
 8000e86:	bf00      	nop
 8000e88:	2000083c 	.word	0x2000083c

08000e8c <HAL_Delay>:
 8000e8c:	b538      	push	{r3, r4, r5, lr}
 8000e8e:	4604      	mov	r4, r0
 8000e90:	f7ff fff6 	bl	8000e80 <HAL_GetTick>
 8000e94:	1c63      	adds	r3, r4, #1
 8000e96:	bf1c      	itt	ne
 8000e98:	4b05      	ldrne	r3, [pc, #20]	; (8000eb0 <HAL_Delay+0x24>)
 8000e9a:	781b      	ldrbne	r3, [r3, #0]
 8000e9c:	4605      	mov	r5, r0
 8000e9e:	bf18      	it	ne
 8000ea0:	18e4      	addne	r4, r4, r3
 8000ea2:	f7ff ffed 	bl	8000e80 <HAL_GetTick>
 8000ea6:	1b43      	subs	r3, r0, r5
 8000ea8:	42a3      	cmp	r3, r4
 8000eaa:	d3fa      	bcc.n	8000ea2 <HAL_Delay+0x16>
 8000eac:	bd38      	pop	{r3, r4, r5, pc}
 8000eae:	bf00      	nop
 8000eb0:	2000003c 	.word	0x2000003c

08000eb4 <HAL_NVIC_SetPriorityGrouping>:
 8000eb4:	4907      	ldr	r1, [pc, #28]	; (8000ed4 <HAL_NVIC_SetPriorityGrouping+0x20>)
 8000eb6:	68ca      	ldr	r2, [r1, #12]
 8000eb8:	f422 62e0 	bic.w	r2, r2, #1792	; 0x700
 8000ebc:	0203      	lsls	r3, r0, #8
 8000ebe:	0412      	lsls	r2, r2, #16
 8000ec0:	f403 63e0 	and.w	r3, r3, #1792	; 0x700
 8000ec4:	0c12      	lsrs	r2, r2, #16
 8000ec6:	4313      	orrs	r3, r2
 8000ec8:	f043 63bf 	orr.w	r3, r3, #100139008	; 0x5f80000
 8000ecc:	f443 3300 	orr.w	r3, r3, #131072	; 0x20000
 8000ed0:	60cb      	str	r3, [r1, #12]
 8000ed2:	4770      	bx	lr
 8000ed4:	e000ed00 	.word	0xe000ed00

08000ed8 <HAL_NVIC_SetPriority>:
 8000ed8:	4b16      	ldr	r3, [pc, #88]	; (8000f34 <HAL_NVIC_SetPriority+0x5c>)
 8000eda:	b530      	push	{r4, r5, lr}
 8000edc:	68dc      	ldr	r4, [r3, #12]
 8000ede:	f3c4 2402 	ubfx	r4, r4, #8, #3
 8000ee2:	f1c4 0507 	rsb	r5, r4, #7
 8000ee6:	1d23      	adds	r3, r4, #4
 8000ee8:	2d04      	cmp	r5, #4
 8000eea:	bf28      	it	cs
 8000eec:	2504      	movcs	r5, #4
 8000eee:	2b06      	cmp	r3, #6
 8000ef0:	f04f 33ff 	mov.w	r3, #4294967295
 8000ef4:	bf8c      	ite	hi
 8000ef6:	3c03      	subhi	r4, #3
 8000ef8:	2400      	movls	r4, #0
 8000efa:	fa03 f505 	lsl.w	r5, r3, r5
 8000efe:	ea21 0105 	bic.w	r1, r1, r5
 8000f02:	40a3      	lsls	r3, r4
 8000f04:	ea22 0203 	bic.w	r2, r2, r3
 8000f08:	40a1      	lsls	r1, r4
 8000f0a:	2800      	cmp	r0, #0
 8000f0c:	ea41 0302 	orr.w	r3, r1, r2
 8000f10:	bfac      	ite	ge
 8000f12:	f100 4060 	addge.w	r0, r0, #3758096384	; 0xe0000000
 8000f16:	4a08      	ldrlt	r2, [pc, #32]	; (8000f38 <HAL_NVIC_SetPriority+0x60>)
 8000f18:	ea4f 1303 	mov.w	r3, r3, lsl #4
 8000f1c:	bfb8      	it	lt
 8000f1e:	f000 000f 	andlt.w	r0, r0, #15
 8000f22:	b2db      	uxtb	r3, r3
 8000f24:	bfaa      	itet	ge
 8000f26:	f500 4061 	addge.w	r0, r0, #57600	; 0xe100
 8000f2a:	5413      	strblt	r3, [r2, r0]
 8000f2c:	f880 3300 	strbge.w	r3, [r0, #768]	; 0x300
 8000f30:	bd30      	pop	{r4, r5, pc}
 8000f32:	bf00      	nop
 8000f34:	e000ed00 	.word	0xe000ed00
 8000f38:	e000ed14 	.word	0xe000ed14

08000f3c <HAL_NVIC_EnableIRQ>:
 8000f3c:	2800      	cmp	r0, #0
 8000f3e:	db08      	blt.n	8000f52 <HAL_NVIC_EnableIRQ+0x16>
 8000f40:	0942      	lsrs	r2, r0, #5
 8000f42:	2301      	movs	r3, #1
 8000f44:	f000 001f 	and.w	r0, r0, #31
 8000f48:	fa03 f000 	lsl.w	r0, r3, r0
 8000f4c:	4b01      	ldr	r3, [pc, #4]	; (8000f54 <HAL_NVIC_EnableIRQ+0x18>)
 8000f4e:	f843 0022 	str.w	r0, [r3, r2, lsl #2]
 8000f52:	4770      	bx	lr
 8000f54:	e000e100 	.word	0xe000e100

08000f58 <HAL_SYSTICK_Config>:
 8000f58:	3801      	subs	r0, #1
 8000f5a:	f1b0 7f80 	cmp.w	r0, #16777216	; 0x1000000
 8000f5e:	d20b      	bcs.n	8000f78 <HAL_SYSTICK_Config+0x20>
 8000f60:	f04f 23e0 	mov.w	r3, #3758153728	; 0xe000e000
 8000f64:	4a05      	ldr	r2, [pc, #20]	; (8000f7c <HAL_SYSTICK_Config+0x24>)
 8000f66:	6158      	str	r0, [r3, #20]
 8000f68:	21f0      	movs	r1, #240	; 0xf0
 8000f6a:	f882 1023 	strb.w	r1, [r2, #35]	; 0x23
 8000f6e:	2000      	movs	r0, #0
 8000f70:	2207      	movs	r2, #7
 8000f72:	6198      	str	r0, [r3, #24]
 8000f74:	611a      	str	r2, [r3, #16]
 8000f76:	4770      	bx	lr
 8000f78:	2001      	movs	r0, #1
 8000f7a:	4770      	bx	lr
 8000f7c:	e000ed00 	.word	0xe000ed00

08000f80 <HAL_GPIO_Init>:
 8000f80:	e92d 4ff7 	stmdb	sp!, {r0, r1, r2, r4, r5, r6, r7, r8, r9, sl, fp, lr}
 8000f84:	f8df 9184 	ldr.w	r9, [pc, #388]	; 800110c <HAL_GPIO_Init+0x18c>
 8000f88:	4a5e      	ldr	r2, [pc, #376]	; (8001104 <HAL_GPIO_Init+0x184>)
 8000f8a:	2300      	movs	r3, #0
 8000f8c:	680d      	ldr	r5, [r1, #0]
 8000f8e:	2401      	movs	r4, #1
 8000f90:	409c      	lsls	r4, r3
 8000f92:	ea04 0c05 	and.w	ip, r4, r5
 8000f96:	43ac      	bics	r4, r5
 8000f98:	f040 80a5 	bne.w	80010e6 <HAL_GPIO_Init+0x166>
 8000f9c:	684d      	ldr	r5, [r1, #4]
 8000f9e:	f005 0403 	and.w	r4, r5, #3
 8000fa2:	ea4f 0843 	mov.w	r8, r3, lsl #1
 8000fa6:	2603      	movs	r6, #3
 8000fa8:	1e67      	subs	r7, r4, #1
 8000faa:	fa06 f608 	lsl.w	r6, r6, r8
 8000fae:	2f01      	cmp	r7, #1
 8000fb0:	ea6f 0606 	mvn.w	r6, r6
 8000fb4:	d834      	bhi.n	8001020 <HAL_GPIO_Init+0xa0>
 8000fb6:	6887      	ldr	r7, [r0, #8]
 8000fb8:	ea07 0e06 	and.w	lr, r7, r6
 8000fbc:	68cf      	ldr	r7, [r1, #12]
 8000fbe:	fa07 f708 	lsl.w	r7, r7, r8
 8000fc2:	ea47 070e 	orr.w	r7, r7, lr
 8000fc6:	6087      	str	r7, [r0, #8]
 8000fc8:	6847      	ldr	r7, [r0, #4]
 8000fca:	ea27 0e0c 	bic.w	lr, r7, ip
 8000fce:	f3c5 1700 	ubfx	r7, r5, #4, #1
 8000fd2:	409f      	lsls	r7, r3
 8000fd4:	ea47 070e 	orr.w	r7, r7, lr
 8000fd8:	6047      	str	r7, [r0, #4]
 8000fda:	68c7      	ldr	r7, [r0, #12]
 8000fdc:	ea07 0e06 	and.w	lr, r7, r6
 8000fe0:	688f      	ldr	r7, [r1, #8]
 8000fe2:	fa07 f708 	lsl.w	r7, r7, r8
 8000fe6:	ea47 070e 	orr.w	r7, r7, lr
 8000fea:	2c02      	cmp	r4, #2
 8000fec:	60c7      	str	r7, [r0, #12]
 8000fee:	d119      	bne.n	8001024 <HAL_GPIO_Init+0xa4>
 8000ff0:	ea4f 0ad3 	mov.w	sl, r3, lsr #3
 8000ff4:	eb00 0a8a 	add.w	sl, r0, sl, lsl #2
 8000ff8:	f003 0b07 	and.w	fp, r3, #7
 8000ffc:	f8da 7020 	ldr.w	r7, [sl, #32]
 8001000:	ea4f 0b8b 	mov.w	fp, fp, lsl #2
 8001004:	f04f 0e0f 	mov.w	lr, #15
 8001008:	fa0e fe0b 	lsl.w	lr, lr, fp
 800100c:	ea27 0e0e 	bic.w	lr, r7, lr
 8001010:	690f      	ldr	r7, [r1, #16]
 8001012:	fa07 f70b 	lsl.w	r7, r7, fp
 8001016:	ea47 070e 	orr.w	r7, r7, lr
 800101a:	f8ca 7020 	str.w	r7, [sl, #32]
 800101e:	e001      	b.n	8001024 <HAL_GPIO_Init+0xa4>
 8001020:	2c03      	cmp	r4, #3
 8001022:	d1da      	bne.n	8000fda <HAL_GPIO_Init+0x5a>
 8001024:	6807      	ldr	r7, [r0, #0]
 8001026:	fa04 f408 	lsl.w	r4, r4, r8
 800102a:	403e      	ands	r6, r7
 800102c:	4326      	orrs	r6, r4
 800102e:	f415 3f40 	tst.w	r5, #196608	; 0x30000
 8001032:	6006      	str	r6, [r0, #0]
 8001034:	d057      	beq.n	80010e6 <HAL_GPIO_Init+0x166>
 8001036:	f04f 0a00 	mov.w	sl, #0
 800103a:	f8cd a004 	str.w	sl, [sp, #4]
 800103e:	f8d9 6044 	ldr.w	r6, [r9, #68]	; 0x44
 8001042:	4c31      	ldr	r4, [pc, #196]	; (8001108 <HAL_GPIO_Init+0x188>)
 8001044:	f446 4680 	orr.w	r6, r6, #16384	; 0x4000
 8001048:	f8c9 6044 	str.w	r6, [r9, #68]	; 0x44
 800104c:	f8d9 6044 	ldr.w	r6, [r9, #68]	; 0x44
 8001050:	f406 4680 	and.w	r6, r6, #16384	; 0x4000
 8001054:	9601      	str	r6, [sp, #4]
 8001056:	9e01      	ldr	r6, [sp, #4]
 8001058:	f023 0603 	bic.w	r6, r3, #3
 800105c:	f106 4680 	add.w	r6, r6, #1073741824	; 0x40000000
 8001060:	f506 369c 	add.w	r6, r6, #79872	; 0x13800
 8001064:	f003 0e03 	and.w	lr, r3, #3
 8001068:	f8d6 8008 	ldr.w	r8, [r6, #8]
 800106c:	ea4f 0e8e 	mov.w	lr, lr, lsl #2
 8001070:	270f      	movs	r7, #15
 8001072:	fa07 f70e 	lsl.w	r7, r7, lr
 8001076:	42a0      	cmp	r0, r4
 8001078:	ea28 0707 	bic.w	r7, r8, r7
 800107c:	d03a      	beq.n	80010f4 <HAL_GPIO_Init+0x174>
 800107e:	f504 6480 	add.w	r4, r4, #1024	; 0x400
 8001082:	42a0      	cmp	r0, r4
 8001084:	d038      	beq.n	80010f8 <HAL_GPIO_Init+0x178>
 8001086:	f504 6480 	add.w	r4, r4, #1024	; 0x400
 800108a:	42a0      	cmp	r0, r4
 800108c:	d036      	beq.n	80010fc <HAL_GPIO_Init+0x17c>
 800108e:	f504 6480 	add.w	r4, r4, #1024	; 0x400
 8001092:	42a0      	cmp	r0, r4
 8001094:	d034      	beq.n	8001100 <HAL_GPIO_Init+0x180>
 8001096:	f504 6480 	add.w	r4, r4, #1024	; 0x400
 800109a:	42a0      	cmp	r0, r4
 800109c:	bf0c      	ite	eq
 800109e:	2404      	moveq	r4, #4
 80010a0:	2407      	movne	r4, #7
 80010a2:	fa04 f40e 	lsl.w	r4, r4, lr
 80010a6:	433c      	orrs	r4, r7
 80010a8:	60b4      	str	r4, [r6, #8]
 80010aa:	6894      	ldr	r4, [r2, #8]
 80010ac:	ea6f 060c 	mvn.w	r6, ip
 80010b0:	02ef      	lsls	r7, r5, #11
 80010b2:	bf54      	ite	pl
 80010b4:	4034      	andpl	r4, r6
 80010b6:	ea4c 0404 	orrmi.w	r4, ip, r4
 80010ba:	6094      	str	r4, [r2, #8]
 80010bc:	68d4      	ldr	r4, [r2, #12]
 80010be:	02af      	lsls	r7, r5, #10
 80010c0:	bf54      	ite	pl
 80010c2:	4034      	andpl	r4, r6
 80010c4:	ea4c 0404 	orrmi.w	r4, ip, r4
 80010c8:	60d4      	str	r4, [r2, #12]
 80010ca:	6854      	ldr	r4, [r2, #4]
 80010cc:	03af      	lsls	r7, r5, #14
 80010ce:	bf54      	ite	pl
 80010d0:	4034      	andpl	r4, r6
 80010d2:	ea4c 0404 	orrmi.w	r4, ip, r4
 80010d6:	6054      	str	r4, [r2, #4]
 80010d8:	6814      	ldr	r4, [r2, #0]
 80010da:	03ed      	lsls	r5, r5, #15
 80010dc:	bf54      	ite	pl
 80010de:	4034      	andpl	r4, r6
 80010e0:	ea4c 0404 	orrmi.w	r4, ip, r4
 80010e4:	6014      	str	r4, [r2, #0]
 80010e6:	3301      	adds	r3, #1
 80010e8:	2b10      	cmp	r3, #16
 80010ea:	f47f af4f 	bne.w	8000f8c <HAL_GPIO_Init+0xc>
 80010ee:	b003      	add	sp, #12
 80010f0:	e8bd 8ff0 	ldmia.w	sp!, {r4, r5, r6, r7, r8, r9, sl, fp, pc}
 80010f4:	4654      	mov	r4, sl
 80010f6:	e7d4      	b.n	80010a2 <HAL_GPIO_Init+0x122>
 80010f8:	2401      	movs	r4, #1
 80010fa:	e7d2      	b.n	80010a2 <HAL_GPIO_Init+0x122>
 80010fc:	2402      	movs	r4, #2
 80010fe:	e7d0      	b.n	80010a2 <HAL_GPIO_Init+0x122>
 8001100:	2403      	movs	r4, #3
 8001102:	e7ce      	b.n	80010a2 <HAL_GPIO_Init+0x122>
 8001104:	40013c00 	.word	0x40013c00
 8001108:	40020000 	.word	0x40020000
 800110c:	40023800 	.word	0x40023800

08001110 <HAL_GPIO_WritePin>:
 8001110:	b10a      	cbz	r2, 8001116 <HAL_GPIO_WritePin+0x6>
 8001112:	6181      	str	r1, [r0, #24]
 8001114:	4770      	bx	lr
 8001116:	0409      	lsls	r1, r1, #16
 8001118:	e7fb      	b.n	8001112 <HAL_GPIO_WritePin+0x2>

0800111a <HAL_GPIO_EXTI_Callback>:
 800111a:	4770      	bx	lr

0800111c <HAL_GPIO_EXTI_IRQHandler>:
 800111c:	4a04      	ldr	r2, [pc, #16]	; (8001130 <HAL_GPIO_EXTI_IRQHandler+0x14>)
 800111e:	6951      	ldr	r1, [r2, #20]
 8001120:	4201      	tst	r1, r0
 8001122:	b508      	push	{r3, lr}
 8001124:	d002      	beq.n	800112c <HAL_GPIO_EXTI_IRQHandler+0x10>
 8001126:	6150      	str	r0, [r2, #20]
 8001128:	f7ff fff7 	bl	800111a <HAL_GPIO_EXTI_Callback>
 800112c:	bd08      	pop	{r3, pc}
 800112e:	bf00      	nop
 8001130:	40013c00 	.word	0x40013c00

08001134 <I2C_IsAcknowledgeFailed>:
 8001134:	6801      	ldr	r1, [r0, #0]
 8001136:	694b      	ldr	r3, [r1, #20]
 8001138:	f413 6380 	ands.w	r3, r3, #1024	; 0x400
 800113c:	f04f 0200 	mov.w	r2, #0
 8001140:	d010      	beq.n	8001164 <I2C_IsAcknowledgeFailed+0x30>
 8001142:	f46f 6380 	mvn.w	r3, #1024	; 0x400
 8001146:	614b      	str	r3, [r1, #20]
 8001148:	2320      	movs	r3, #32
 800114a:	6302      	str	r2, [r0, #48]	; 0x30
 800114c:	f880 303d 	strb.w	r3, [r0, #61]	; 0x3d
 8001150:	f880 203e 	strb.w	r2, [r0, #62]	; 0x3e
 8001154:	6c03      	ldr	r3, [r0, #64]	; 0x40
 8001156:	f880 203c 	strb.w	r2, [r0, #60]	; 0x3c
 800115a:	f043 0304 	orr.w	r3, r3, #4
 800115e:	6403      	str	r3, [r0, #64]	; 0x40
 8001160:	2001      	movs	r0, #1
 8001162:	4770      	bx	lr
 8001164:	4618      	mov	r0, r3
 8001166:	4770      	bx	lr

08001168 <I2C_WaitOnFlagUntilTimeout>:
 8001168:	e92d 46f8 	stmdb	sp!, {r3, r4, r5, r6, r7, r9, sl, lr}
 800116c:	4606      	mov	r6, r0
 800116e:	460f      	mov	r7, r1
 8001170:	4691      	mov	r9, r2
 8001172:	461d      	mov	r5, r3
 8001174:	ea4f 4a11 	mov.w	sl, r1, lsr #16
 8001178:	6833      	ldr	r3, [r6, #0]
 800117a:	f1ba 0f01 	cmp.w	sl, #1
 800117e:	bf0c      	ite	eq
 8001180:	695c      	ldreq	r4, [r3, #20]
 8001182:	699c      	ldrne	r4, [r3, #24]
 8001184:	ea27 0404 	bic.w	r4, r7, r4
 8001188:	b2a4      	uxth	r4, r4
 800118a:	fab4 f484 	clz	r4, r4
 800118e:	0964      	lsrs	r4, r4, #5
 8001190:	45a1      	cmp	r9, r4
 8001192:	d001      	beq.n	8001198 <I2C_WaitOnFlagUntilTimeout+0x30>
 8001194:	2000      	movs	r0, #0
 8001196:	e017      	b.n	80011c8 <I2C_WaitOnFlagUntilTimeout+0x60>
 8001198:	1c6a      	adds	r2, r5, #1
 800119a:	d0ee      	beq.n	800117a <I2C_WaitOnFlagUntilTimeout+0x12>
 800119c:	f7ff fe70 	bl	8000e80 <HAL_GetTick>
 80011a0:	9b08      	ldr	r3, [sp, #32]
 80011a2:	1ac0      	subs	r0, r0, r3
 80011a4:	42a8      	cmp	r0, r5
 80011a6:	d801      	bhi.n	80011ac <I2C_WaitOnFlagUntilTimeout+0x44>
 80011a8:	2d00      	cmp	r5, #0
 80011aa:	d1e5      	bne.n	8001178 <I2C_WaitOnFlagUntilTimeout+0x10>
 80011ac:	2300      	movs	r3, #0
 80011ae:	2220      	movs	r2, #32
 80011b0:	6333      	str	r3, [r6, #48]	; 0x30
 80011b2:	f886 203d 	strb.w	r2, [r6, #61]	; 0x3d
 80011b6:	f886 303e 	strb.w	r3, [r6, #62]	; 0x3e
 80011ba:	6c32      	ldr	r2, [r6, #64]	; 0x40
 80011bc:	f886 303c 	strb.w	r3, [r6, #60]	; 0x3c
 80011c0:	f042 0220 	orr.w	r2, r2, #32
 80011c4:	6432      	str	r2, [r6, #64]	; 0x40
 80011c6:	2001      	movs	r0, #1
 80011c8:	e8bd 86f8 	ldmia.w	sp!, {r3, r4, r5, r6, r7, r9, sl, pc}

080011cc <I2C_WaitOnMasterAddressFlagUntilTimeout>:
 80011cc:	e92d 41f0 	stmdb	sp!, {r4, r5, r6, r7, r8, lr}
 80011d0:	4604      	mov	r4, r0
 80011d2:	460f      	mov	r7, r1
 80011d4:	4616      	mov	r6, r2
 80011d6:	4698      	mov	r8, r3
 80011d8:	6825      	ldr	r5, [r4, #0]
 80011da:	6968      	ldr	r0, [r5, #20]
 80011dc:	ea27 0000 	bic.w	r0, r7, r0
 80011e0:	b280      	uxth	r0, r0
 80011e2:	b1b8      	cbz	r0, 8001214 <I2C_WaitOnMasterAddressFlagUntilTimeout+0x48>
 80011e4:	696b      	ldr	r3, [r5, #20]
 80011e6:	055a      	lsls	r2, r3, #21
 80011e8:	d516      	bpl.n	8001218 <I2C_WaitOnMasterAddressFlagUntilTimeout+0x4c>
 80011ea:	682b      	ldr	r3, [r5, #0]
 80011ec:	f443 7300 	orr.w	r3, r3, #512	; 0x200
 80011f0:	602b      	str	r3, [r5, #0]
 80011f2:	f46f 6380 	mvn.w	r3, #1024	; 0x400
 80011f6:	616b      	str	r3, [r5, #20]
 80011f8:	2220      	movs	r2, #32
 80011fa:	2300      	movs	r3, #0
 80011fc:	6323      	str	r3, [r4, #48]	; 0x30
 80011fe:	f884 203d 	strb.w	r2, [r4, #61]	; 0x3d
 8001202:	f884 303e 	strb.w	r3, [r4, #62]	; 0x3e
 8001206:	6c22      	ldr	r2, [r4, #64]	; 0x40
 8001208:	f042 0204 	orr.w	r2, r2, #4
 800120c:	6422      	str	r2, [r4, #64]	; 0x40
 800120e:	f884 303c 	strb.w	r3, [r4, #60]	; 0x3c
 8001212:	2001      	movs	r0, #1
 8001214:	e8bd 81f0 	ldmia.w	sp!, {r4, r5, r6, r7, r8, pc}
 8001218:	1c73      	adds	r3, r6, #1
 800121a:	d0de      	beq.n	80011da <I2C_WaitOnMasterAddressFlagUntilTimeout+0xe>
 800121c:	f7ff fe30 	bl	8000e80 <HAL_GetTick>
 8001220:	eba0 0008 	sub.w	r0, r0, r8
 8001224:	42b0      	cmp	r0, r6
 8001226:	d801      	bhi.n	800122c <I2C_WaitOnMasterAddressFlagUntilTimeout+0x60>
 8001228:	2e00      	cmp	r6, #0
 800122a:	d1d5      	bne.n	80011d8 <I2C_WaitOnMasterAddressFlagUntilTimeout+0xc>
 800122c:	2300      	movs	r3, #0
 800122e:	2220      	movs	r2, #32
 8001230:	6323      	str	r3, [r4, #48]	; 0x30
 8001232:	f884 203d 	strb.w	r2, [r4, #61]	; 0x3d
 8001236:	f884 303e 	strb.w	r3, [r4, #62]	; 0x3e
 800123a:	6c22      	ldr	r2, [r4, #64]	; 0x40
 800123c:	f042 0220 	orr.w	r2, r2, #32
 8001240:	e7e4      	b.n	800120c <I2C_WaitOnMasterAddressFlagUntilTimeout+0x40>

08001242 <I2C_WaitOnRXNEFlagUntilTimeout>:
 8001242:	b570      	push	{r4, r5, r6, lr}
 8001244:	4604      	mov	r4, r0
 8001246:	460d      	mov	r5, r1
 8001248:	4616      	mov	r6, r2
 800124a:	6821      	ldr	r1, [r4, #0]
 800124c:	694b      	ldr	r3, [r1, #20]
 800124e:	f013 0340 	ands.w	r3, r3, #64	; 0x40
 8001252:	d001      	beq.n	8001258 <I2C_WaitOnRXNEFlagUntilTimeout+0x16>
 8001254:	2000      	movs	r0, #0
 8001256:	e010      	b.n	800127a <I2C_WaitOnRXNEFlagUntilTimeout+0x38>
 8001258:	694a      	ldr	r2, [r1, #20]
 800125a:	06d2      	lsls	r2, r2, #27
 800125c:	d50e      	bpl.n	800127c <I2C_WaitOnRXNEFlagUntilTimeout+0x3a>
 800125e:	f06f 0210 	mvn.w	r2, #16
 8001262:	614a      	str	r2, [r1, #20]
 8001264:	2220      	movs	r2, #32
 8001266:	6323      	str	r3, [r4, #48]	; 0x30
 8001268:	f884 203d 	strb.w	r2, [r4, #61]	; 0x3d
 800126c:	f884 303e 	strb.w	r3, [r4, #62]	; 0x3e
 8001270:	6c22      	ldr	r2, [r4, #64]	; 0x40
 8001272:	6422      	str	r2, [r4, #64]	; 0x40
 8001274:	f884 303c 	strb.w	r3, [r4, #60]	; 0x3c
 8001278:	2001      	movs	r0, #1
 800127a:	bd70      	pop	{r4, r5, r6, pc}
 800127c:	f7ff fe00 	bl	8000e80 <HAL_GetTick>
 8001280:	1b80      	subs	r0, r0, r6
 8001282:	42a8      	cmp	r0, r5
 8001284:	d801      	bhi.n	800128a <I2C_WaitOnRXNEFlagUntilTimeout+0x48>
 8001286:	2d00      	cmp	r5, #0
 8001288:	d1df      	bne.n	800124a <I2C_WaitOnRXNEFlagUntilTimeout+0x8>
 800128a:	2300      	movs	r3, #0
 800128c:	2220      	movs	r2, #32
 800128e:	6323      	str	r3, [r4, #48]	; 0x30
 8001290:	f884 203d 	strb.w	r2, [r4, #61]	; 0x3d
 8001294:	f884 303e 	strb.w	r3, [r4, #62]	; 0x3e
 8001298:	6c22      	ldr	r2, [r4, #64]	; 0x40
 800129a:	f042 0220 	orr.w	r2, r2, #32
 800129e:	e7e8      	b.n	8001272 <I2C_WaitOnRXNEFlagUntilTimeout+0x30>

080012a0 <I2C_WaitOnBTFFlagUntilTimeout>:
 80012a0:	b570      	push	{r4, r5, r6, lr}
 80012a2:	4604      	mov	r4, r0
 80012a4:	460d      	mov	r5, r1
 80012a6:	4616      	mov	r6, r2
 80012a8:	6823      	ldr	r3, [r4, #0]
 80012aa:	695b      	ldr	r3, [r3, #20]
 80012ac:	075b      	lsls	r3, r3, #29
 80012ae:	d501      	bpl.n	80012b4 <I2C_WaitOnBTFFlagUntilTimeout+0x14>
 80012b0:	2000      	movs	r0, #0
 80012b2:	bd70      	pop	{r4, r5, r6, pc}
 80012b4:	4620      	mov	r0, r4
 80012b6:	f7ff ff3d 	bl	8001134 <I2C_IsAcknowledgeFailed>
 80012ba:	b9a8      	cbnz	r0, 80012e8 <I2C_WaitOnBTFFlagUntilTimeout+0x48>
 80012bc:	1c6a      	adds	r2, r5, #1
 80012be:	d0f3      	beq.n	80012a8 <I2C_WaitOnBTFFlagUntilTimeout+0x8>
 80012c0:	f7ff fdde 	bl	8000e80 <HAL_GetTick>
 80012c4:	1b80      	subs	r0, r0, r6
 80012c6:	42a8      	cmp	r0, r5
 80012c8:	d801      	bhi.n	80012ce <I2C_WaitOnBTFFlagUntilTimeout+0x2e>
 80012ca:	2d00      	cmp	r5, #0
 80012cc:	d1ec      	bne.n	80012a8 <I2C_WaitOnBTFFlagUntilTimeout+0x8>
 80012ce:	2300      	movs	r3, #0
 80012d0:	2220      	movs	r2, #32
 80012d2:	6323      	str	r3, [r4, #48]	; 0x30
 80012d4:	f884 203d 	strb.w	r2, [r4, #61]	; 0x3d
 80012d8:	f884 303e 	strb.w	r3, [r4, #62]	; 0x3e
 80012dc:	6c22      	ldr	r2, [r4, #64]	; 0x40
 80012de:	f884 303c 	strb.w	r3, [r4, #60]	; 0x3c
 80012e2:	f042 0220 	orr.w	r2, r2, #32
 80012e6:	6422      	str	r2, [r4, #64]	; 0x40
 80012e8:	2001      	movs	r0, #1
 80012ea:	e7e2      	b.n	80012b2 <I2C_WaitOnBTFFlagUntilTimeout+0x12>

080012ec <I2C_WaitOnTXEFlagUntilTimeout>:
 80012ec:	b570      	push	{r4, r5, r6, lr}
 80012ee:	4604      	mov	r4, r0
 80012f0:	460d      	mov	r5, r1
 80012f2:	4616      	mov	r6, r2
 80012f4:	6823      	ldr	r3, [r4, #0]
 80012f6:	695b      	ldr	r3, [r3, #20]
 80012f8:	061b      	lsls	r3, r3, #24
 80012fa:	d501      	bpl.n	8001300 <I2C_WaitOnTXEFlagUntilTimeout+0x14>
 80012fc:	2000      	movs	r0, #0
 80012fe:	bd70      	pop	{r4, r5, r6, pc}
 8001300:	4620      	mov	r0, r4
 8001302:	f7ff ff17 	bl	8001134 <I2C_IsAcknowledgeFailed>
 8001306:	b9a8      	cbnz	r0, 8001334 <I2C_WaitOnTXEFlagUntilTimeout+0x48>
 8001308:	1c6a      	adds	r2, r5, #1
 800130a:	d0f3      	beq.n	80012f4 <I2C_WaitOnTXEFlagUntilTimeout+0x8>
 800130c:	f7ff fdb8 	bl	8000e80 <HAL_GetTick>
 8001310:	1b80      	subs	r0, r0, r6
 8001312:	42a8      	cmp	r0, r5
 8001314:	d801      	bhi.n	800131a <I2C_WaitOnTXEFlagUntilTimeout+0x2e>
 8001316:	2d00      	cmp	r5, #0
 8001318:	d1ec      	bne.n	80012f4 <I2C_WaitOnTXEFlagUntilTimeout+0x8>
 800131a:	2300      	movs	r3, #0
 800131c:	2220      	movs	r2, #32
 800131e:	6323      	str	r3, [r4, #48]	; 0x30
 8001320:	f884 203d 	strb.w	r2, [r4, #61]	; 0x3d
 8001324:	f884 303e 	strb.w	r3, [r4, #62]	; 0x3e
 8001328:	6c22      	ldr	r2, [r4, #64]	; 0x40
 800132a:	f884 303c 	strb.w	r3, [r4, #60]	; 0x3c
 800132e:	f042 0220 	orr.w	r2, r2, #32
 8001332:	6422      	str	r2, [r4, #64]	; 0x40
 8001334:	2001      	movs	r0, #1
 8001336:	e7e2      	b.n	80012fe <I2C_WaitOnTXEFlagUntilTimeout+0x12>

08001338 <I2C_RequestMemoryWrite>:
 8001338:	e92d 43f0 	stmdb	sp!, {r4, r5, r6, r7, r8, r9, lr}
 800133c:	4615      	mov	r5, r2
 800133e:	6802      	ldr	r2, [r0, #0]
 8001340:	b085      	sub	sp, #20
 8001342:	e9dd 780c 	ldrd	r7, r8, [sp, #48]	; 0x30
 8001346:	4699      	mov	r9, r3
 8001348:	6813      	ldr	r3, [r2, #0]
 800134a:	f443 7380 	orr.w	r3, r3, #256	; 0x100
 800134e:	6013      	str	r3, [r2, #0]
 8001350:	460e      	mov	r6, r1
 8001352:	463b      	mov	r3, r7
 8001354:	f8cd 8000 	str.w	r8, [sp]
 8001358:	2200      	movs	r2, #0
 800135a:	f04f 1101 	mov.w	r1, #65537	; 0x10001
 800135e:	4604      	mov	r4, r0
 8001360:	f7ff ff02 	bl	8001168 <I2C_WaitOnFlagUntilTimeout>
 8001364:	6823      	ldr	r3, [r4, #0]
 8001366:	b138      	cbz	r0, 8001378 <I2C_RequestMemoryWrite+0x40>
 8001368:	681b      	ldr	r3, [r3, #0]
 800136a:	05db      	lsls	r3, r3, #23
 800136c:	d502      	bpl.n	8001374 <I2C_RequestMemoryWrite+0x3c>
 800136e:	f44f 7300 	mov.w	r3, #512	; 0x200
 8001372:	6423      	str	r3, [r4, #64]	; 0x40
 8001374:	2003      	movs	r0, #3
 8001376:	e00a      	b.n	800138e <I2C_RequestMemoryWrite+0x56>
 8001378:	f006 06fe 	and.w	r6, r6, #254	; 0xfe
 800137c:	611e      	str	r6, [r3, #16]
 800137e:	4919      	ldr	r1, [pc, #100]	; (80013e4 <I2C_RequestMemoryWrite+0xac>)
 8001380:	4643      	mov	r3, r8
 8001382:	463a      	mov	r2, r7
 8001384:	4620      	mov	r0, r4
 8001386:	f7ff ff21 	bl	80011cc <I2C_WaitOnMasterAddressFlagUntilTimeout>
 800138a:	b118      	cbz	r0, 8001394 <I2C_RequestMemoryWrite+0x5c>
 800138c:	2001      	movs	r0, #1
 800138e:	b005      	add	sp, #20
 8001390:	e8bd 83f0 	ldmia.w	sp!, {r4, r5, r6, r7, r8, r9, pc}
 8001394:	6823      	ldr	r3, [r4, #0]
 8001396:	9003      	str	r0, [sp, #12]
 8001398:	695a      	ldr	r2, [r3, #20]
 800139a:	9203      	str	r2, [sp, #12]
 800139c:	699b      	ldr	r3, [r3, #24]
 800139e:	9303      	str	r3, [sp, #12]
 80013a0:	4642      	mov	r2, r8
 80013a2:	4639      	mov	r1, r7
 80013a4:	4620      	mov	r0, r4
 80013a6:	9b03      	ldr	r3, [sp, #12]
 80013a8:	f7ff ffa0 	bl	80012ec <I2C_WaitOnTXEFlagUntilTimeout>
 80013ac:	b140      	cbz	r0, 80013c0 <I2C_RequestMemoryWrite+0x88>
 80013ae:	6c23      	ldr	r3, [r4, #64]	; 0x40
 80013b0:	2b04      	cmp	r3, #4
 80013b2:	bf01      	itttt	eq
 80013b4:	6822      	ldreq	r2, [r4, #0]
 80013b6:	6813      	ldreq	r3, [r2, #0]
 80013b8:	f443 7300 	orreq.w	r3, r3, #512	; 0x200
 80013bc:	6013      	streq	r3, [r2, #0]
 80013be:	e7e5      	b.n	800138c <I2C_RequestMemoryWrite+0x54>
 80013c0:	f1b9 0f01 	cmp.w	r9, #1
 80013c4:	6823      	ldr	r3, [r4, #0]
 80013c6:	d102      	bne.n	80013ce <I2C_RequestMemoryWrite+0x96>
 80013c8:	b2ed      	uxtb	r5, r5
 80013ca:	611d      	str	r5, [r3, #16]
 80013cc:	e7df      	b.n	800138e <I2C_RequestMemoryWrite+0x56>
 80013ce:	0a2a      	lsrs	r2, r5, #8
 80013d0:	611a      	str	r2, [r3, #16]
 80013d2:	4639      	mov	r1, r7
 80013d4:	4642      	mov	r2, r8
 80013d6:	4620      	mov	r0, r4
 80013d8:	f7ff ff88 	bl	80012ec <I2C_WaitOnTXEFlagUntilTimeout>
 80013dc:	2800      	cmp	r0, #0
 80013de:	d1e6      	bne.n	80013ae <I2C_RequestMemoryWrite+0x76>
 80013e0:	6823      	ldr	r3, [r4, #0]
 80013e2:	e7f1      	b.n	80013c8 <I2C_RequestMemoryWrite+0x90>
 80013e4:	00010002 	.word	0x00010002

080013e8 <I2C_RequestMemoryRead>:
 80013e8:	e92d 47ff 	stmdb	sp!, {r0, r1, r2, r3, r4, r5, r6, r7, r8, r9, sl, lr}
 80013ec:	469a      	mov	sl, r3
 80013ee:	6803      	ldr	r3, [r0, #0]
 80013f0:	4615      	mov	r5, r2
 80013f2:	681a      	ldr	r2, [r3, #0]
 80013f4:	f442 6280 	orr.w	r2, r2, #1024	; 0x400
 80013f8:	601a      	str	r2, [r3, #0]
 80013fa:	681a      	ldr	r2, [r3, #0]
 80013fc:	e9dd 780c 	ldrd	r7, r8, [sp, #48]	; 0x30
 8001400:	f442 7280 	orr.w	r2, r2, #256	; 0x100
 8001404:	601a      	str	r2, [r3, #0]
 8001406:	460e      	mov	r6, r1
 8001408:	463b      	mov	r3, r7
 800140a:	f8cd 8000 	str.w	r8, [sp]
 800140e:	2200      	movs	r2, #0
 8001410:	f04f 1101 	mov.w	r1, #65537	; 0x10001
 8001414:	4604      	mov	r4, r0
 8001416:	f7ff fea7 	bl	8001168 <I2C_WaitOnFlagUntilTimeout>
 800141a:	6823      	ldr	r3, [r4, #0]
 800141c:	b148      	cbz	r0, 8001432 <I2C_RequestMemoryRead+0x4a>
 800141e:	681b      	ldr	r3, [r3, #0]
 8001420:	05db      	lsls	r3, r3, #23
 8001422:	d502      	bpl.n	800142a <I2C_RequestMemoryRead+0x42>
 8001424:	f44f 7300 	mov.w	r3, #512	; 0x200
 8001428:	6423      	str	r3, [r4, #64]	; 0x40
 800142a:	2003      	movs	r0, #3
 800142c:	b004      	add	sp, #16
 800142e:	e8bd 87f0 	ldmia.w	sp!, {r4, r5, r6, r7, r8, r9, sl, pc}
 8001432:	fa5f f986 	uxtb.w	r9, r6
 8001436:	f006 06fe 	and.w	r6, r6, #254	; 0xfe
 800143a:	611e      	str	r6, [r3, #16]
 800143c:	492a      	ldr	r1, [pc, #168]	; (80014e8 <I2C_RequestMemoryRead+0x100>)
 800143e:	4643      	mov	r3, r8
 8001440:	463a      	mov	r2, r7
 8001442:	4620      	mov	r0, r4
 8001444:	f7ff fec2 	bl	80011cc <I2C_WaitOnMasterAddressFlagUntilTimeout>
 8001448:	b108      	cbz	r0, 800144e <I2C_RequestMemoryRead+0x66>
 800144a:	2001      	movs	r0, #1
 800144c:	e7ee      	b.n	800142c <I2C_RequestMemoryRead+0x44>
 800144e:	6823      	ldr	r3, [r4, #0]
 8001450:	9003      	str	r0, [sp, #12]
 8001452:	695a      	ldr	r2, [r3, #20]
 8001454:	9203      	str	r2, [sp, #12]
 8001456:	699b      	ldr	r3, [r3, #24]
 8001458:	9303      	str	r3, [sp, #12]
 800145a:	4642      	mov	r2, r8
 800145c:	4639      	mov	r1, r7
 800145e:	4620      	mov	r0, r4
 8001460:	9b03      	ldr	r3, [sp, #12]
 8001462:	f7ff ff43 	bl	80012ec <I2C_WaitOnTXEFlagUntilTimeout>
 8001466:	b140      	cbz	r0, 800147a <I2C_RequestMemoryRead+0x92>
 8001468:	6c23      	ldr	r3, [r4, #64]	; 0x40
 800146a:	2b04      	cmp	r3, #4
 800146c:	bf01      	itttt	eq
 800146e:	6822      	ldreq	r2, [r4, #0]
 8001470:	6813      	ldreq	r3, [r2, #0]
 8001472:	f443 7300 	orreq.w	r3, r3, #512	; 0x200
 8001476:	6013      	streq	r3, [r2, #0]
 8001478:	e7e7      	b.n	800144a <I2C_RequestMemoryRead+0x62>
 800147a:	f1ba 0f01 	cmp.w	sl, #1
 800147e:	6823      	ldr	r3, [r4, #0]
 8001480:	d11a      	bne.n	80014b8 <I2C_RequestMemoryRead+0xd0>
 8001482:	b2ed      	uxtb	r5, r5
 8001484:	611d      	str	r5, [r3, #16]
 8001486:	4642      	mov	r2, r8
 8001488:	4639      	mov	r1, r7
 800148a:	4620      	mov	r0, r4
 800148c:	f7ff ff2e 	bl	80012ec <I2C_WaitOnTXEFlagUntilTimeout>
 8001490:	2800      	cmp	r0, #0
 8001492:	d1e9      	bne.n	8001468 <I2C_RequestMemoryRead+0x80>
 8001494:	6822      	ldr	r2, [r4, #0]
 8001496:	6813      	ldr	r3, [r2, #0]
 8001498:	f443 7380 	orr.w	r3, r3, #256	; 0x100
 800149c:	6013      	str	r3, [r2, #0]
 800149e:	f04f 1101 	mov.w	r1, #65537	; 0x10001
 80014a2:	4602      	mov	r2, r0
 80014a4:	f8cd 8000 	str.w	r8, [sp]
 80014a8:	463b      	mov	r3, r7
 80014aa:	4620      	mov	r0, r4
 80014ac:	f7ff fe5c 	bl	8001168 <I2C_WaitOnFlagUntilTimeout>
 80014b0:	6822      	ldr	r2, [r4, #0]
 80014b2:	b160      	cbz	r0, 80014ce <I2C_RequestMemoryRead+0xe6>
 80014b4:	6813      	ldr	r3, [r2, #0]
 80014b6:	e7b3      	b.n	8001420 <I2C_RequestMemoryRead+0x38>
 80014b8:	0a2a      	lsrs	r2, r5, #8
 80014ba:	611a      	str	r2, [r3, #16]
 80014bc:	4639      	mov	r1, r7
 80014be:	4642      	mov	r2, r8
 80014c0:	4620      	mov	r0, r4
 80014c2:	f7ff ff13 	bl	80012ec <I2C_WaitOnTXEFlagUntilTimeout>
 80014c6:	2800      	cmp	r0, #0
 80014c8:	d1ce      	bne.n	8001468 <I2C_RequestMemoryRead+0x80>
 80014ca:	6823      	ldr	r3, [r4, #0]
 80014cc:	e7d9      	b.n	8001482 <I2C_RequestMemoryRead+0x9a>
 80014ce:	f049 0301 	orr.w	r3, r9, #1
 80014d2:	6113      	str	r3, [r2, #16]
 80014d4:	4904      	ldr	r1, [pc, #16]	; (80014e8 <I2C_RequestMemoryRead+0x100>)
 80014d6:	4643      	mov	r3, r8
 80014d8:	463a      	mov	r2, r7
 80014da:	4620      	mov	r0, r4
 80014dc:	f7ff fe76 	bl	80011cc <I2C_WaitOnMasterAddressFlagUntilTimeout>
 80014e0:	3800      	subs	r0, #0
 80014e2:	bf18      	it	ne
 80014e4:	2001      	movne	r0, #1
 80014e6:	e7a1      	b.n	800142c <I2C_RequestMemoryRead+0x44>
 80014e8:	00010002 	.word	0x00010002

080014ec <HAL_I2C_Init>:
 80014ec:	b570      	push	{r4, r5, r6, lr}
 80014ee:	4604      	mov	r4, r0
 80014f0:	b908      	cbnz	r0, 80014f6 <HAL_I2C_Init+0xa>
 80014f2:	2001      	movs	r0, #1
 80014f4:	bd70      	pop	{r4, r5, r6, pc}
 80014f6:	f890 303d 	ldrb.w	r3, [r0, #61]	; 0x3d
 80014fa:	f003 02ff 	and.w	r2, r3, #255	; 0xff
 80014fe:	b91b      	cbnz	r3, 8001508 <HAL_I2C_Init+0x1c>
 8001500:	f880 203c 	strb.w	r2, [r0, #60]	; 0x3c
 8001504:	f7ff fa7a 	bl	80009fc <HAL_I2C_MspInit>
 8001508:	2324      	movs	r3, #36	; 0x24
 800150a:	f884 303d 	strb.w	r3, [r4, #61]	; 0x3d
 800150e:	6823      	ldr	r3, [r4, #0]
 8001510:	681a      	ldr	r2, [r3, #0]
 8001512:	f022 0201 	bic.w	r2, r2, #1
 8001516:	601a      	str	r2, [r3, #0]
 8001518:	681a      	ldr	r2, [r3, #0]
 800151a:	f442 4200 	orr.w	r2, r2, #32768	; 0x8000
 800151e:	601a      	str	r2, [r3, #0]
 8001520:	681a      	ldr	r2, [r3, #0]
 8001522:	f422 4200 	bic.w	r2, r2, #32768	; 0x8000
 8001526:	601a      	str	r2, [r3, #0]
 8001528:	f001 f9f6 	bl	8002918 <HAL_RCC_GetPCLK1Freq>
 800152c:	4b3f      	ldr	r3, [pc, #252]	; (800162c <HAL_I2C_Init+0x140>)
 800152e:	6865      	ldr	r5, [r4, #4]
 8001530:	429d      	cmp	r5, r3
 8001532:	bf94      	ite	ls
 8001534:	4b3e      	ldrls	r3, [pc, #248]	; (8001630 <HAL_I2C_Init+0x144>)
 8001536:	4b3f      	ldrhi	r3, [pc, #252]	; (8001634 <HAL_I2C_Init+0x148>)
 8001538:	4298      	cmp	r0, r3
 800153a:	bf8c      	ite	hi
 800153c:	2300      	movhi	r3, #0
 800153e:	2301      	movls	r3, #1
 8001540:	2b00      	cmp	r3, #0
 8001542:	d1d6      	bne.n	80014f2 <HAL_I2C_Init+0x6>
 8001544:	6822      	ldr	r2, [r4, #0]
 8001546:	4e39      	ldr	r6, [pc, #228]	; (800162c <HAL_I2C_Init+0x140>)
 8001548:	6853      	ldr	r3, [r2, #4]
 800154a:	493b      	ldr	r1, [pc, #236]	; (8001638 <HAL_I2C_Init+0x14c>)
 800154c:	fbb0 f1f1 	udiv	r1, r0, r1
 8001550:	f023 033f 	bic.w	r3, r3, #63	; 0x3f
 8001554:	430b      	orrs	r3, r1
 8001556:	42b5      	cmp	r5, r6
 8001558:	6053      	str	r3, [r2, #4]
 800155a:	bf88      	it	hi
 800155c:	f44f 7696 	movhi.w	r6, #300	; 0x12c
 8001560:	6a13      	ldr	r3, [r2, #32]
 8001562:	bf88      	it	hi
 8001564:	4371      	mulhi	r1, r6
 8001566:	f023 033f 	bic.w	r3, r3, #63	; 0x3f
 800156a:	bf84      	itt	hi
 800156c:	f44f 767a 	movhi.w	r6, #1000	; 0x3e8
 8001570:	fbb1 f1f6 	udivhi	r1, r1, r6
 8001574:	3101      	adds	r1, #1
 8001576:	4319      	orrs	r1, r3
 8001578:	6211      	str	r1, [r2, #32]
 800157a:	69d1      	ldr	r1, [r2, #28]
 800157c:	1e43      	subs	r3, r0, #1
 800157e:	482b      	ldr	r0, [pc, #172]	; (800162c <HAL_I2C_Init+0x140>)
 8001580:	f421 414f 	bic.w	r1, r1, #52992	; 0xcf00
 8001584:	4285      	cmp	r5, r0
 8001586:	f021 01ff 	bic.w	r1, r1, #255	; 0xff
 800158a:	d832      	bhi.n	80015f2 <HAL_I2C_Init+0x106>
 800158c:	006d      	lsls	r5, r5, #1
 800158e:	f640 70fc 	movw	r0, #4092	; 0xffc
 8001592:	fbb3 f3f5 	udiv	r3, r3, r5
 8001596:	3301      	adds	r3, #1
 8001598:	4203      	tst	r3, r0
 800159a:	d042      	beq.n	8001622 <HAL_I2C_Init+0x136>
 800159c:	f3c3 030b 	ubfx	r3, r3, #0, #12
 80015a0:	430b      	orrs	r3, r1
 80015a2:	61d3      	str	r3, [r2, #28]
 80015a4:	e9d4 3007 	ldrd	r3, r0, [r4, #28]
 80015a8:	6811      	ldr	r1, [r2, #0]
 80015aa:	4303      	orrs	r3, r0
 80015ac:	f021 01c0 	bic.w	r1, r1, #192	; 0xc0
 80015b0:	430b      	orrs	r3, r1
 80015b2:	6013      	str	r3, [r2, #0]
 80015b4:	6891      	ldr	r1, [r2, #8]
 80015b6:	e9d4 0303 	ldrd	r0, r3, [r4, #12]
 80015ba:	f421 4103 	bic.w	r1, r1, #33536	; 0x8300
 80015be:	4303      	orrs	r3, r0
 80015c0:	f021 01ff 	bic.w	r1, r1, #255	; 0xff
 80015c4:	430b      	orrs	r3, r1
 80015c6:	6093      	str	r3, [r2, #8]
 80015c8:	e9d4 3005 	ldrd	r3, r0, [r4, #20]
 80015cc:	68d1      	ldr	r1, [r2, #12]
 80015ce:	4303      	orrs	r3, r0
 80015d0:	f021 01ff 	bic.w	r1, r1, #255	; 0xff
 80015d4:	430b      	orrs	r3, r1
 80015d6:	60d3      	str	r3, [r2, #12]
 80015d8:	6813      	ldr	r3, [r2, #0]
 80015da:	f043 0301 	orr.w	r3, r3, #1
 80015de:	6013      	str	r3, [r2, #0]
 80015e0:	2000      	movs	r0, #0
 80015e2:	2320      	movs	r3, #32
 80015e4:	6420      	str	r0, [r4, #64]	; 0x40
 80015e6:	f884 303d 	strb.w	r3, [r4, #61]	; 0x3d
 80015ea:	6320      	str	r0, [r4, #48]	; 0x30
 80015ec:	f884 003e 	strb.w	r0, [r4, #62]	; 0x3e
 80015f0:	e780      	b.n	80014f4 <HAL_I2C_Init+0x8>
 80015f2:	68a0      	ldr	r0, [r4, #8]
 80015f4:	b950      	cbnz	r0, 800160c <HAL_I2C_Init+0x120>
 80015f6:	eb05 0545 	add.w	r5, r5, r5, lsl #1
 80015fa:	fbb3 f3f5 	udiv	r3, r3, r5
 80015fe:	3301      	adds	r3, #1
 8001600:	f3c3 030b 	ubfx	r3, r3, #0, #12
 8001604:	b17b      	cbz	r3, 8001626 <HAL_I2C_Init+0x13a>
 8001606:	f443 4300 	orr.w	r3, r3, #32768	; 0x8000
 800160a:	e7c9      	b.n	80015a0 <HAL_I2C_Init+0xb4>
 800160c:	2019      	movs	r0, #25
 800160e:	4345      	muls	r5, r0
 8001610:	fbb3 f3f5 	udiv	r3, r3, r5
 8001614:	3301      	adds	r3, #1
 8001616:	f3c3 030b 	ubfx	r3, r3, #0, #12
 800161a:	b123      	cbz	r3, 8001626 <HAL_I2C_Init+0x13a>
 800161c:	f443 4340 	orr.w	r3, r3, #49152	; 0xc000
 8001620:	e7be      	b.n	80015a0 <HAL_I2C_Init+0xb4>
 8001622:	2304      	movs	r3, #4
 8001624:	e7bc      	b.n	80015a0 <HAL_I2C_Init+0xb4>
 8001626:	2301      	movs	r3, #1
 8001628:	e7ba      	b.n	80015a0 <HAL_I2C_Init+0xb4>
 800162a:	bf00      	nop
 800162c:	000186a0 	.word	0x000186a0
 8001630:	001e847f 	.word	0x001e847f
 8001634:	003d08ff 	.word	0x003d08ff
 8001638:	000f4240 	.word	0x000f4240

0800163c <HAL_I2C_Mem_Write>:
 800163c:	e92d 43f7 	stmdb	sp!, {r0, r1, r2, r4, r5, r6, r7, r8, r9, lr}
 8001640:	4604      	mov	r4, r0
 8001642:	4699      	mov	r9, r3
 8001644:	9e0c      	ldr	r6, [sp, #48]	; 0x30
 8001646:	460f      	mov	r7, r1
 8001648:	4690      	mov	r8, r2
 800164a:	f7ff fc19 	bl	8000e80 <HAL_GetTick>
 800164e:	f894 303d 	ldrb.w	r3, [r4, #61]	; 0x3d
 8001652:	2b20      	cmp	r3, #32
 8001654:	4605      	mov	r5, r0
 8001656:	d003      	beq.n	8001660 <HAL_I2C_Mem_Write+0x24>
 8001658:	2002      	movs	r0, #2
 800165a:	b003      	add	sp, #12
 800165c:	e8bd 83f0 	ldmia.w	sp!, {r4, r5, r6, r7, r8, r9, pc}
 8001660:	9000      	str	r0, [sp, #0]
 8001662:	493c      	ldr	r1, [pc, #240]	; (8001754 <HAL_I2C_Mem_Write+0x118>)
 8001664:	2319      	movs	r3, #25
 8001666:	2201      	movs	r2, #1
 8001668:	4620      	mov	r0, r4
 800166a:	f7ff fd7d 	bl	8001168 <I2C_WaitOnFlagUntilTimeout>
 800166e:	2800      	cmp	r0, #0
 8001670:	d1f2      	bne.n	8001658 <HAL_I2C_Mem_Write+0x1c>
 8001672:	f894 303c 	ldrb.w	r3, [r4, #60]	; 0x3c
 8001676:	2b01      	cmp	r3, #1
 8001678:	d0ee      	beq.n	8001658 <HAL_I2C_Mem_Write+0x1c>
 800167a:	6820      	ldr	r0, [r4, #0]
 800167c:	2301      	movs	r3, #1
 800167e:	f884 303c 	strb.w	r3, [r4, #60]	; 0x3c
 8001682:	6803      	ldr	r3, [r0, #0]
 8001684:	07d9      	lsls	r1, r3, #31
 8001686:	bf5e      	ittt	pl
 8001688:	6803      	ldrpl	r3, [r0, #0]
 800168a:	f043 0301 	orrpl.w	r3, r3, #1
 800168e:	6003      	strpl	r3, [r0, #0]
 8001690:	6803      	ldr	r3, [r0, #0]
 8001692:	f423 6300 	bic.w	r3, r3, #2048	; 0x800
 8001696:	6003      	str	r3, [r0, #0]
 8001698:	2321      	movs	r3, #33	; 0x21
 800169a:	f884 303d 	strb.w	r3, [r4, #61]	; 0x3d
 800169e:	2340      	movs	r3, #64	; 0x40
 80016a0:	f884 303e 	strb.w	r3, [r4, #62]	; 0x3e
 80016a4:	2300      	movs	r3, #0
 80016a6:	6423      	str	r3, [r4, #64]	; 0x40
 80016a8:	9b0a      	ldr	r3, [sp, #40]	; 0x28
 80016aa:	6263      	str	r3, [r4, #36]	; 0x24
 80016ac:	f8bd 302c 	ldrh.w	r3, [sp, #44]	; 0x2c
 80016b0:	8563      	strh	r3, [r4, #42]	; 0x2a
 80016b2:	8d63      	ldrh	r3, [r4, #42]	; 0x2a
 80016b4:	8523      	strh	r3, [r4, #40]	; 0x28
 80016b6:	4b28      	ldr	r3, [pc, #160]	; (8001758 <HAL_I2C_Mem_Write+0x11c>)
 80016b8:	62e3      	str	r3, [r4, #44]	; 0x2c
 80016ba:	e9cd 6500 	strd	r6, r5, [sp]
 80016be:	464b      	mov	r3, r9
 80016c0:	4642      	mov	r2, r8
 80016c2:	4639      	mov	r1, r7
 80016c4:	4620      	mov	r0, r4
 80016c6:	f7ff fe37 	bl	8001338 <I2C_RequestMemoryWrite>
 80016ca:	2800      	cmp	r0, #0
 80016cc:	d02a      	beq.n	8001724 <HAL_I2C_Mem_Write+0xe8>
 80016ce:	2001      	movs	r0, #1
 80016d0:	e7c3      	b.n	800165a <HAL_I2C_Mem_Write+0x1e>
 80016d2:	f7ff fe0b 	bl	80012ec <I2C_WaitOnTXEFlagUntilTimeout>
 80016d6:	b140      	cbz	r0, 80016ea <HAL_I2C_Mem_Write+0xae>
 80016d8:	6c23      	ldr	r3, [r4, #64]	; 0x40
 80016da:	2b04      	cmp	r3, #4
 80016dc:	bf01      	itttt	eq
 80016de:	6822      	ldreq	r2, [r4, #0]
 80016e0:	6813      	ldreq	r3, [r2, #0]
 80016e2:	f443 7300 	orreq.w	r3, r3, #512	; 0x200
 80016e6:	6013      	streq	r3, [r2, #0]
 80016e8:	e7f1      	b.n	80016ce <HAL_I2C_Mem_Write+0x92>
 80016ea:	6a63      	ldr	r3, [r4, #36]	; 0x24
 80016ec:	6827      	ldr	r7, [r4, #0]
 80016ee:	461a      	mov	r2, r3
 80016f0:	f812 1b01 	ldrb.w	r1, [r2], #1
 80016f4:	6139      	str	r1, [r7, #16]
 80016f6:	6262      	str	r2, [r4, #36]	; 0x24
 80016f8:	8d62      	ldrh	r2, [r4, #42]	; 0x2a
 80016fa:	8d21      	ldrh	r1, [r4, #40]	; 0x28
 80016fc:	3a01      	subs	r2, #1
 80016fe:	b292      	uxth	r2, r2
 8001700:	8562      	strh	r2, [r4, #42]	; 0x2a
 8001702:	697a      	ldr	r2, [r7, #20]
 8001704:	1e48      	subs	r0, r1, #1
 8001706:	b280      	uxth	r0, r0
 8001708:	0752      	lsls	r2, r2, #29
 800170a:	8520      	strh	r0, [r4, #40]	; 0x28
 800170c:	d50a      	bpl.n	8001724 <HAL_I2C_Mem_Write+0xe8>
 800170e:	b148      	cbz	r0, 8001724 <HAL_I2C_Mem_Write+0xe8>
 8001710:	785a      	ldrb	r2, [r3, #1]
 8001712:	613a      	str	r2, [r7, #16]
 8001714:	3302      	adds	r3, #2
 8001716:	6263      	str	r3, [r4, #36]	; 0x24
 8001718:	8d63      	ldrh	r3, [r4, #42]	; 0x2a
 800171a:	3b01      	subs	r3, #1
 800171c:	3902      	subs	r1, #2
 800171e:	b29b      	uxth	r3, r3
 8001720:	8521      	strh	r1, [r4, #40]	; 0x28
 8001722:	8563      	strh	r3, [r4, #42]	; 0x2a
 8001724:	8d23      	ldrh	r3, [r4, #40]	; 0x28
 8001726:	462a      	mov	r2, r5
 8001728:	4631      	mov	r1, r6
 800172a:	4620      	mov	r0, r4
 800172c:	2b00      	cmp	r3, #0
 800172e:	d1d0      	bne.n	80016d2 <HAL_I2C_Mem_Write+0x96>
 8001730:	f7ff fdb6 	bl	80012a0 <I2C_WaitOnBTFFlagUntilTimeout>
 8001734:	2800      	cmp	r0, #0
 8001736:	d1cf      	bne.n	80016d8 <HAL_I2C_Mem_Write+0x9c>
 8001738:	6822      	ldr	r2, [r4, #0]
 800173a:	6813      	ldr	r3, [r2, #0]
 800173c:	f443 7300 	orr.w	r3, r3, #512	; 0x200
 8001740:	6013      	str	r3, [r2, #0]
 8001742:	2320      	movs	r3, #32
 8001744:	f884 303d 	strb.w	r3, [r4, #61]	; 0x3d
 8001748:	f884 003c 	strb.w	r0, [r4, #60]	; 0x3c
 800174c:	f884 003e 	strb.w	r0, [r4, #62]	; 0x3e
 8001750:	e783      	b.n	800165a <HAL_I2C_Mem_Write+0x1e>
 8001752:	bf00      	nop
 8001754:	00100002 	.word	0x00100002
 8001758:	ffff0000 	.word	0xffff0000

0800175c <HAL_I2C_Mem_Read>:
 800175c:	e92d 43f0 	stmdb	sp!, {r4, r5, r6, r7, r8, r9, lr}
 8001760:	4604      	mov	r4, r0
 8001762:	b087      	sub	sp, #28
 8001764:	4699      	mov	r9, r3
 8001766:	9f10      	ldr	r7, [sp, #64]	; 0x40
 8001768:	460d      	mov	r5, r1
 800176a:	4690      	mov	r8, r2
 800176c:	f7ff fb88 	bl	8000e80 <HAL_GetTick>
 8001770:	f894 303d 	ldrb.w	r3, [r4, #61]	; 0x3d
 8001774:	2b20      	cmp	r3, #32
 8001776:	4606      	mov	r6, r0
 8001778:	d004      	beq.n	8001784 <HAL_I2C_Mem_Read+0x28>
 800177a:	2502      	movs	r5, #2
 800177c:	4628      	mov	r0, r5
 800177e:	b007      	add	sp, #28
 8001780:	e8bd 83f0 	ldmia.w	sp!, {r4, r5, r6, r7, r8, r9, pc}
 8001784:	9000      	str	r0, [sp, #0]
 8001786:	4976      	ldr	r1, [pc, #472]	; (8001960 <HAL_I2C_Mem_Read+0x204>)
 8001788:	2319      	movs	r3, #25
 800178a:	2201      	movs	r2, #1
 800178c:	4620      	mov	r0, r4
 800178e:	f7ff fceb 	bl	8001168 <I2C_WaitOnFlagUntilTimeout>
 8001792:	2800      	cmp	r0, #0
 8001794:	d1f1      	bne.n	800177a <HAL_I2C_Mem_Read+0x1e>
 8001796:	f894 303c 	ldrb.w	r3, [r4, #60]	; 0x3c
 800179a:	2b01      	cmp	r3, #1
 800179c:	d0ed      	beq.n	800177a <HAL_I2C_Mem_Read+0x1e>
 800179e:	6820      	ldr	r0, [r4, #0]
 80017a0:	2301      	movs	r3, #1
 80017a2:	f884 303c 	strb.w	r3, [r4, #60]	; 0x3c
 80017a6:	6803      	ldr	r3, [r0, #0]
 80017a8:	07db      	lsls	r3, r3, #31
 80017aa:	bf5e      	ittt	pl
 80017ac:	6803      	ldrpl	r3, [r0, #0]
 80017ae:	f043 0301 	orrpl.w	r3, r3, #1
 80017b2:	6003      	strpl	r3, [r0, #0]
 80017b4:	6803      	ldr	r3, [r0, #0]
 80017b6:	f423 6300 	bic.w	r3, r3, #2048	; 0x800
 80017ba:	6003      	str	r3, [r0, #0]
 80017bc:	2322      	movs	r3, #34	; 0x22
 80017be:	f884 303d 	strb.w	r3, [r4, #61]	; 0x3d
 80017c2:	2340      	movs	r3, #64	; 0x40
 80017c4:	f884 303e 	strb.w	r3, [r4, #62]	; 0x3e
 80017c8:	2300      	movs	r3, #0
 80017ca:	6423      	str	r3, [r4, #64]	; 0x40
 80017cc:	9b0e      	ldr	r3, [sp, #56]	; 0x38
 80017ce:	6263      	str	r3, [r4, #36]	; 0x24
 80017d0:	f8bd 303c 	ldrh.w	r3, [sp, #60]	; 0x3c
 80017d4:	8563      	strh	r3, [r4, #42]	; 0x2a
 80017d6:	8d63      	ldrh	r3, [r4, #42]	; 0x2a
 80017d8:	8523      	strh	r3, [r4, #40]	; 0x28
 80017da:	4b62      	ldr	r3, [pc, #392]	; (8001964 <HAL_I2C_Mem_Read+0x208>)
 80017dc:	62e3      	str	r3, [r4, #44]	; 0x2c
 80017de:	4629      	mov	r1, r5
 80017e0:	e9cd 7600 	strd	r7, r6, [sp]
 80017e4:	464b      	mov	r3, r9
 80017e6:	4642      	mov	r2, r8
 80017e8:	4620      	mov	r0, r4
 80017ea:	f7ff fdfd 	bl	80013e8 <I2C_RequestMemoryRead>
 80017ee:	4605      	mov	r5, r0
 80017f0:	b108      	cbz	r0, 80017f6 <HAL_I2C_Mem_Read+0x9a>
 80017f2:	2501      	movs	r5, #1
 80017f4:	e7c2      	b.n	800177c <HAL_I2C_Mem_Read+0x20>
 80017f6:	8d22      	ldrh	r2, [r4, #40]	; 0x28
 80017f8:	6823      	ldr	r3, [r4, #0]
 80017fa:	b9b2      	cbnz	r2, 800182a <HAL_I2C_Mem_Read+0xce>
 80017fc:	9002      	str	r0, [sp, #8]
 80017fe:	695a      	ldr	r2, [r3, #20]
 8001800:	9202      	str	r2, [sp, #8]
 8001802:	699a      	ldr	r2, [r3, #24]
 8001804:	9202      	str	r2, [sp, #8]
 8001806:	9a02      	ldr	r2, [sp, #8]
 8001808:	681a      	ldr	r2, [r3, #0]
 800180a:	f442 7200 	orr.w	r2, r2, #512	; 0x200
 800180e:	601a      	str	r2, [r3, #0]
 8001810:	f8df 8154 	ldr.w	r8, [pc, #340]	; 8001968 <HAL_I2C_Mem_Read+0x20c>
 8001814:	8d23      	ldrh	r3, [r4, #40]	; 0x28
 8001816:	2b00      	cmp	r3, #0
 8001818:	d12c      	bne.n	8001874 <HAL_I2C_Mem_Read+0x118>
 800181a:	2220      	movs	r2, #32
 800181c:	f884 203d 	strb.w	r2, [r4, #61]	; 0x3d
 8001820:	f884 303c 	strb.w	r3, [r4, #60]	; 0x3c
 8001824:	f884 303e 	strb.w	r3, [r4, #62]	; 0x3e
 8001828:	e7a8      	b.n	800177c <HAL_I2C_Mem_Read+0x20>
 800182a:	2a01      	cmp	r2, #1
 800182c:	d10a      	bne.n	8001844 <HAL_I2C_Mem_Read+0xe8>
 800182e:	681a      	ldr	r2, [r3, #0]
 8001830:	f422 6280 	bic.w	r2, r2, #1024	; 0x400
 8001834:	601a      	str	r2, [r3, #0]
 8001836:	9003      	str	r0, [sp, #12]
 8001838:	695a      	ldr	r2, [r3, #20]
 800183a:	9203      	str	r2, [sp, #12]
 800183c:	699a      	ldr	r2, [r3, #24]
 800183e:	9203      	str	r2, [sp, #12]
 8001840:	9a03      	ldr	r2, [sp, #12]
 8001842:	e7e1      	b.n	8001808 <HAL_I2C_Mem_Read+0xac>
 8001844:	2a02      	cmp	r2, #2
 8001846:	d10e      	bne.n	8001866 <HAL_I2C_Mem_Read+0x10a>
 8001848:	681a      	ldr	r2, [r3, #0]
 800184a:	f422 6280 	bic.w	r2, r2, #1024	; 0x400
 800184e:	601a      	str	r2, [r3, #0]
 8001850:	681a      	ldr	r2, [r3, #0]
 8001852:	f442 6200 	orr.w	r2, r2, #2048	; 0x800
 8001856:	601a      	str	r2, [r3, #0]
 8001858:	9004      	str	r0, [sp, #16]
 800185a:	695a      	ldr	r2, [r3, #20]
 800185c:	9204      	str	r2, [sp, #16]
 800185e:	699b      	ldr	r3, [r3, #24]
 8001860:	9304      	str	r3, [sp, #16]
 8001862:	9b04      	ldr	r3, [sp, #16]
 8001864:	e7d4      	b.n	8001810 <HAL_I2C_Mem_Read+0xb4>
 8001866:	9005      	str	r0, [sp, #20]
 8001868:	695a      	ldr	r2, [r3, #20]
 800186a:	9205      	str	r2, [sp, #20]
 800186c:	699b      	ldr	r3, [r3, #24]
 800186e:	9305      	str	r3, [sp, #20]
 8001870:	9b05      	ldr	r3, [sp, #20]
 8001872:	e7cd      	b.n	8001810 <HAL_I2C_Mem_Read+0xb4>
 8001874:	2b03      	cmp	r3, #3
 8001876:	d856      	bhi.n	8001926 <HAL_I2C_Mem_Read+0x1ca>
 8001878:	2b01      	cmp	r3, #1
 800187a:	d115      	bne.n	80018a8 <HAL_I2C_Mem_Read+0x14c>
 800187c:	4632      	mov	r2, r6
 800187e:	4639      	mov	r1, r7
 8001880:	4620      	mov	r0, r4
 8001882:	f7ff fcde 	bl	8001242 <I2C_WaitOnRXNEFlagUntilTimeout>
 8001886:	2800      	cmp	r0, #0
 8001888:	d1b3      	bne.n	80017f2 <HAL_I2C_Mem_Read+0x96>
 800188a:	6823      	ldr	r3, [r4, #0]
 800188c:	691a      	ldr	r2, [r3, #16]
 800188e:	6a63      	ldr	r3, [r4, #36]	; 0x24
 8001890:	701a      	strb	r2, [r3, #0]
 8001892:	6a63      	ldr	r3, [r4, #36]	; 0x24
 8001894:	3301      	adds	r3, #1
 8001896:	6263      	str	r3, [r4, #36]	; 0x24
 8001898:	8d23      	ldrh	r3, [r4, #40]	; 0x28
 800189a:	3b01      	subs	r3, #1
 800189c:	8523      	strh	r3, [r4, #40]	; 0x28
 800189e:	8d63      	ldrh	r3, [r4, #42]	; 0x2a
 80018a0:	3b01      	subs	r3, #1
 80018a2:	b29b      	uxth	r3, r3
 80018a4:	8563      	strh	r3, [r4, #42]	; 0x2a
 80018a6:	e7b5      	b.n	8001814 <HAL_I2C_Mem_Read+0xb8>
 80018a8:	2b02      	cmp	r3, #2
 80018aa:	9600      	str	r6, [sp, #0]
 80018ac:	463b      	mov	r3, r7
 80018ae:	f04f 0200 	mov.w	r2, #0
 80018b2:	4641      	mov	r1, r8
 80018b4:	4620      	mov	r0, r4
 80018b6:	d119      	bne.n	80018ec <HAL_I2C_Mem_Read+0x190>
 80018b8:	f7ff fc56 	bl	8001168 <I2C_WaitOnFlagUntilTimeout>
 80018bc:	2800      	cmp	r0, #0
 80018be:	d198      	bne.n	80017f2 <HAL_I2C_Mem_Read+0x96>
 80018c0:	6823      	ldr	r3, [r4, #0]
 80018c2:	681a      	ldr	r2, [r3, #0]
 80018c4:	f442 7200 	orr.w	r2, r2, #512	; 0x200
 80018c8:	601a      	str	r2, [r3, #0]
 80018ca:	691a      	ldr	r2, [r3, #16]
 80018cc:	6a63      	ldr	r3, [r4, #36]	; 0x24
 80018ce:	701a      	strb	r2, [r3, #0]
 80018d0:	6a62      	ldr	r2, [r4, #36]	; 0x24
 80018d2:	1c53      	adds	r3, r2, #1
 80018d4:	6263      	str	r3, [r4, #36]	; 0x24
 80018d6:	8d23      	ldrh	r3, [r4, #40]	; 0x28
 80018d8:	3b01      	subs	r3, #1
 80018da:	8523      	strh	r3, [r4, #40]	; 0x28
 80018dc:	8d63      	ldrh	r3, [r4, #42]	; 0x2a
 80018de:	3b01      	subs	r3, #1
 80018e0:	b29b      	uxth	r3, r3
 80018e2:	8563      	strh	r3, [r4, #42]	; 0x2a
 80018e4:	6823      	ldr	r3, [r4, #0]
 80018e6:	691b      	ldr	r3, [r3, #16]
 80018e8:	7053      	strb	r3, [r2, #1]
 80018ea:	e7d2      	b.n	8001892 <HAL_I2C_Mem_Read+0x136>
 80018ec:	f7ff fc3c 	bl	8001168 <I2C_WaitOnFlagUntilTimeout>
 80018f0:	2800      	cmp	r0, #0
 80018f2:	f47f af7e 	bne.w	80017f2 <HAL_I2C_Mem_Read+0x96>
 80018f6:	6823      	ldr	r3, [r4, #0]
 80018f8:	681a      	ldr	r2, [r3, #0]
 80018fa:	f422 6280 	bic.w	r2, r2, #1024	; 0x400
 80018fe:	601a      	str	r2, [r3, #0]
 8001900:	691a      	ldr	r2, [r3, #16]
 8001902:	6a63      	ldr	r3, [r4, #36]	; 0x24
 8001904:	701a      	strb	r2, [r3, #0]
 8001906:	6a63      	ldr	r3, [r4, #36]	; 0x24
 8001908:	9600      	str	r6, [sp, #0]
 800190a:	3301      	adds	r3, #1
 800190c:	6263      	str	r3, [r4, #36]	; 0x24
 800190e:	8d23      	ldrh	r3, [r4, #40]	; 0x28
 8001910:	3b01      	subs	r3, #1
 8001912:	8523      	strh	r3, [r4, #40]	; 0x28
 8001914:	8d63      	ldrh	r3, [r4, #42]	; 0x2a
 8001916:	3b01      	subs	r3, #1
 8001918:	b29b      	uxth	r3, r3
 800191a:	8563      	strh	r3, [r4, #42]	; 0x2a
 800191c:	4602      	mov	r2, r0
 800191e:	463b      	mov	r3, r7
 8001920:	4641      	mov	r1, r8
 8001922:	4620      	mov	r0, r4
 8001924:	e7c8      	b.n	80018b8 <HAL_I2C_Mem_Read+0x15c>
 8001926:	4632      	mov	r2, r6
 8001928:	4639      	mov	r1, r7
 800192a:	4620      	mov	r0, r4
 800192c:	f7ff fc89 	bl	8001242 <I2C_WaitOnRXNEFlagUntilTimeout>
 8001930:	2800      	cmp	r0, #0
 8001932:	f47f af5e 	bne.w	80017f2 <HAL_I2C_Mem_Read+0x96>
 8001936:	6823      	ldr	r3, [r4, #0]
 8001938:	691a      	ldr	r2, [r3, #16]
 800193a:	6a63      	ldr	r3, [r4, #36]	; 0x24
 800193c:	701a      	strb	r2, [r3, #0]
 800193e:	6a62      	ldr	r2, [r4, #36]	; 0x24
 8001940:	1c53      	adds	r3, r2, #1
 8001942:	6263      	str	r3, [r4, #36]	; 0x24
 8001944:	8d23      	ldrh	r3, [r4, #40]	; 0x28
 8001946:	3b01      	subs	r3, #1
 8001948:	8523      	strh	r3, [r4, #40]	; 0x28
 800194a:	8d63      	ldrh	r3, [r4, #42]	; 0x2a
 800194c:	3b01      	subs	r3, #1
 800194e:	b29b      	uxth	r3, r3
 8001950:	8563      	strh	r3, [r4, #42]	; 0x2a
 8001952:	6823      	ldr	r3, [r4, #0]
 8001954:	6959      	ldr	r1, [r3, #20]
 8001956:	0749      	lsls	r1, r1, #29
 8001958:	f57f af5c 	bpl.w	8001814 <HAL_I2C_Mem_Read+0xb8>
 800195c:	e7c3      	b.n	80018e6 <HAL_I2C_Mem_Read+0x18a>
 800195e:	bf00      	nop
 8001960:	00100002 	.word	0x00100002
 8001964:	ffff0000 	.word	0xffff0000
 8001968:	00010004 	.word	0x00010004

0800196c <HAL_PCD_Init>:
 800196c:	b5f0      	push	{r4, r5, r6, r7, lr}
 800196e:	4604      	mov	r4, r0
 8001970:	b08b      	sub	sp, #44	; 0x2c
 8001972:	b360      	cbz	r0, 80019ce <HAL_PCD_Init+0x62>
 8001974:	f890 34bd 	ldrb.w	r3, [r0, #1213]	; 0x4bd
 8001978:	6805      	ldr	r5, [r0, #0]
 800197a:	f003 02ff 	and.w	r2, r3, #255	; 0xff
 800197e:	b91b      	cbnz	r3, 8001988 <HAL_PCD_Init+0x1c>
 8001980:	f880 24bc 	strb.w	r2, [r0, #1212]	; 0x4bc
 8001984:	f7ff f9c6 	bl	8000d14 <HAL_PCD_MspInit>
 8001988:	2303      	movs	r3, #3
 800198a:	f884 34bd 	strb.w	r3, [r4, #1213]	; 0x4bd
 800198e:	6beb      	ldr	r3, [r5, #60]	; 0x3c
 8001990:	4625      	mov	r5, r4
 8001992:	f413 7380 	ands.w	r3, r3, #256	; 0x100
 8001996:	f855 0b10 	ldr.w	r0, [r5], #16
 800199a:	bf08      	it	eq
 800199c:	6123      	streq	r3, [r4, #16]
 800199e:	f001 f8a7 	bl	8002af0 <USB_DisableGlobalInt>
 80019a2:	cd0f      	ldmia	r5!, {r0, r1, r2, r3}
 80019a4:	466e      	mov	r6, sp
 80019a6:	c60f      	stmia	r6!, {r0, r1, r2, r3}
 80019a8:	cd0f      	ldmia	r5!, {r0, r1, r2, r3}
 80019aa:	c60f      	stmia	r6!, {r0, r1, r2, r3}
 80019ac:	e895 0003 	ldmia.w	r5, {r0, r1}
 80019b0:	e886 0003 	stmia.w	r6, {r0, r1}
 80019b4:	4625      	mov	r5, r4
 80019b6:	1d27      	adds	r7, r4, #4
 80019b8:	e897 000e 	ldmia.w	r7, {r1, r2, r3}
 80019bc:	f855 0b10 	ldr.w	r0, [r5], #16
 80019c0:	f000 ffe0 	bl	8002984 <USB_CoreInit>
 80019c4:	4606      	mov	r6, r0
 80019c6:	b120      	cbz	r0, 80019d2 <HAL_PCD_Init+0x66>
 80019c8:	2302      	movs	r3, #2
 80019ca:	f884 34bd 	strb.w	r3, [r4, #1213]	; 0x4bd
 80019ce:	2501      	movs	r5, #1
 80019d0:	e04e      	b.n	8001a70 <HAL_PCD_Init+0x104>
 80019d2:	4601      	mov	r1, r0
 80019d4:	6820      	ldr	r0, [r4, #0]
 80019d6:	f001 f891 	bl	8002afc <USB_SetCurrentMode>
 80019da:	4630      	mov	r0, r6
 80019dc:	f8d4 c004 	ldr.w	ip, [r4, #4]
 80019e0:	2624      	movs	r6, #36	; 0x24
 80019e2:	f04f 0e01 	mov.w	lr, #1
 80019e6:	4601      	mov	r1, r0
 80019e8:	b2c2      	uxtb	r2, r0
 80019ea:	4594      	cmp	ip, r2
 80019ec:	f100 0001 	add.w	r0, r0, #1
 80019f0:	d81c      	bhi.n	8001a2c <HAL_PCD_Init+0xc0>
 80019f2:	2300      	movs	r3, #0
 80019f4:	2624      	movs	r6, #36	; 0x24
 80019f6:	4619      	mov	r1, r3
 80019f8:	b2d8      	uxtb	r0, r3
 80019fa:	4584      	cmp	ip, r0
 80019fc:	f103 0301 	add.w	r3, r3, #1
 8001a00:	d822      	bhi.n	8001a48 <HAL_PCD_Init+0xdc>
 8001a02:	cd0f      	ldmia	r5!, {r0, r1, r2, r3}
 8001a04:	466e      	mov	r6, sp
 8001a06:	c60f      	stmia	r6!, {r0, r1, r2, r3}
 8001a08:	cd0f      	ldmia	r5!, {r0, r1, r2, r3}
 8001a0a:	c60f      	stmia	r6!, {r0, r1, r2, r3}
 8001a0c:	e895 0003 	ldmia.w	r5, {r0, r1}
 8001a10:	e886 0003 	stmia.w	r6, {r0, r1}
 8001a14:	e897 000e 	ldmia.w	r7, {r1, r2, r3}
 8001a18:	6820      	ldr	r0, [r4, #0]
 8001a1a:	f001 f8f1 	bl	8002c00 <USB_DevInit>
 8001a1e:	2301      	movs	r3, #1
 8001a20:	4605      	mov	r5, r0
 8001a22:	b1f0      	cbz	r0, 8001a62 <HAL_PCD_Init+0xf6>
 8001a24:	2202      	movs	r2, #2
 8001a26:	f884 24bd 	strb.w	r2, [r4, #1213]	; 0x4bd
 8001a2a:	e7d0      	b.n	80019ce <HAL_PCD_Init+0x62>
 8001a2c:	fb06 4302 	mla	r3, r6, r2, r4
 8001a30:	e9c3 1112 	strd	r1, r1, [r3, #72]	; 0x48
 8001a34:	f883 e03d 	strb.w	lr, [r3, #61]	; 0x3d
 8001a38:	f883 203c 	strb.w	r2, [r3, #60]	; 0x3c
 8001a3c:	f8a3 2044 	strh.w	r2, [r3, #68]	; 0x44
 8001a40:	f883 1040 	strb.w	r1, [r3, #64]	; 0x40
 8001a44:	6559      	str	r1, [r3, #84]	; 0x54
 8001a46:	e7cf      	b.n	80019e8 <HAL_PCD_Init+0x7c>
 8001a48:	fb06 4200 	mla	r2, r6, r0, r4
 8001a4c:	e9c2 11a2 	strd	r1, r1, [r2, #648]	; 0x288
 8001a50:	f882 127d 	strb.w	r1, [r2, #637]	; 0x27d
 8001a54:	f882 027c 	strb.w	r0, [r2, #636]	; 0x27c
 8001a58:	f882 1280 	strb.w	r1, [r2, #640]	; 0x280
 8001a5c:	f8c2 1294 	str.w	r1, [r2, #660]	; 0x294
 8001a60:	e7ca      	b.n	80019f8 <HAL_PCD_Init+0x8c>
 8001a62:	f884 0038 	strb.w	r0, [r4, #56]	; 0x38
 8001a66:	6820      	ldr	r0, [r4, #0]
 8001a68:	f884 34bd 	strb.w	r3, [r4, #1213]	; 0x4bd
 8001a6c:	f001 fc70 	bl	8003350 <USB_DevDisconnect>
 8001a70:	4628      	mov	r0, r5
 8001a72:	b00b      	add	sp, #44	; 0x2c
 8001a74:	bdf0      	pop	{r4, r5, r6, r7, pc}

08001a76 <HAL_PCD_Start>:
 8001a76:	b510      	push	{r4, lr}
 8001a78:	4604      	mov	r4, r0
 8001a7a:	6800      	ldr	r0, [r0, #0]
 8001a7c:	f894 34bc 	ldrb.w	r3, [r4, #1212]	; 0x4bc
 8001a80:	2b01      	cmp	r3, #1
 8001a82:	d015      	beq.n	8001ab0 <HAL_PCD_Start+0x3a>
 8001a84:	2301      	movs	r3, #1
 8001a86:	f884 34bc 	strb.w	r3, [r4, #1212]	; 0x4bc
 8001a8a:	6aa3      	ldr	r3, [r4, #40]	; 0x28
 8001a8c:	2b01      	cmp	r3, #1
 8001a8e:	d106      	bne.n	8001a9e <HAL_PCD_Start+0x28>
 8001a90:	69a3      	ldr	r3, [r4, #24]
 8001a92:	2b01      	cmp	r3, #1
 8001a94:	bf1e      	ittt	ne
 8001a96:	6b83      	ldrne	r3, [r0, #56]	; 0x38
 8001a98:	f443 3380 	orrne.w	r3, r3, #65536	; 0x10000
 8001a9c:	6383      	strne	r3, [r0, #56]	; 0x38
 8001a9e:	f001 f821 	bl	8002ae4 <USB_EnableGlobalInt>
 8001aa2:	6820      	ldr	r0, [r4, #0]
 8001aa4:	f001 fc46 	bl	8003334 <USB_DevConnect>
 8001aa8:	2000      	movs	r0, #0
 8001aaa:	f884 04bc 	strb.w	r0, [r4, #1212]	; 0x4bc
 8001aae:	bd10      	pop	{r4, pc}
 8001ab0:	2002      	movs	r0, #2
 8001ab2:	e7fc      	b.n	8001aae <HAL_PCD_Start+0x38>

08001ab4 <HAL_PCD_SetAddress>:
 8001ab4:	b510      	push	{r4, lr}
 8001ab6:	f890 24bc 	ldrb.w	r2, [r0, #1212]	; 0x4bc
 8001aba:	2a01      	cmp	r2, #1
 8001abc:	4604      	mov	r4, r0
 8001abe:	d00b      	beq.n	8001ad8 <HAL_PCD_SetAddress+0x24>
 8001ac0:	2201      	movs	r2, #1
 8001ac2:	f880 24bc 	strb.w	r2, [r0, #1212]	; 0x4bc
 8001ac6:	f880 1038 	strb.w	r1, [r0, #56]	; 0x38
 8001aca:	6800      	ldr	r0, [r0, #0]
 8001acc:	f001 fc22 	bl	8003314 <USB_SetDevAddress>
 8001ad0:	2000      	movs	r0, #0
 8001ad2:	f884 04bc 	strb.w	r0, [r4, #1212]	; 0x4bc
 8001ad6:	bd10      	pop	{r4, pc}
 8001ad8:	2002      	movs	r0, #2
 8001ada:	e7fc      	b.n	8001ad6 <HAL_PCD_SetAddress+0x22>

08001adc <HAL_PCD_EP_Open>:
 8001adc:	b570      	push	{r4, r5, r6, lr}
 8001ade:	f001 060f 	and.w	r6, r1, #15
 8001ae2:	eb06 04c6 	add.w	r4, r6, r6, lsl #3
 8001ae6:	f011 0f80 	tst.w	r1, #128	; 0x80
 8001aea:	4605      	mov	r5, r0
 8001aec:	ea4f 0484 	mov.w	r4, r4, lsl #2
 8001af0:	f04f 0024 	mov.w	r0, #36	; 0x24
 8001af4:	d01f      	beq.n	8001b36 <HAL_PCD_EP_Open+0x5a>
 8001af6:	fb00 5006 	mla	r0, r0, r6, r5
 8001afa:	f104 013c 	add.w	r1, r4, #60	; 0x3c
 8001afe:	2401      	movs	r4, #1
 8001b00:	4429      	add	r1, r5
 8001b02:	f880 403d 	strb.w	r4, [r0, #61]	; 0x3d
 8001b06:	60ca      	str	r2, [r1, #12]
 8001b08:	784a      	ldrb	r2, [r1, #1]
 8001b0a:	700e      	strb	r6, [r1, #0]
 8001b0c:	710b      	strb	r3, [r1, #4]
 8001b0e:	b102      	cbz	r2, 8001b12 <HAL_PCD_EP_Open+0x36>
 8001b10:	810e      	strh	r6, [r1, #8]
 8001b12:	2b02      	cmp	r3, #2
 8001b14:	bf04      	itt	eq
 8001b16:	2300      	moveq	r3, #0
 8001b18:	714b      	strbeq	r3, [r1, #5]
 8001b1a:	f895 34bc 	ldrb.w	r3, [r5, #1212]	; 0x4bc
 8001b1e:	2b01      	cmp	r3, #1
 8001b20:	d012      	beq.n	8001b48 <HAL_PCD_EP_Open+0x6c>
 8001b22:	2301      	movs	r3, #1
 8001b24:	6828      	ldr	r0, [r5, #0]
 8001b26:	f885 34bc 	strb.w	r3, [r5, #1212]	; 0x4bc
 8001b2a:	f001 f92c 	bl	8002d86 <USB_ActivateEndpoint>
 8001b2e:	2000      	movs	r0, #0
 8001b30:	f885 04bc 	strb.w	r0, [r5, #1212]	; 0x4bc
 8001b34:	bd70      	pop	{r4, r5, r6, pc}
 8001b36:	fb00 5006 	mla	r0, r0, r6, r5
 8001b3a:	f504 711f 	add.w	r1, r4, #636	; 0x27c
 8001b3e:	2400      	movs	r4, #0
 8001b40:	4429      	add	r1, r5
 8001b42:	f880 427d 	strb.w	r4, [r0, #637]	; 0x27d
 8001b46:	e7de      	b.n	8001b06 <HAL_PCD_EP_Open+0x2a>
 8001b48:	2002      	movs	r0, #2
 8001b4a:	e7f3      	b.n	8001b34 <HAL_PCD_EP_Open+0x58>

08001b4c <HAL_PCD_EP_Close>:
 8001b4c:	b510      	push	{r4, lr}
 8001b4e:	4604      	mov	r4, r0
 8001b50:	f001 000f 	and.w	r0, r1, #15
 8001b54:	eb00 03c0 	add.w	r3, r0, r0, lsl #3
 8001b58:	f011 0f80 	tst.w	r1, #128	; 0x80
 8001b5c:	ea4f 0383 	mov.w	r3, r3, lsl #2
 8001b60:	f04f 0224 	mov.w	r2, #36	; 0x24
 8001b64:	d016      	beq.n	8001b94 <HAL_PCD_EP_Close+0x48>
 8001b66:	fb02 4200 	mla	r2, r2, r0, r4
 8001b6a:	f103 013c 	add.w	r1, r3, #60	; 0x3c
 8001b6e:	2301      	movs	r3, #1
 8001b70:	4421      	add	r1, r4
 8001b72:	f882 303d 	strb.w	r3, [r2, #61]	; 0x3d
 8001b76:	7008      	strb	r0, [r1, #0]
 8001b78:	f894 34bc 	ldrb.w	r3, [r4, #1212]	; 0x4bc
 8001b7c:	2b01      	cmp	r3, #1
 8001b7e:	d012      	beq.n	8001ba6 <HAL_PCD_EP_Close+0x5a>
 8001b80:	2301      	movs	r3, #1
 8001b82:	6820      	ldr	r0, [r4, #0]
 8001b84:	f884 34bc 	strb.w	r3, [r4, #1212]	; 0x4bc
 8001b88:	f001 f93c 	bl	8002e04 <USB_DeactivateEndpoint>
 8001b8c:	2000      	movs	r0, #0
 8001b8e:	f884 04bc 	strb.w	r0, [r4, #1212]	; 0x4bc
 8001b92:	bd10      	pop	{r4, pc}
 8001b94:	fb02 4200 	mla	r2, r2, r0, r4
 8001b98:	f503 711f 	add.w	r1, r3, #636	; 0x27c
 8001b9c:	2300      	movs	r3, #0
 8001b9e:	4421      	add	r1, r4
 8001ba0:	f882 327d 	strb.w	r3, [r2, #637]	; 0x27d
 8001ba4:	e7e7      	b.n	8001b76 <HAL_PCD_EP_Close+0x2a>
 8001ba6:	2002      	movs	r0, #2
 8001ba8:	e7f3      	b.n	8001b92 <HAL_PCD_EP_Close+0x46>

08001baa <HAL_PCD_EP_Receive>:
 8001baa:	b538      	push	{r3, r4, r5, lr}
 8001bac:	f001 050f 	and.w	r5, r1, #15
 8001bb0:	2424      	movs	r4, #36	; 0x24
 8001bb2:	fb04 0105 	mla	r1, r4, r5, r0
 8001bb6:	fb04 0405 	mla	r4, r4, r5, r0
 8001bba:	f501 711f 	add.w	r1, r1, #636	; 0x27c
 8001bbe:	f8c4 3294 	str.w	r3, [r4, #660]	; 0x294
 8001bc2:	2300      	movs	r3, #0
 8001bc4:	f8c4 228c 	str.w	r2, [r4, #652]	; 0x28c
 8001bc8:	f8c4 329c 	str.w	r3, [r4, #668]	; 0x29c
 8001bcc:	f884 327d 	strb.w	r3, [r4, #637]	; 0x27d
 8001bd0:	f884 527c 	strb.w	r5, [r4, #636]	; 0x27c
 8001bd4:	6903      	ldr	r3, [r0, #16]
 8001bd6:	6800      	ldr	r0, [r0, #0]
 8001bd8:	2b01      	cmp	r3, #1
 8001bda:	bf08      	it	eq
 8001bdc:	f8c4 2290 	streq.w	r2, [r4, #656]	; 0x290
 8001be0:	b2da      	uxtb	r2, r3
 8001be2:	b91d      	cbnz	r5, 8001bec <HAL_PCD_EP_Receive+0x42>
 8001be4:	f001 f964 	bl	8002eb0 <USB_EP0StartXfer>
 8001be8:	2000      	movs	r0, #0
 8001bea:	bd38      	pop	{r3, r4, r5, pc}
 8001bec:	f001 fa32 	bl	8003054 <USB_EPStartXfer>
 8001bf0:	e7fa      	b.n	8001be8 <HAL_PCD_EP_Receive+0x3e>

08001bf2 <HAL_PCD_EP_GetRxCount>:
 8001bf2:	f001 010f 	and.w	r1, r1, #15
 8001bf6:	2324      	movs	r3, #36	; 0x24
 8001bf8:	fb03 0001 	mla	r0, r3, r1, r0
 8001bfc:	f8d0 029c 	ldr.w	r0, [r0, #668]	; 0x29c
 8001c00:	4770      	bx	lr

08001c02 <HAL_PCD_EP_Transmit>:
 8001c02:	b538      	push	{r3, r4, r5, lr}
 8001c04:	f001 050f 	and.w	r5, r1, #15
 8001c08:	2424      	movs	r4, #36	; 0x24
 8001c0a:	fb04 0105 	mla	r1, r4, r5, r0
 8001c0e:	fb04 0405 	mla	r4, r4, r5, r0
 8001c12:	313c      	adds	r1, #60	; 0x3c
 8001c14:	6563      	str	r3, [r4, #84]	; 0x54
 8001c16:	2300      	movs	r3, #0
 8001c18:	65e3      	str	r3, [r4, #92]	; 0x5c
 8001c1a:	2301      	movs	r3, #1
 8001c1c:	64e2      	str	r2, [r4, #76]	; 0x4c
 8001c1e:	f884 303d 	strb.w	r3, [r4, #61]	; 0x3d
 8001c22:	f884 503c 	strb.w	r5, [r4, #60]	; 0x3c
 8001c26:	6903      	ldr	r3, [r0, #16]
 8001c28:	6800      	ldr	r0, [r0, #0]
 8001c2a:	2b01      	cmp	r3, #1
 8001c2c:	bf08      	it	eq
 8001c2e:	6522      	streq	r2, [r4, #80]	; 0x50
 8001c30:	b2da      	uxtb	r2, r3
 8001c32:	b91d      	cbnz	r5, 8001c3c <HAL_PCD_EP_Transmit+0x3a>
 8001c34:	f001 f93c 	bl	8002eb0 <USB_EP0StartXfer>
 8001c38:	2000      	movs	r0, #0
 8001c3a:	bd38      	pop	{r3, r4, r5, pc}
 8001c3c:	f001 fa0a 	bl	8003054 <USB_EPStartXfer>
 8001c40:	e7fa      	b.n	8001c38 <HAL_PCD_EP_Transmit+0x36>

08001c42 <HAL_PCD_EP_SetStall>:
 8001c42:	b538      	push	{r3, r4, r5, lr}
 8001c44:	6843      	ldr	r3, [r0, #4]
 8001c46:	f001 050f 	and.w	r5, r1, #15
 8001c4a:	429d      	cmp	r5, r3
 8001c4c:	4604      	mov	r4, r0
 8001c4e:	d82c      	bhi.n	8001caa <HAL_PCD_EP_SetStall+0x68>
 8001c50:	f011 0f80 	tst.w	r1, #128	; 0x80
 8001c54:	f04f 0024 	mov.w	r0, #36	; 0x24
 8001c58:	d01e      	beq.n	8001c98 <HAL_PCD_EP_SetStall+0x56>
 8001c5a:	fb00 4205 	mla	r2, r0, r5, r4
 8001c5e:	fb00 4105 	mla	r1, r0, r5, r4
 8001c62:	2301      	movs	r3, #1
 8001c64:	313c      	adds	r1, #60	; 0x3c
 8001c66:	f882 303d 	strb.w	r3, [r2, #61]	; 0x3d
 8001c6a:	2301      	movs	r3, #1
 8001c6c:	708b      	strb	r3, [r1, #2]
 8001c6e:	700d      	strb	r5, [r1, #0]
 8001c70:	f894 24bc 	ldrb.w	r2, [r4, #1212]	; 0x4bc
 8001c74:	429a      	cmp	r2, r3
 8001c76:	d01a      	beq.n	8001cae <HAL_PCD_EP_SetStall+0x6c>
 8001c78:	6820      	ldr	r0, [r4, #0]
 8001c7a:	f884 34bc 	strb.w	r3, [r4, #1212]	; 0x4bc
 8001c7e:	f001 faf5 	bl	800326c <USB_EPSetStall>
 8001c82:	b92d      	cbnz	r5, 8001c90 <HAL_PCD_EP_SetStall+0x4e>
 8001c84:	7c21      	ldrb	r1, [r4, #16]
 8001c86:	6820      	ldr	r0, [r4, #0]
 8001c88:	f204 42c4 	addw	r2, r4, #1220	; 0x4c4
 8001c8c:	f001 fbb2 	bl	80033f4 <USB_EP0_OutStart>
 8001c90:	2000      	movs	r0, #0
 8001c92:	f884 04bc 	strb.w	r0, [r4, #1212]	; 0x4bc
 8001c96:	bd38      	pop	{r3, r4, r5, pc}
 8001c98:	fb00 4301 	mla	r3, r0, r1, r4
 8001c9c:	461a      	mov	r2, r3
 8001c9e:	f503 711f 	add.w	r1, r3, #636	; 0x27c
 8001ca2:	2300      	movs	r3, #0
 8001ca4:	f882 327d 	strb.w	r3, [r2, #637]	; 0x27d
 8001ca8:	e7df      	b.n	8001c6a <HAL_PCD_EP_SetStall+0x28>
 8001caa:	2001      	movs	r0, #1
 8001cac:	e7f3      	b.n	8001c96 <HAL_PCD_EP_SetStall+0x54>
 8001cae:	2002      	movs	r0, #2
 8001cb0:	e7f1      	b.n	8001c96 <HAL_PCD_EP_SetStall+0x54>

08001cb2 <HAL_PCD_EP_ClrStall>:
 8001cb2:	b538      	push	{r3, r4, r5, lr}
 8001cb4:	6843      	ldr	r3, [r0, #4]
 8001cb6:	f001 020f 	and.w	r2, r1, #15
 8001cba:	429a      	cmp	r2, r3
 8001cbc:	4604      	mov	r4, r0
 8001cbe:	d82a      	bhi.n	8001d16 <HAL_PCD_EP_ClrStall+0x64>
 8001cc0:	eb02 03c2 	add.w	r3, r2, r2, lsl #3
 8001cc4:	f011 0f80 	tst.w	r1, #128	; 0x80
 8001cc8:	ea4f 0383 	mov.w	r3, r3, lsl #2
 8001ccc:	f04f 0024 	mov.w	r0, #36	; 0x24
 8001cd0:	d018      	beq.n	8001d04 <HAL_PCD_EP_ClrStall+0x52>
 8001cd2:	fb00 4002 	mla	r0, r0, r2, r4
 8001cd6:	f103 013c 	add.w	r1, r3, #60	; 0x3c
 8001cda:	2301      	movs	r3, #1
 8001cdc:	4421      	add	r1, r4
 8001cde:	f880 303d 	strb.w	r3, [r0, #61]	; 0x3d
 8001ce2:	2500      	movs	r5, #0
 8001ce4:	708d      	strb	r5, [r1, #2]
 8001ce6:	700a      	strb	r2, [r1, #0]
 8001ce8:	f894 34bc 	ldrb.w	r3, [r4, #1212]	; 0x4bc
 8001cec:	2b01      	cmp	r3, #1
 8001cee:	d014      	beq.n	8001d1a <HAL_PCD_EP_ClrStall+0x68>
 8001cf0:	2301      	movs	r3, #1
 8001cf2:	6820      	ldr	r0, [r4, #0]
 8001cf4:	f884 34bc 	strb.w	r3, [r4, #1212]	; 0x4bc
 8001cf8:	f001 fae3 	bl	80032c2 <USB_EPClearStall>
 8001cfc:	f884 54bc 	strb.w	r5, [r4, #1212]	; 0x4bc
 8001d00:	4628      	mov	r0, r5
 8001d02:	bd38      	pop	{r3, r4, r5, pc}
 8001d04:	fb00 4002 	mla	r0, r0, r2, r4
 8001d08:	f503 711f 	add.w	r1, r3, #636	; 0x27c
 8001d0c:	2300      	movs	r3, #0
 8001d0e:	4421      	add	r1, r4
 8001d10:	f880 327d 	strb.w	r3, [r0, #637]	; 0x27d
 8001d14:	e7e5      	b.n	8001ce2 <HAL_PCD_EP_ClrStall+0x30>
 8001d16:	2001      	movs	r0, #1
 8001d18:	e7f3      	b.n	8001d02 <HAL_PCD_EP_ClrStall+0x50>
 8001d1a:	2002      	movs	r0, #2
 8001d1c:	e7f1      	b.n	8001d02 <HAL_PCD_EP_ClrStall+0x50>

08001d1e <HAL_PCD_EP_Abort>:
 8001d1e:	f001 030f 	and.w	r3, r1, #15
 8001d22:	eb03 03c3 	add.w	r3, r3, r3, lsl #3
 8001d26:	060a      	lsls	r2, r1, #24
 8001d28:	ea4f 0383 	mov.w	r3, r3, lsl #2
 8001d2c:	bf4c      	ite	mi
 8001d2e:	f103 013c 	addmi.w	r1, r3, #60	; 0x3c
 8001d32:	f503 711f 	addpl.w	r1, r3, #636	; 0x27c
 8001d36:	4401      	add	r1, r0
 8001d38:	6800      	ldr	r0, [r0, #0]
 8001d3a:	f001 b935 	b.w	8002fa8 <USB_EPStopXfer>
	...

08001d40 <HAL_PCD_IRQHandler>:
 8001d40:	e92d 4ff0 	stmdb	sp!, {r4, r5, r6, r7, r8, r9, sl, fp, lr}
 8001d44:	6806      	ldr	r6, [r0, #0]
 8001d46:	b089      	sub	sp, #36	; 0x24
 8001d48:	4604      	mov	r4, r0
 8001d4a:	4630      	mov	r0, r6
 8001d4c:	f001 fb3d 	bl	80033ca <USB_GetMode>
 8001d50:	9003      	str	r0, [sp, #12]
 8001d52:	2800      	cmp	r0, #0
 8001d54:	f040 8156 	bne.w	8002004 <HAL_PCD_IRQHandler+0x2c4>
 8001d58:	6820      	ldr	r0, [r4, #0]
 8001d5a:	f001 fb07 	bl	800336c <USB_ReadInterrupts>
 8001d5e:	2800      	cmp	r0, #0
 8001d60:	f000 8150 	beq.w	8002004 <HAL_PCD_IRQHandler+0x2c4>
 8001d64:	f8d6 3808 	ldr.w	r3, [r6, #2056]	; 0x808
 8001d68:	6820      	ldr	r0, [r4, #0]
 8001d6a:	f3c3 230d 	ubfx	r3, r3, #8, #14
 8001d6e:	f8c4 34fc 	str.w	r3, [r4, #1276]	; 0x4fc
 8001d72:	f001 fafb 	bl	800336c <USB_ReadInterrupts>
 8001d76:	0781      	lsls	r1, r0, #30
 8001d78:	bf48      	it	mi
 8001d7a:	6822      	ldrmi	r2, [r4, #0]
 8001d7c:	6820      	ldr	r0, [r4, #0]
 8001d7e:	bf42      	ittt	mi
 8001d80:	6953      	ldrmi	r3, [r2, #20]
 8001d82:	f003 0302 	andmi.w	r3, r3, #2
 8001d86:	6153      	strmi	r3, [r2, #20]
 8001d88:	f001 faf0 	bl	800336c <USB_ReadInterrupts>
 8001d8c:	06c2      	lsls	r2, r0, #27
 8001d8e:	f506 6500 	add.w	r5, r6, #2048	; 0x800
 8001d92:	d52c      	bpl.n	8001dee <HAL_PCD_IRQHandler+0xae>
 8001d94:	6822      	ldr	r2, [r4, #0]
 8001d96:	6993      	ldr	r3, [r2, #24]
 8001d98:	f023 0310 	bic.w	r3, r3, #16
 8001d9c:	6193      	str	r3, [r2, #24]
 8001d9e:	f8d6 8020 	ldr.w	r8, [r6, #32]
 8001da2:	f3c8 4343 	ubfx	r3, r8, #17, #4
 8001da6:	2b02      	cmp	r3, #2
 8001da8:	f008 070f 	and.w	r7, r8, #15
 8001dac:	f040 812d 	bne.w	800200a <HAL_PCD_IRQHandler+0x2ca>
 8001db0:	f647 73f0 	movw	r3, #32752	; 0x7ff0
 8001db4:	ea18 0f03 	tst.w	r8, r3
 8001db8:	d014      	beq.n	8001de4 <HAL_PCD_IRQHandler+0xa4>
 8001dba:	2324      	movs	r3, #36	; 0x24
 8001dbc:	fb03 4707 	mla	r7, r3, r7, r4
 8001dc0:	f3c8 190a 	ubfx	r9, r8, #4, #11
 8001dc4:	f8d7 128c 	ldr.w	r1, [r7, #652]	; 0x28c
 8001dc8:	464a      	mov	r2, r9
 8001dca:	4630      	mov	r0, r6
 8001dcc:	f001 fa2e 	bl	800322c <USB_ReadPacket>
 8001dd0:	f8d7 328c 	ldr.w	r3, [r7, #652]	; 0x28c
 8001dd4:	444b      	add	r3, r9
 8001dd6:	f8c7 328c 	str.w	r3, [r7, #652]	; 0x28c
 8001dda:	f8d7 329c 	ldr.w	r3, [r7, #668]	; 0x29c
 8001dde:	444b      	add	r3, r9
 8001de0:	f8c7 329c 	str.w	r3, [r7, #668]	; 0x29c
 8001de4:	6822      	ldr	r2, [r4, #0]
 8001de6:	6993      	ldr	r3, [r2, #24]
 8001de8:	f043 0310 	orr.w	r3, r3, #16
 8001dec:	6193      	str	r3, [r2, #24]
 8001dee:	6820      	ldr	r0, [r4, #0]
 8001df0:	f001 fabc 	bl	800336c <USB_ReadInterrupts>
 8001df4:	0303      	lsls	r3, r0, #12
 8001df6:	f100 811a 	bmi.w	800202e <HAL_PCD_IRQHandler+0x2ee>
 8001dfa:	6820      	ldr	r0, [r4, #0]
 8001dfc:	f001 fab6 	bl	800336c <USB_ReadInterrupts>
 8001e00:	0347      	lsls	r7, r0, #13
 8001e02:	d50c      	bpl.n	8001e1e <HAL_PCD_IRQHandler+0xde>
 8001e04:	6820      	ldr	r0, [r4, #0]
 8001e06:	f001 fabd 	bl	8003384 <USB_ReadDevAllInEpInterrupt>
 8001e0a:	4627      	mov	r7, r4
 8001e0c:	9004      	str	r0, [sp, #16]
 8001e0e:	f506 6a10 	add.w	sl, r6, #2304	; 0x900
 8001e12:	f04f 0900 	mov.w	r9, #0
 8001e16:	9b04      	ldr	r3, [sp, #16]
 8001e18:	2b00      	cmp	r3, #0
 8001e1a:	f040 81d0 	bne.w	80021be <HAL_PCD_IRQHandler+0x47e>
 8001e1e:	6820      	ldr	r0, [r4, #0]
 8001e20:	f001 faa4 	bl	800336c <USB_ReadInterrupts>
 8001e24:	2800      	cmp	r0, #0
 8001e26:	da13      	bge.n	8001e50 <HAL_PCD_IRQHandler+0x110>
 8001e28:	686b      	ldr	r3, [r5, #4]
 8001e2a:	f023 0301 	bic.w	r3, r3, #1
 8001e2e:	606b      	str	r3, [r5, #4]
 8001e30:	f894 34f4 	ldrb.w	r3, [r4, #1268]	; 0x4f4
 8001e34:	2b01      	cmp	r3, #1
 8001e36:	f040 826b 	bne.w	8002310 <HAL_PCD_IRQHandler+0x5d0>
 8001e3a:	2100      	movs	r1, #0
 8001e3c:	f884 14f4 	strb.w	r1, [r4, #1268]	; 0x4f4
 8001e40:	4620      	mov	r0, r4
 8001e42:	f000 fae7 	bl	8002414 <HAL_PCDEx_LPM_Callback>
 8001e46:	6822      	ldr	r2, [r4, #0]
 8001e48:	6953      	ldr	r3, [r2, #20]
 8001e4a:	f003 4300 	and.w	r3, r3, #2147483648	; 0x80000000
 8001e4e:	6153      	str	r3, [r2, #20]
 8001e50:	6820      	ldr	r0, [r4, #0]
 8001e52:	f001 fa8b 	bl	800336c <USB_ReadInterrupts>
 8001e56:	0501      	lsls	r1, r0, #20
 8001e58:	d50a      	bpl.n	8001e70 <HAL_PCD_IRQHandler+0x130>
 8001e5a:	68ab      	ldr	r3, [r5, #8]
 8001e5c:	07da      	lsls	r2, r3, #31
 8001e5e:	d502      	bpl.n	8001e66 <HAL_PCD_IRQHandler+0x126>
 8001e60:	4620      	mov	r0, r4
 8001e62:	f002 fb6f 	bl	8004544 <HAL_PCD_SuspendCallback>
 8001e66:	6822      	ldr	r2, [r4, #0]
 8001e68:	6953      	ldr	r3, [r2, #20]
 8001e6a:	f403 6300 	and.w	r3, r3, #2048	; 0x800
 8001e6e:	6153      	str	r3, [r2, #20]
 8001e70:	6820      	ldr	r0, [r4, #0]
 8001e72:	f001 fa7b 	bl	800336c <USB_ReadInterrupts>
 8001e76:	04c3      	lsls	r3, r0, #19
 8001e78:	d533      	bpl.n	8001ee2 <HAL_PCD_IRQHandler+0x1a2>
 8001e7a:	686b      	ldr	r3, [r5, #4]
 8001e7c:	6820      	ldr	r0, [r4, #0]
 8001e7e:	f023 0301 	bic.w	r3, r3, #1
 8001e82:	606b      	str	r3, [r5, #4]
 8001e84:	2110      	movs	r1, #16
 8001e86:	f000 fe69 	bl	8002b5c <USB_FlushTxFifo>
 8001e8a:	f506 6310 	add.w	r3, r6, #2304	; 0x900
 8001e8e:	f64f 317f 	movw	r1, #64383	; 0xfb7f
 8001e92:	6862      	ldr	r2, [r4, #4]
 8001e94:	9803      	ldr	r0, [sp, #12]
 8001e96:	4282      	cmp	r2, r0
 8001e98:	f200 8242 	bhi.w	8002320 <HAL_PCD_IRQHandler+0x5e0>
 8001e9c:	69eb      	ldr	r3, [r5, #28]
 8001e9e:	f043 1301 	orr.w	r3, r3, #65537	; 0x10001
 8001ea2:	61eb      	str	r3, [r5, #28]
 8001ea4:	6b23      	ldr	r3, [r4, #48]	; 0x30
 8001ea6:	2b00      	cmp	r3, #0
 8001ea8:	f000 8252 	beq.w	8002350 <HAL_PCD_IRQHandler+0x610>
 8001eac:	f8d5 3084 	ldr.w	r3, [r5, #132]	; 0x84
 8001eb0:	f043 030b 	orr.w	r3, r3, #11
 8001eb4:	f8c5 3084 	str.w	r3, [r5, #132]	; 0x84
 8001eb8:	6c6b      	ldr	r3, [r5, #68]	; 0x44
 8001eba:	f043 030b 	orr.w	r3, r3, #11
 8001ebe:	646b      	str	r3, [r5, #68]	; 0x44
 8001ec0:	f8d6 3800 	ldr.w	r3, [r6, #2048]	; 0x800
 8001ec4:	7c21      	ldrb	r1, [r4, #16]
 8001ec6:	6820      	ldr	r0, [r4, #0]
 8001ec8:	f423 63fe 	bic.w	r3, r3, #2032	; 0x7f0
 8001ecc:	f8c6 3800 	str.w	r3, [r6, #2048]	; 0x800
 8001ed0:	f204 42c4 	addw	r2, r4, #1220	; 0x4c4
 8001ed4:	f001 fa8e 	bl	80033f4 <USB_EP0_OutStart>
 8001ed8:	6822      	ldr	r2, [r4, #0]
 8001eda:	6953      	ldr	r3, [r2, #20]
 8001edc:	f403 5380 	and.w	r3, r3, #4096	; 0x1000
 8001ee0:	6153      	str	r3, [r2, #20]
 8001ee2:	6820      	ldr	r0, [r4, #0]
 8001ee4:	f001 fa42 	bl	800336c <USB_ReadInterrupts>
 8001ee8:	0487      	lsls	r7, r0, #18
 8001eea:	d516      	bpl.n	8001f1a <HAL_PCD_IRQHandler+0x1da>
 8001eec:	6820      	ldr	r0, [r4, #0]
 8001eee:	f001 fa70 	bl	80033d2 <USB_ActivateSetup>
 8001ef2:	6820      	ldr	r0, [r4, #0]
 8001ef4:	f000 ff3c 	bl	8002d70 <USB_GetDevSpeed>
 8001ef8:	60e0      	str	r0, [r4, #12]
 8001efa:	6827      	ldr	r7, [r4, #0]
 8001efc:	f000 fd06 	bl	800290c <HAL_RCC_GetHCLKFreq>
 8001f00:	7b22      	ldrb	r2, [r4, #12]
 8001f02:	4601      	mov	r1, r0
 8001f04:	4638      	mov	r0, r7
 8001f06:	f000 fd7d 	bl	8002a04 <USB_SetTurnaroundTime>
 8001f0a:	4620      	mov	r0, r4
 8001f0c:	f002 fb07 	bl	800451e <HAL_PCD_ResetCallback>
 8001f10:	6822      	ldr	r2, [r4, #0]
 8001f12:	6953      	ldr	r3, [r2, #20]
 8001f14:	f403 5300 	and.w	r3, r3, #8192	; 0x2000
 8001f18:	6153      	str	r3, [r2, #20]
 8001f1a:	6820      	ldr	r0, [r4, #0]
 8001f1c:	f001 fa26 	bl	800336c <USB_ReadInterrupts>
 8001f20:	0700      	lsls	r0, r0, #28
 8001f22:	d507      	bpl.n	8001f34 <HAL_PCD_IRQHandler+0x1f4>
 8001f24:	4620      	mov	r0, r4
 8001f26:	f002 faf6 	bl	8004516 <HAL_PCD_SOFCallback>
 8001f2a:	6822      	ldr	r2, [r4, #0]
 8001f2c:	6953      	ldr	r3, [r2, #20]
 8001f2e:	f003 0308 	and.w	r3, r3, #8
 8001f32:	6153      	str	r3, [r2, #20]
 8001f34:	6820      	ldr	r0, [r4, #0]
 8001f36:	f001 fa19 	bl	800336c <USB_ReadInterrupts>
 8001f3a:	0601      	lsls	r1, r0, #24
 8001f3c:	f100 8213 	bmi.w	8002366 <HAL_PCD_IRQHandler+0x626>
 8001f40:	6820      	ldr	r0, [r4, #0]
 8001f42:	f001 fa13 	bl	800336c <USB_ReadInterrupts>
 8001f46:	02c2      	lsls	r2, r0, #11
 8001f48:	d50c      	bpl.n	8001f64 <HAL_PCD_IRQHandler+0x224>
 8001f4a:	46a0      	mov	r8, r4
 8001f4c:	f506 6912 	add.w	r9, r6, #2336	; 0x920
 8001f50:	2701      	movs	r7, #1
 8001f52:	6863      	ldr	r3, [r4, #4]
 8001f54:	42bb      	cmp	r3, r7
 8001f56:	f200 821f 	bhi.w	8002398 <HAL_PCD_IRQHandler+0x658>
 8001f5a:	6822      	ldr	r2, [r4, #0]
 8001f5c:	6953      	ldr	r3, [r2, #20]
 8001f5e:	f403 1380 	and.w	r3, r3, #1048576	; 0x100000
 8001f62:	6153      	str	r3, [r2, #20]
 8001f64:	6820      	ldr	r0, [r4, #0]
 8001f66:	f001 fa01 	bl	800336c <USB_ReadInterrupts>
 8001f6a:	0283      	lsls	r3, r0, #10
 8001f6c:	d52d      	bpl.n	8001fca <HAL_PCD_IRQHandler+0x28a>
 8001f6e:	f8d4 e004 	ldr.w	lr, [r4, #4]
 8001f72:	4623      	mov	r3, r4
 8001f74:	f506 6032 	add.w	r0, r6, #2848	; 0xb20
 8001f78:	2101      	movs	r1, #1
 8001f7a:	458e      	cmp	lr, r1
 8001f7c:	d920      	bls.n	8001fc0 <HAL_PCD_IRQHandler+0x280>
 8001f7e:	f893 c2a4 	ldrb.w	ip, [r3, #676]	; 0x2a4
 8001f82:	6802      	ldr	r2, [r0, #0]
 8001f84:	f1bc 0f01 	cmp.w	ip, #1
 8001f88:	f040 821c 	bne.w	80023c4 <HAL_PCD_IRQHandler+0x684>
 8001f8c:	2a00      	cmp	r2, #0
 8001f8e:	f280 8219 	bge.w	80023c4 <HAL_PCD_IRQHandler+0x684>
 8001f92:	f8d4 74fc 	ldr.w	r7, [r4, #1276]	; 0x4fc
 8001f96:	f402 3280 	and.w	r2, r2, #65536	; 0x10000
 8001f9a:	f007 0701 	and.w	r7, r7, #1
 8001f9e:	42ba      	cmp	r2, r7
 8001fa0:	f040 8210 	bne.w	80023c4 <HAL_PCD_IRQHandler+0x684>
 8001fa4:	f883 c2a3 	strb.w	ip, [r3, #675]	; 0x2a3
 8001fa8:	69b2      	ldr	r2, [r6, #24]
 8001faa:	f042 0280 	orr.w	r2, r2, #128	; 0x80
 8001fae:	61b2      	str	r2, [r6, #24]
 8001fb0:	6972      	ldr	r2, [r6, #20]
 8001fb2:	0617      	lsls	r7, r2, #24
 8001fb4:	f100 8206 	bmi.w	80023c4 <HAL_PCD_IRQHandler+0x684>
 8001fb8:	686b      	ldr	r3, [r5, #4]
 8001fba:	f443 7300 	orr.w	r3, r3, #512	; 0x200
 8001fbe:	606b      	str	r3, [r5, #4]
 8001fc0:	6822      	ldr	r2, [r4, #0]
 8001fc2:	6953      	ldr	r3, [r2, #20]
 8001fc4:	f403 1300 	and.w	r3, r3, #2097152	; 0x200000
 8001fc8:	6153      	str	r3, [r2, #20]
 8001fca:	6820      	ldr	r0, [r4, #0]
 8001fcc:	f001 f9ce 	bl	800336c <USB_ReadInterrupts>
 8001fd0:	0041      	lsls	r1, r0, #1
 8001fd2:	d507      	bpl.n	8001fe4 <HAL_PCD_IRQHandler+0x2a4>
 8001fd4:	4620      	mov	r0, r4
 8001fd6:	f002 fad9 	bl	800458c <HAL_PCD_ConnectCallback>
 8001fda:	6822      	ldr	r2, [r4, #0]
 8001fdc:	6953      	ldr	r3, [r2, #20]
 8001fde:	f003 4380 	and.w	r3, r3, #1073741824	; 0x40000000
 8001fe2:	6153      	str	r3, [r2, #20]
 8001fe4:	6820      	ldr	r0, [r4, #0]
 8001fe6:	f001 f9c1 	bl	800336c <USB_ReadInterrupts>
 8001fea:	0742      	lsls	r2, r0, #29
 8001fec:	d50a      	bpl.n	8002004 <HAL_PCD_IRQHandler+0x2c4>
 8001fee:	6823      	ldr	r3, [r4, #0]
 8001ff0:	685d      	ldr	r5, [r3, #4]
 8001ff2:	076b      	lsls	r3, r5, #29
 8001ff4:	d502      	bpl.n	8001ffc <HAL_PCD_IRQHandler+0x2bc>
 8001ff6:	4620      	mov	r0, r4
 8001ff8:	f002 facc 	bl	8004594 <HAL_PCD_DisconnectCallback>
 8001ffc:	6822      	ldr	r2, [r4, #0]
 8001ffe:	6853      	ldr	r3, [r2, #4]
 8002000:	432b      	orrs	r3, r5
 8002002:	6053      	str	r3, [r2, #4]
 8002004:	b009      	add	sp, #36	; 0x24
 8002006:	e8bd 8ff0 	ldmia.w	sp!, {r4, r5, r6, r7, r8, r9, sl, fp, pc}
 800200a:	2b06      	cmp	r3, #6
 800200c:	f47f aeea 	bne.w	8001de4 <HAL_PCD_IRQHandler+0xa4>
 8002010:	2208      	movs	r2, #8
 8002012:	f204 41c4 	addw	r1, r4, #1220	; 0x4c4
 8002016:	4630      	mov	r0, r6
 8002018:	f001 f908 	bl	800322c <USB_ReadPacket>
 800201c:	2324      	movs	r3, #36	; 0x24
 800201e:	fb03 4707 	mla	r7, r3, r7, r4
 8002022:	f3c8 180a 	ubfx	r8, r8, #4, #11
 8002026:	f8d7 329c 	ldr.w	r3, [r7, #668]	; 0x29c
 800202a:	4443      	add	r3, r8
 800202c:	e6d8      	b.n	8001de0 <HAL_PCD_IRQHandler+0xa0>
 800202e:	6820      	ldr	r0, [r4, #0]
 8002030:	f001 f9a0 	bl	8003374 <USB_ReadDevAllOutEpInterrupt>
 8002034:	f506 6830 	add.w	r8, r6, #2816	; 0xb00
 8002038:	9004      	str	r0, [sp, #16]
 800203a:	46a2      	mov	sl, r4
 800203c:	2700      	movs	r7, #0
 800203e:	9b04      	ldr	r3, [sp, #16]
 8002040:	2b00      	cmp	r3, #0
 8002042:	f43f aeda 	beq.w	8001dfa <HAL_PCD_IRQHandler+0xba>
 8002046:	9b04      	ldr	r3, [sp, #16]
 8002048:	07d8      	lsls	r0, r3, #31
 800204a:	d576      	bpl.n	800213a <HAL_PCD_IRQHandler+0x3fa>
 800204c:	fa5f fb87 	uxtb.w	fp, r7
 8002050:	6820      	ldr	r0, [r4, #0]
 8002052:	4659      	mov	r1, fp
 8002054:	f001 f99e 	bl	8003394 <USB_ReadDevOutEPInterrupt>
 8002058:	f010 0f01 	tst.w	r0, #1
 800205c:	4681      	mov	r9, r0
 800205e:	d01c      	beq.n	800209a <HAL_PCD_IRQHandler+0x35a>
 8002060:	6820      	ldr	r0, [r4, #0]
 8002062:	6921      	ldr	r1, [r4, #16]
 8002064:	2301      	movs	r3, #1
 8002066:	f8c8 3008 	str.w	r3, [r8, #8]
 800206a:	f500 6330 	add.w	r3, r0, #2816	; 0xb00
 800206e:	eb03 1347 	add.w	r3, r3, r7, lsl #5
 8002072:	2901      	cmp	r1, #1
 8002074:	f8d0 c040 	ldr.w	ip, [r0, #64]	; 0x40
 8002078:	689a      	ldr	r2, [r3, #8]
 800207a:	f040 808b 	bne.w	8002194 <HAL_PCD_IRQHandler+0x454>
 800207e:	0711      	lsls	r1, r2, #28
 8002080:	d507      	bpl.n	8002092 <HAL_PCD_IRQHandler+0x352>
 8002082:	49a5      	ldr	r1, [pc, #660]	; (8002318 <HAL_PCD_IRQHandler+0x5d8>)
 8002084:	458c      	cmp	ip, r1
 8002086:	d908      	bls.n	800209a <HAL_PCD_IRQHandler+0x35a>
 8002088:	0410      	lsls	r0, r2, #16
 800208a:	d506      	bpl.n	800209a <HAL_PCD_IRQHandler+0x35a>
 800208c:	f44f 4200 	mov.w	r2, #32768	; 0x8000
 8002090:	e002      	b.n	8002098 <HAL_PCD_IRQHandler+0x358>
 8002092:	0691      	lsls	r1, r2, #26
 8002094:	d55a      	bpl.n	800214c <HAL_PCD_IRQHandler+0x40c>
 8002096:	2220      	movs	r2, #32
 8002098:	609a      	str	r2, [r3, #8]
 800209a:	f019 0f08 	tst.w	r9, #8
 800209e:	d021      	beq.n	80020e4 <HAL_PCD_IRQHandler+0x3a4>
 80020a0:	2308      	movs	r3, #8
 80020a2:	f8c8 3008 	str.w	r3, [r8, #8]
 80020a6:	6823      	ldr	r3, [r4, #0]
 80020a8:	489b      	ldr	r0, [pc, #620]	; (8002318 <HAL_PCD_IRQHandler+0x5d8>)
 80020aa:	6c1a      	ldr	r2, [r3, #64]	; 0x40
 80020ac:	f503 6330 	add.w	r3, r3, #2816	; 0xb00
 80020b0:	eb03 1347 	add.w	r3, r3, r7, lsl #5
 80020b4:	4282      	cmp	r2, r0
 80020b6:	6899      	ldr	r1, [r3, #8]
 80020b8:	d904      	bls.n	80020c4 <HAL_PCD_IRQHandler+0x384>
 80020ba:	0409      	lsls	r1, r1, #16
 80020bc:	bf44      	itt	mi
 80020be:	f44f 4100 	movmi.w	r1, #32768	; 0x8000
 80020c2:	6099      	strmi	r1, [r3, #8]
 80020c4:	4620      	mov	r0, r4
 80020c6:	9205      	str	r2, [sp, #20]
 80020c8:	f002 fa0e 	bl	80044e8 <HAL_PCD_SetupStageCallback>
 80020cc:	4b92      	ldr	r3, [pc, #584]	; (8002318 <HAL_PCD_IRQHandler+0x5d8>)
 80020ce:	9a05      	ldr	r2, [sp, #20]
 80020d0:	429a      	cmp	r2, r3
 80020d2:	d907      	bls.n	80020e4 <HAL_PCD_IRQHandler+0x3a4>
 80020d4:	6921      	ldr	r1, [r4, #16]
 80020d6:	2901      	cmp	r1, #1
 80020d8:	d104      	bne.n	80020e4 <HAL_PCD_IRQHandler+0x3a4>
 80020da:	6820      	ldr	r0, [r4, #0]
 80020dc:	f204 42c4 	addw	r2, r4, #1220	; 0x4c4
 80020e0:	f001 f988 	bl	80033f4 <USB_EP0_OutStart>
 80020e4:	f019 0f10 	tst.w	r9, #16
 80020e8:	bf1c      	itt	ne
 80020ea:	2310      	movne	r3, #16
 80020ec:	f8c8 3008 	strne.w	r3, [r8, #8]
 80020f0:	f019 0f02 	tst.w	r9, #2
 80020f4:	d014      	beq.n	8002120 <HAL_PCD_IRQHandler+0x3e0>
 80020f6:	6973      	ldr	r3, [r6, #20]
 80020f8:	061b      	lsls	r3, r3, #24
 80020fa:	bf42      	ittt	mi
 80020fc:	686b      	ldrmi	r3, [r5, #4]
 80020fe:	f443 6380 	orrmi.w	r3, r3, #1024	; 0x400
 8002102:	606b      	strmi	r3, [r5, #4]
 8002104:	f89a 327f 	ldrb.w	r3, [sl, #639]	; 0x27f
 8002108:	2b01      	cmp	r3, #1
 800210a:	d106      	bne.n	800211a <HAL_PCD_IRQHandler+0x3da>
 800210c:	2300      	movs	r3, #0
 800210e:	f88a 327f 	strb.w	r3, [sl, #639]	; 0x27f
 8002112:	4659      	mov	r1, fp
 8002114:	4620      	mov	r0, r4
 8002116:	f002 fa31 	bl	800457c <HAL_PCD_ISOOUTIncompleteCallback>
 800211a:	2302      	movs	r3, #2
 800211c:	f8c8 3008 	str.w	r3, [r8, #8]
 8002120:	f019 0f20 	tst.w	r9, #32
 8002124:	bf1c      	itt	ne
 8002126:	2320      	movne	r3, #32
 8002128:	f8c8 3008 	strne.w	r3, [r8, #8]
 800212c:	f419 5f00 	tst.w	r9, #8192	; 0x2000
 8002130:	bf1c      	itt	ne
 8002132:	f44f 5300 	movne.w	r3, #8192	; 0x2000
 8002136:	f8c8 3008 	strne.w	r3, [r8, #8]
 800213a:	9b04      	ldr	r3, [sp, #16]
 800213c:	085b      	lsrs	r3, r3, #1
 800213e:	3701      	adds	r7, #1
 8002140:	9304      	str	r3, [sp, #16]
 8002142:	f108 0820 	add.w	r8, r8, #32
 8002146:	f10a 0a24 	add.w	sl, sl, #36	; 0x24
 800214a:	e778      	b.n	800203e <HAL_PCD_IRQHandler+0x2fe>
 800214c:	f012 0f28 	tst.w	r2, #40	; 0x28
 8002150:	d1a3      	bne.n	800209a <HAL_PCD_IRQHandler+0x35a>
 8002152:	4971      	ldr	r1, [pc, #452]	; (8002318 <HAL_PCD_IRQHandler+0x5d8>)
 8002154:	458c      	cmp	ip, r1
 8002156:	d901      	bls.n	800215c <HAL_PCD_IRQHandler+0x41c>
 8002158:	0412      	lsls	r2, r2, #16
 800215a:	d497      	bmi.n	800208c <HAL_PCD_IRQHandler+0x34c>
 800215c:	691a      	ldr	r2, [r3, #16]
 800215e:	f8da 3298 	ldr.w	r3, [sl, #664]	; 0x298
 8002162:	f3c2 0212 	ubfx	r2, r2, #0, #19
 8002166:	1a9b      	subs	r3, r3, r2
 8002168:	f8ca 329c 	str.w	r3, [sl, #668]	; 0x29c
 800216c:	b96f      	cbnz	r7, 800218a <HAL_PCD_IRQHandler+0x44a>
 800216e:	f8d4 2294 	ldr.w	r2, [r4, #660]	; 0x294
 8002172:	b92a      	cbnz	r2, 8002180 <HAL_PCD_IRQHandler+0x440>
 8002174:	f204 42c4 	addw	r2, r4, #1220	; 0x4c4
 8002178:	2101      	movs	r1, #1
 800217a:	f001 f93b 	bl	80033f4 <USB_EP0_OutStart>
 800217e:	e004      	b.n	800218a <HAL_PCD_IRQHandler+0x44a>
 8002180:	f8d4 228c 	ldr.w	r2, [r4, #652]	; 0x28c
 8002184:	4413      	add	r3, r2
 8002186:	f8c4 328c 	str.w	r3, [r4, #652]	; 0x28c
 800218a:	4659      	mov	r1, fp
 800218c:	4620      	mov	r0, r4
 800218e:	f002 f9b1 	bl	80044f4 <HAL_PCD_DataOutStageCallback>
 8002192:	e782      	b.n	800209a <HAL_PCD_IRQHandler+0x35a>
 8002194:	4961      	ldr	r1, [pc, #388]	; (800231c <HAL_PCD_IRQHandler+0x5dc>)
 8002196:	458c      	cmp	ip, r1
 8002198:	d107      	bne.n	80021aa <HAL_PCD_IRQHandler+0x46a>
 800219a:	0411      	lsls	r1, r2, #16
 800219c:	f53f af76 	bmi.w	800208c <HAL_PCD_IRQHandler+0x34c>
 80021a0:	0690      	lsls	r0, r2, #26
 80021a2:	d5f2      	bpl.n	800218a <HAL_PCD_IRQHandler+0x44a>
 80021a4:	2220      	movs	r2, #32
 80021a6:	609a      	str	r2, [r3, #8]
 80021a8:	e7ef      	b.n	800218a <HAL_PCD_IRQHandler+0x44a>
 80021aa:	2f00      	cmp	r7, #0
 80021ac:	d1ed      	bne.n	800218a <HAL_PCD_IRQHandler+0x44a>
 80021ae:	f8d4 3294 	ldr.w	r3, [r4, #660]	; 0x294
 80021b2:	2b00      	cmp	r3, #0
 80021b4:	d1e9      	bne.n	800218a <HAL_PCD_IRQHandler+0x44a>
 80021b6:	f204 42c4 	addw	r2, r4, #1220	; 0x4c4
 80021ba:	4639      	mov	r1, r7
 80021bc:	e7dd      	b.n	800217a <HAL_PCD_IRQHandler+0x43a>
 80021be:	9b04      	ldr	r3, [sp, #16]
 80021c0:	07d8      	lsls	r0, r3, #31
 80021c2:	f140 809c 	bpl.w	80022fe <HAL_PCD_IRQHandler+0x5be>
 80021c6:	fa5f fb89 	uxtb.w	fp, r9
 80021ca:	6820      	ldr	r0, [r4, #0]
 80021cc:	4659      	mov	r1, fp
 80021ce:	f001 f8ea 	bl	80033a6 <USB_ReadDevInEPInterrupt>
 80021d2:	f010 0f01 	tst.w	r0, #1
 80021d6:	4680      	mov	r8, r0
 80021d8:	d020      	beq.n	800221c <HAL_PCD_IRQHandler+0x4dc>
 80021da:	2101      	movs	r1, #1
 80021dc:	6b6b      	ldr	r3, [r5, #52]	; 0x34
 80021de:	f009 020f 	and.w	r2, r9, #15
 80021e2:	fa01 f202 	lsl.w	r2, r1, r2
 80021e6:	ea23 0302 	bic.w	r3, r3, r2
 80021ea:	636b      	str	r3, [r5, #52]	; 0x34
 80021ec:	460b      	mov	r3, r1
 80021ee:	f8ca 1008 	str.w	r1, [sl, #8]
 80021f2:	6921      	ldr	r1, [r4, #16]
 80021f4:	4299      	cmp	r1, r3
 80021f6:	d10d      	bne.n	8002214 <HAL_PCD_IRQHandler+0x4d4>
 80021f8:	e9d7 2312 	ldrd	r2, r3, [r7, #72]	; 0x48
 80021fc:	4413      	add	r3, r2
 80021fe:	64fb      	str	r3, [r7, #76]	; 0x4c
 8002200:	f1b9 0f00 	cmp.w	r9, #0
 8002204:	d106      	bne.n	8002214 <HAL_PCD_IRQHandler+0x4d4>
 8002206:	6d63      	ldr	r3, [r4, #84]	; 0x54
 8002208:	b923      	cbnz	r3, 8002214 <HAL_PCD_IRQHandler+0x4d4>
 800220a:	6820      	ldr	r0, [r4, #0]
 800220c:	f204 42c4 	addw	r2, r4, #1220	; 0x4c4
 8002210:	f001 f8f0 	bl	80033f4 <USB_EP0_OutStart>
 8002214:	4659      	mov	r1, fp
 8002216:	4620      	mov	r0, r4
 8002218:	f002 f975 	bl	8004506 <HAL_PCD_DataInStageCallback>
 800221c:	f018 0f08 	tst.w	r8, #8
 8002220:	bf1c      	itt	ne
 8002222:	2308      	movne	r3, #8
 8002224:	f8ca 3008 	strne.w	r3, [sl, #8]
 8002228:	f018 0f10 	tst.w	r8, #16
 800222c:	bf1c      	itt	ne
 800222e:	2310      	movne	r3, #16
 8002230:	f8ca 3008 	strne.w	r3, [sl, #8]
 8002234:	f018 0f40 	tst.w	r8, #64	; 0x40
 8002238:	bf1c      	itt	ne
 800223a:	2340      	movne	r3, #64	; 0x40
 800223c:	f8ca 3008 	strne.w	r3, [sl, #8]
 8002240:	f018 0f02 	tst.w	r8, #2
 8002244:	d012      	beq.n	800226c <HAL_PCD_IRQHandler+0x52c>
 8002246:	4649      	mov	r1, r9
 8002248:	4630      	mov	r0, r6
 800224a:	f000 fc87 	bl	8002b5c <USB_FlushTxFifo>
 800224e:	f897 303f 	ldrb.w	r3, [r7, #63]	; 0x3f
 8002252:	2b01      	cmp	r3, #1
 8002254:	d107      	bne.n	8002266 <HAL_PCD_IRQHandler+0x526>
 8002256:	f04f 0300 	mov.w	r3, #0
 800225a:	f887 303f 	strb.w	r3, [r7, #63]	; 0x3f
 800225e:	4659      	mov	r1, fp
 8002260:	4620      	mov	r0, r4
 8002262:	f002 f98f 	bl	8004584 <HAL_PCD_ISOINIncompleteCallback>
 8002266:	2302      	movs	r3, #2
 8002268:	f8ca 3008 	str.w	r3, [sl, #8]
 800226c:	f018 0f80 	tst.w	r8, #128	; 0x80
 8002270:	d045      	beq.n	80022fe <HAL_PCD_IRQHandler+0x5be>
 8002272:	6dfa      	ldr	r2, [r7, #92]	; 0x5c
 8002274:	6d7b      	ldr	r3, [r7, #84]	; 0x54
 8002276:	429a      	cmp	r2, r3
 8002278:	d841      	bhi.n	80022fe <HAL_PCD_IRQHandler+0x5be>
 800227a:	1a9b      	subs	r3, r3, r2
 800227c:	6cba      	ldr	r2, [r7, #72]	; 0x48
 800227e:	6821      	ldr	r1, [r4, #0]
 8002280:	9105      	str	r1, [sp, #20]
 8002282:	4293      	cmp	r3, r2
 8002284:	bf28      	it	cs
 8002286:	4613      	movcs	r3, r2
 8002288:	3303      	adds	r3, #3
 800228a:	089b      	lsrs	r3, r3, #2
 800228c:	9306      	str	r3, [sp, #24]
 800228e:	f501 6310 	add.w	r3, r1, #2304	; 0x900
 8002292:	eb03 1349 	add.w	r3, r3, r9, lsl #5
 8002296:	9307      	str	r3, [sp, #28]
 8002298:	9b07      	ldr	r3, [sp, #28]
 800229a:	9806      	ldr	r0, [sp, #24]
 800229c:	6999      	ldr	r1, [r3, #24]
 800229e:	6dfa      	ldr	r2, [r7, #92]	; 0x5c
 80022a0:	6d7b      	ldr	r3, [r7, #84]	; 0x54
 80022a2:	b289      	uxth	r1, r1
 80022a4:	4281      	cmp	r1, r0
 80022a6:	d328      	bcc.n	80022fa <HAL_PCD_IRQHandler+0x5ba>
 80022a8:	429a      	cmp	r2, r3
 80022aa:	d30c      	bcc.n	80022c6 <HAL_PCD_IRQHandler+0x586>
 80022ac:	9b05      	ldr	r3, [sp, #20]
 80022ae:	f009 010f 	and.w	r1, r9, #15
 80022b2:	f8d3 2834 	ldr.w	r2, [r3, #2100]	; 0x834
 80022b6:	2001      	movs	r0, #1
 80022b8:	fa00 f101 	lsl.w	r1, r0, r1
 80022bc:	ea22 0201 	bic.w	r2, r2, r1
 80022c0:	f8c3 2834 	str.w	r2, [r3, #2100]	; 0x834
 80022c4:	e01b      	b.n	80022fe <HAL_PCD_IRQHandler+0x5be>
 80022c6:	eba3 0802 	sub.w	r8, r3, r2
 80022ca:	6cbb      	ldr	r3, [r7, #72]	; 0x48
 80022cc:	9805      	ldr	r0, [sp, #20]
 80022ce:	4598      	cmp	r8, r3
 80022d0:	bf28      	it	cs
 80022d2:	4698      	movcs	r8, r3
 80022d4:	f108 0303 	add.w	r3, r8, #3
 80022d8:	089b      	lsrs	r3, r3, #2
 80022da:	9306      	str	r3, [sp, #24]
 80022dc:	7c23      	ldrb	r3, [r4, #16]
 80022de:	9300      	str	r3, [sp, #0]
 80022e0:	6cf9      	ldr	r1, [r7, #76]	; 0x4c
 80022e2:	fa1f f388 	uxth.w	r3, r8
 80022e6:	465a      	mov	r2, fp
 80022e8:	f000 fea0 	bl	800302c <USB_WritePacket>
 80022ec:	6cfb      	ldr	r3, [r7, #76]	; 0x4c
 80022ee:	4443      	add	r3, r8
 80022f0:	64fb      	str	r3, [r7, #76]	; 0x4c
 80022f2:	6dfb      	ldr	r3, [r7, #92]	; 0x5c
 80022f4:	4443      	add	r3, r8
 80022f6:	65fb      	str	r3, [r7, #92]	; 0x5c
 80022f8:	e7ce      	b.n	8002298 <HAL_PCD_IRQHandler+0x558>
 80022fa:	429a      	cmp	r2, r3
 80022fc:	d2d6      	bcs.n	80022ac <HAL_PCD_IRQHandler+0x56c>
 80022fe:	9b04      	ldr	r3, [sp, #16]
 8002300:	085b      	lsrs	r3, r3, #1
 8002302:	f109 0901 	add.w	r9, r9, #1
 8002306:	9304      	str	r3, [sp, #16]
 8002308:	3724      	adds	r7, #36	; 0x24
 800230a:	f10a 0a20 	add.w	sl, sl, #32
 800230e:	e582      	b.n	8001e16 <HAL_PCD_IRQHandler+0xd6>
 8002310:	4620      	mov	r0, r4
 8002312:	f002 f92f 	bl	8004574 <HAL_PCD_ResumeCallback>
 8002316:	e596      	b.n	8001e46 <HAL_PCD_IRQHandler+0x106>
 8002318:	4f54300a 	.word	0x4f54300a
 800231c:	4f54310a 	.word	0x4f54310a
 8002320:	6099      	str	r1, [r3, #8]
 8002322:	681a      	ldr	r2, [r3, #0]
 8002324:	f422 1200 	bic.w	r2, r2, #2097152	; 0x200000
 8002328:	601a      	str	r2, [r3, #0]
 800232a:	f8c3 1208 	str.w	r1, [r3, #520]	; 0x208
 800232e:	f8d3 2200 	ldr.w	r2, [r3, #512]	; 0x200
 8002332:	f422 1200 	bic.w	r2, r2, #2097152	; 0x200000
 8002336:	f8c3 2200 	str.w	r2, [r3, #512]	; 0x200
 800233a:	f8d3 2200 	ldr.w	r2, [r3, #512]	; 0x200
 800233e:	f042 6200 	orr.w	r2, r2, #134217728	; 0x8000000
 8002342:	f8c3 2200 	str.w	r2, [r3, #512]	; 0x200
 8002346:	9a03      	ldr	r2, [sp, #12]
 8002348:	3201      	adds	r2, #1
 800234a:	9203      	str	r2, [sp, #12]
 800234c:	3320      	adds	r3, #32
 800234e:	e5a0      	b.n	8001e92 <HAL_PCD_IRQHandler+0x152>
 8002350:	696b      	ldr	r3, [r5, #20]
 8002352:	f443 5300 	orr.w	r3, r3, #8192	; 0x2000
 8002356:	f043 032b 	orr.w	r3, r3, #43	; 0x2b
 800235a:	616b      	str	r3, [r5, #20]
 800235c:	692b      	ldr	r3, [r5, #16]
 800235e:	f043 030b 	orr.w	r3, r3, #11
 8002362:	612b      	str	r3, [r5, #16]
 8002364:	e5ac      	b.n	8001ec0 <HAL_PCD_IRQHandler+0x180>
 8002366:	69b3      	ldr	r3, [r6, #24]
 8002368:	f023 0380 	bic.w	r3, r3, #128	; 0x80
 800236c:	61b3      	str	r3, [r6, #24]
 800236e:	2701      	movs	r7, #1
 8002370:	f204 287f 	addw	r8, r4, #639	; 0x27f
 8002374:	f04f 0924 	mov.w	r9, #36	; 0x24
 8002378:	6863      	ldr	r3, [r4, #4]
 800237a:	42bb      	cmp	r3, r7
 800237c:	f67f ade0 	bls.w	8001f40 <HAL_PCD_IRQHandler+0x200>
 8002380:	fb09 f307 	mul.w	r3, r9, r7
 8002384:	f818 3003 	ldrb.w	r3, [r8, r3]
 8002388:	2b01      	cmp	r3, #1
 800238a:	d103      	bne.n	8002394 <HAL_PCD_IRQHandler+0x654>
 800238c:	b2f9      	uxtb	r1, r7
 800238e:	4620      	mov	r0, r4
 8002390:	f7ff fcc5 	bl	8001d1e <HAL_PCD_EP_Abort>
 8002394:	3701      	adds	r7, #1
 8002396:	e7ef      	b.n	8002378 <HAL_PCD_IRQHandler+0x638>
 8002398:	f898 3064 	ldrb.w	r3, [r8, #100]	; 0x64
 800239c:	f8d9 2000 	ldr.w	r2, [r9]
 80023a0:	2b01      	cmp	r3, #1
 80023a2:	d109      	bne.n	80023b8 <HAL_PCD_IRQHandler+0x678>
 80023a4:	2a00      	cmp	r2, #0
 80023a6:	da07      	bge.n	80023b8 <HAL_PCD_IRQHandler+0x678>
 80023a8:	f067 017f 	orn	r1, r7, #127	; 0x7f
 80023ac:	f888 3063 	strb.w	r3, [r8, #99]	; 0x63
 80023b0:	b2c9      	uxtb	r1, r1
 80023b2:	4620      	mov	r0, r4
 80023b4:	f7ff fcb3 	bl	8001d1e <HAL_PCD_EP_Abort>
 80023b8:	3701      	adds	r7, #1
 80023ba:	f108 0824 	add.w	r8, r8, #36	; 0x24
 80023be:	f109 0920 	add.w	r9, r9, #32
 80023c2:	e5c6      	b.n	8001f52 <HAL_PCD_IRQHandler+0x212>
 80023c4:	3101      	adds	r1, #1
 80023c6:	3324      	adds	r3, #36	; 0x24
 80023c8:	3020      	adds	r0, #32
 80023ca:	e5d6      	b.n	8001f7a <HAL_PCD_IRQHandler+0x23a>

080023cc <HAL_PCDEx_SetTxFiFo>:
 80023cc:	6800      	ldr	r0, [r0, #0]
 80023ce:	b570      	push	{r4, r5, r6, lr}
 80023d0:	0412      	lsls	r2, r2, #16
 80023d2:	6a44      	ldr	r4, [r0, #36]	; 0x24
 80023d4:	b919      	cbnz	r1, 80023de <HAL_PCDEx_SetTxFiFo+0x12>
 80023d6:	4322      	orrs	r2, r4
 80023d8:	6282      	str	r2, [r0, #40]	; 0x28
 80023da:	2000      	movs	r0, #0
 80023dc:	bd70      	pop	{r4, r5, r6, pc}
 80023de:	6a83      	ldr	r3, [r0, #40]	; 0x28
 80023e0:	1e4d      	subs	r5, r1, #1
 80023e2:	eb04 4413 	add.w	r4, r4, r3, lsr #16
 80023e6:	2300      	movs	r3, #0
 80023e8:	1c5e      	adds	r6, r3, #1
 80023ea:	b2db      	uxtb	r3, r3
 80023ec:	429d      	cmp	r5, r3
 80023ee:	d805      	bhi.n	80023fc <HAL_PCDEx_SetTxFiFo+0x30>
 80023f0:	313f      	adds	r1, #63	; 0x3f
 80023f2:	eb00 0081 	add.w	r0, r0, r1, lsl #2
 80023f6:	4322      	orrs	r2, r4
 80023f8:	6042      	str	r2, [r0, #4]
 80023fa:	e7ee      	b.n	80023da <HAL_PCDEx_SetTxFiFo+0xe>
 80023fc:	3340      	adds	r3, #64	; 0x40
 80023fe:	eb00 0383 	add.w	r3, r0, r3, lsl #2
 8002402:	685b      	ldr	r3, [r3, #4]
 8002404:	eb04 4413 	add.w	r4, r4, r3, lsr #16
 8002408:	4633      	mov	r3, r6
 800240a:	e7ed      	b.n	80023e8 <HAL_PCDEx_SetTxFiFo+0x1c>

0800240c <HAL_PCDEx_SetRxFiFo>:
 800240c:	6803      	ldr	r3, [r0, #0]
 800240e:	2000      	movs	r0, #0
 8002410:	6259      	str	r1, [r3, #36]	; 0x24
 8002412:	4770      	bx	lr

08002414 <HAL_PCDEx_LPM_Callback>:
 8002414:	4770      	bx	lr
	...

08002418 <HAL_RCC_OscConfig>:
 8002418:	e92d 41f3 	stmdb	sp!, {r0, r1, r4, r5, r6, r7, r8, lr}
 800241c:	4604      	mov	r4, r0
 800241e:	b340      	cbz	r0, 8002472 <HAL_RCC_OscConfig+0x5a>
 8002420:	6803      	ldr	r3, [r0, #0]
 8002422:	07dd      	lsls	r5, r3, #31
 8002424:	d410      	bmi.n	8002448 <HAL_RCC_OscConfig+0x30>
 8002426:	6823      	ldr	r3, [r4, #0]
 8002428:	0798      	lsls	r0, r3, #30
 800242a:	d45e      	bmi.n	80024ea <HAL_RCC_OscConfig+0xd2>
 800242c:	6823      	ldr	r3, [r4, #0]
 800242e:	071a      	lsls	r2, r3, #28
 8002430:	f100 80a0 	bmi.w	8002574 <HAL_RCC_OscConfig+0x15c>
 8002434:	6823      	ldr	r3, [r4, #0]
 8002436:	075b      	lsls	r3, r3, #29
 8002438:	f100 80c0 	bmi.w	80025bc <HAL_RCC_OscConfig+0x1a4>
 800243c:	69a0      	ldr	r0, [r4, #24]
 800243e:	2800      	cmp	r0, #0
 8002440:	f040 8128 	bne.w	8002694 <HAL_RCC_OscConfig+0x27c>
 8002444:	2000      	movs	r0, #0
 8002446:	e02b      	b.n	80024a0 <HAL_RCC_OscConfig+0x88>
 8002448:	4b8f      	ldr	r3, [pc, #572]	; (8002688 <HAL_RCC_OscConfig+0x270>)
 800244a:	689a      	ldr	r2, [r3, #8]
 800244c:	f002 020c 	and.w	r2, r2, #12
 8002450:	2a04      	cmp	r2, #4
 8002452:	d007      	beq.n	8002464 <HAL_RCC_OscConfig+0x4c>
 8002454:	689a      	ldr	r2, [r3, #8]
 8002456:	f002 020c 	and.w	r2, r2, #12
 800245a:	2a08      	cmp	r2, #8
 800245c:	d10b      	bne.n	8002476 <HAL_RCC_OscConfig+0x5e>
 800245e:	685a      	ldr	r2, [r3, #4]
 8002460:	0251      	lsls	r1, r2, #9
 8002462:	d508      	bpl.n	8002476 <HAL_RCC_OscConfig+0x5e>
 8002464:	4b88      	ldr	r3, [pc, #544]	; (8002688 <HAL_RCC_OscConfig+0x270>)
 8002466:	681b      	ldr	r3, [r3, #0]
 8002468:	039a      	lsls	r2, r3, #14
 800246a:	d5dc      	bpl.n	8002426 <HAL_RCC_OscConfig+0xe>
 800246c:	6863      	ldr	r3, [r4, #4]
 800246e:	2b00      	cmp	r3, #0
 8002470:	d1d9      	bne.n	8002426 <HAL_RCC_OscConfig+0xe>
 8002472:	2001      	movs	r0, #1
 8002474:	e014      	b.n	80024a0 <HAL_RCC_OscConfig+0x88>
 8002476:	6862      	ldr	r2, [r4, #4]
 8002478:	f5b2 3f80 	cmp.w	r2, #65536	; 0x10000
 800247c:	d113      	bne.n	80024a6 <HAL_RCC_OscConfig+0x8e>
 800247e:	681a      	ldr	r2, [r3, #0]
 8002480:	f442 3280 	orr.w	r2, r2, #65536	; 0x10000
 8002484:	601a      	str	r2, [r3, #0]
 8002486:	f7fe fcfb 	bl	8000e80 <HAL_GetTick>
 800248a:	4e7f      	ldr	r6, [pc, #508]	; (8002688 <HAL_RCC_OscConfig+0x270>)
 800248c:	4605      	mov	r5, r0
 800248e:	6833      	ldr	r3, [r6, #0]
 8002490:	039b      	lsls	r3, r3, #14
 8002492:	d4c8      	bmi.n	8002426 <HAL_RCC_OscConfig+0xe>
 8002494:	f7fe fcf4 	bl	8000e80 <HAL_GetTick>
 8002498:	1b40      	subs	r0, r0, r5
 800249a:	2864      	cmp	r0, #100	; 0x64
 800249c:	d9f7      	bls.n	800248e <HAL_RCC_OscConfig+0x76>
 800249e:	2003      	movs	r0, #3
 80024a0:	b002      	add	sp, #8
 80024a2:	e8bd 81f0 	ldmia.w	sp!, {r4, r5, r6, r7, r8, pc}
 80024a6:	4d78      	ldr	r5, [pc, #480]	; (8002688 <HAL_RCC_OscConfig+0x270>)
 80024a8:	f5b2 2fa0 	cmp.w	r2, #327680	; 0x50000
 80024ac:	682b      	ldr	r3, [r5, #0]
 80024ae:	d107      	bne.n	80024c0 <HAL_RCC_OscConfig+0xa8>
 80024b0:	f443 2380 	orr.w	r3, r3, #262144	; 0x40000
 80024b4:	602b      	str	r3, [r5, #0]
 80024b6:	682b      	ldr	r3, [r5, #0]
 80024b8:	f443 3380 	orr.w	r3, r3, #65536	; 0x10000
 80024bc:	602b      	str	r3, [r5, #0]
 80024be:	e7e2      	b.n	8002486 <HAL_RCC_OscConfig+0x6e>
 80024c0:	f423 3380 	bic.w	r3, r3, #65536	; 0x10000
 80024c4:	602b      	str	r3, [r5, #0]
 80024c6:	682b      	ldr	r3, [r5, #0]
 80024c8:	f423 2380 	bic.w	r3, r3, #262144	; 0x40000
 80024cc:	602b      	str	r3, [r5, #0]
 80024ce:	2a00      	cmp	r2, #0
 80024d0:	d1d9      	bne.n	8002486 <HAL_RCC_OscConfig+0x6e>
 80024d2:	f7fe fcd5 	bl	8000e80 <HAL_GetTick>
 80024d6:	4606      	mov	r6, r0
 80024d8:	682b      	ldr	r3, [r5, #0]
 80024da:	039f      	lsls	r7, r3, #14
 80024dc:	d5a3      	bpl.n	8002426 <HAL_RCC_OscConfig+0xe>
 80024de:	f7fe fccf 	bl	8000e80 <HAL_GetTick>
 80024e2:	1b80      	subs	r0, r0, r6
 80024e4:	2864      	cmp	r0, #100	; 0x64
 80024e6:	d9f7      	bls.n	80024d8 <HAL_RCC_OscConfig+0xc0>
 80024e8:	e7d9      	b.n	800249e <HAL_RCC_OscConfig+0x86>
 80024ea:	4b67      	ldr	r3, [pc, #412]	; (8002688 <HAL_RCC_OscConfig+0x270>)
 80024ec:	689a      	ldr	r2, [r3, #8]
 80024ee:	f012 0f0c 	tst.w	r2, #12
 80024f2:	d007      	beq.n	8002504 <HAL_RCC_OscConfig+0xec>
 80024f4:	689a      	ldr	r2, [r3, #8]
 80024f6:	f002 020c 	and.w	r2, r2, #12
 80024fa:	2a08      	cmp	r2, #8
 80024fc:	d111      	bne.n	8002522 <HAL_RCC_OscConfig+0x10a>
 80024fe:	685b      	ldr	r3, [r3, #4]
 8002500:	025e      	lsls	r6, r3, #9
 8002502:	d40e      	bmi.n	8002522 <HAL_RCC_OscConfig+0x10a>
 8002504:	4a60      	ldr	r2, [pc, #384]	; (8002688 <HAL_RCC_OscConfig+0x270>)
 8002506:	6813      	ldr	r3, [r2, #0]
 8002508:	079d      	lsls	r5, r3, #30
 800250a:	d502      	bpl.n	8002512 <HAL_RCC_OscConfig+0xfa>
 800250c:	68e3      	ldr	r3, [r4, #12]
 800250e:	2b01      	cmp	r3, #1
 8002510:	d1af      	bne.n	8002472 <HAL_RCC_OscConfig+0x5a>
 8002512:	6813      	ldr	r3, [r2, #0]
 8002514:	6921      	ldr	r1, [r4, #16]
 8002516:	f023 03f8 	bic.w	r3, r3, #248	; 0xf8
 800251a:	ea43 03c1 	orr.w	r3, r3, r1, lsl #3
 800251e:	6013      	str	r3, [r2, #0]
 8002520:	e784      	b.n	800242c <HAL_RCC_OscConfig+0x14>
 8002522:	68e2      	ldr	r2, [r4, #12]
 8002524:	4b59      	ldr	r3, [pc, #356]	; (800268c <HAL_RCC_OscConfig+0x274>)
 8002526:	b1b2      	cbz	r2, 8002556 <HAL_RCC_OscConfig+0x13e>
 8002528:	2201      	movs	r2, #1
 800252a:	601a      	str	r2, [r3, #0]
 800252c:	f7fe fca8 	bl	8000e80 <HAL_GetTick>
 8002530:	4d55      	ldr	r5, [pc, #340]	; (8002688 <HAL_RCC_OscConfig+0x270>)
 8002532:	4606      	mov	r6, r0
 8002534:	682b      	ldr	r3, [r5, #0]
 8002536:	0798      	lsls	r0, r3, #30
 8002538:	d507      	bpl.n	800254a <HAL_RCC_OscConfig+0x132>
 800253a:	682b      	ldr	r3, [r5, #0]
 800253c:	6922      	ldr	r2, [r4, #16]
 800253e:	f023 03f8 	bic.w	r3, r3, #248	; 0xf8
 8002542:	ea43 03c2 	orr.w	r3, r3, r2, lsl #3
 8002546:	602b      	str	r3, [r5, #0]
 8002548:	e770      	b.n	800242c <HAL_RCC_OscConfig+0x14>
 800254a:	f7fe fc99 	bl	8000e80 <HAL_GetTick>
 800254e:	1b80      	subs	r0, r0, r6
 8002550:	2802      	cmp	r0, #2
 8002552:	d9ef      	bls.n	8002534 <HAL_RCC_OscConfig+0x11c>
 8002554:	e7a3      	b.n	800249e <HAL_RCC_OscConfig+0x86>
 8002556:	601a      	str	r2, [r3, #0]
 8002558:	f7fe fc92 	bl	8000e80 <HAL_GetTick>
 800255c:	4e4a      	ldr	r6, [pc, #296]	; (8002688 <HAL_RCC_OscConfig+0x270>)
 800255e:	4605      	mov	r5, r0
 8002560:	6833      	ldr	r3, [r6, #0]
 8002562:	0799      	lsls	r1, r3, #30
 8002564:	f57f af62 	bpl.w	800242c <HAL_RCC_OscConfig+0x14>
 8002568:	f7fe fc8a 	bl	8000e80 <HAL_GetTick>
 800256c:	1b40      	subs	r0, r0, r5
 800256e:	2802      	cmp	r0, #2
 8002570:	d9f6      	bls.n	8002560 <HAL_RCC_OscConfig+0x148>
 8002572:	e794      	b.n	800249e <HAL_RCC_OscConfig+0x86>
 8002574:	6962      	ldr	r2, [r4, #20]
 8002576:	4b45      	ldr	r3, [pc, #276]	; (800268c <HAL_RCC_OscConfig+0x274>)
 8002578:	b182      	cbz	r2, 800259c <HAL_RCC_OscConfig+0x184>
 800257a:	2201      	movs	r2, #1
 800257c:	f8c3 2e80 	str.w	r2, [r3, #3712]	; 0xe80
 8002580:	f7fe fc7e 	bl	8000e80 <HAL_GetTick>
 8002584:	4e40      	ldr	r6, [pc, #256]	; (8002688 <HAL_RCC_OscConfig+0x270>)
 8002586:	4605      	mov	r5, r0
 8002588:	6f73      	ldr	r3, [r6, #116]	; 0x74
 800258a:	079f      	lsls	r7, r3, #30
 800258c:	f53f af52 	bmi.w	8002434 <HAL_RCC_OscConfig+0x1c>
 8002590:	f7fe fc76 	bl	8000e80 <HAL_GetTick>
 8002594:	1b40      	subs	r0, r0, r5
 8002596:	2802      	cmp	r0, #2
 8002598:	d9f6      	bls.n	8002588 <HAL_RCC_OscConfig+0x170>
 800259a:	e780      	b.n	800249e <HAL_RCC_OscConfig+0x86>
 800259c:	f8c3 2e80 	str.w	r2, [r3, #3712]	; 0xe80
 80025a0:	f7fe fc6e 	bl	8000e80 <HAL_GetTick>
 80025a4:	4e38      	ldr	r6, [pc, #224]	; (8002688 <HAL_RCC_OscConfig+0x270>)
 80025a6:	4605      	mov	r5, r0
 80025a8:	6f73      	ldr	r3, [r6, #116]	; 0x74
 80025aa:	0798      	lsls	r0, r3, #30
 80025ac:	f57f af42 	bpl.w	8002434 <HAL_RCC_OscConfig+0x1c>
 80025b0:	f7fe fc66 	bl	8000e80 <HAL_GetTick>
 80025b4:	1b40      	subs	r0, r0, r5
 80025b6:	2802      	cmp	r0, #2
 80025b8:	d9f6      	bls.n	80025a8 <HAL_RCC_OscConfig+0x190>
 80025ba:	e770      	b.n	800249e <HAL_RCC_OscConfig+0x86>
 80025bc:	4b32      	ldr	r3, [pc, #200]	; (8002688 <HAL_RCC_OscConfig+0x270>)
 80025be:	6c1a      	ldr	r2, [r3, #64]	; 0x40
 80025c0:	f012 5280 	ands.w	r2, r2, #268435456	; 0x10000000
 80025c4:	d128      	bne.n	8002618 <HAL_RCC_OscConfig+0x200>
 80025c6:	9201      	str	r2, [sp, #4]
 80025c8:	6c1a      	ldr	r2, [r3, #64]	; 0x40
 80025ca:	f042 5280 	orr.w	r2, r2, #268435456	; 0x10000000
 80025ce:	641a      	str	r2, [r3, #64]	; 0x40
 80025d0:	6c1b      	ldr	r3, [r3, #64]	; 0x40
 80025d2:	f003 5380 	and.w	r3, r3, #268435456	; 0x10000000
 80025d6:	9301      	str	r3, [sp, #4]
 80025d8:	9b01      	ldr	r3, [sp, #4]
 80025da:	2701      	movs	r7, #1
 80025dc:	4d2c      	ldr	r5, [pc, #176]	; (8002690 <HAL_RCC_OscConfig+0x278>)
 80025de:	682b      	ldr	r3, [r5, #0]
 80025e0:	05d9      	lsls	r1, r3, #23
 80025e2:	d51b      	bpl.n	800261c <HAL_RCC_OscConfig+0x204>
 80025e4:	68a3      	ldr	r3, [r4, #8]
 80025e6:	4d28      	ldr	r5, [pc, #160]	; (8002688 <HAL_RCC_OscConfig+0x270>)
 80025e8:	2b01      	cmp	r3, #1
 80025ea:	d127      	bne.n	800263c <HAL_RCC_OscConfig+0x224>
 80025ec:	6f2b      	ldr	r3, [r5, #112]	; 0x70
 80025ee:	f043 0301 	orr.w	r3, r3, #1
 80025f2:	672b      	str	r3, [r5, #112]	; 0x70
 80025f4:	f7fe fc44 	bl	8000e80 <HAL_GetTick>
 80025f8:	4e23      	ldr	r6, [pc, #140]	; (8002688 <HAL_RCC_OscConfig+0x270>)
 80025fa:	4605      	mov	r5, r0
 80025fc:	f241 3888 	movw	r8, #5000	; 0x1388
 8002600:	6f33      	ldr	r3, [r6, #112]	; 0x70
 8002602:	079b      	lsls	r3, r3, #30
 8002604:	d539      	bpl.n	800267a <HAL_RCC_OscConfig+0x262>
 8002606:	2f00      	cmp	r7, #0
 8002608:	f43f af18 	beq.w	800243c <HAL_RCC_OscConfig+0x24>
 800260c:	4a1e      	ldr	r2, [pc, #120]	; (8002688 <HAL_RCC_OscConfig+0x270>)
 800260e:	6c13      	ldr	r3, [r2, #64]	; 0x40
 8002610:	f023 5380 	bic.w	r3, r3, #268435456	; 0x10000000
 8002614:	6413      	str	r3, [r2, #64]	; 0x40
 8002616:	e711      	b.n	800243c <HAL_RCC_OscConfig+0x24>
 8002618:	2700      	movs	r7, #0
 800261a:	e7df      	b.n	80025dc <HAL_RCC_OscConfig+0x1c4>
 800261c:	682b      	ldr	r3, [r5, #0]
 800261e:	f443 7380 	orr.w	r3, r3, #256	; 0x100
 8002622:	602b      	str	r3, [r5, #0]
 8002624:	f7fe fc2c 	bl	8000e80 <HAL_GetTick>
 8002628:	4606      	mov	r6, r0
 800262a:	682b      	ldr	r3, [r5, #0]
 800262c:	05da      	lsls	r2, r3, #23
 800262e:	d4d9      	bmi.n	80025e4 <HAL_RCC_OscConfig+0x1cc>
 8002630:	f7fe fc26 	bl	8000e80 <HAL_GetTick>
 8002634:	1b80      	subs	r0, r0, r6
 8002636:	2802      	cmp	r0, #2
 8002638:	d9f7      	bls.n	800262a <HAL_RCC_OscConfig+0x212>
 800263a:	e730      	b.n	800249e <HAL_RCC_OscConfig+0x86>
 800263c:	2b05      	cmp	r3, #5
 800263e:	d104      	bne.n	800264a <HAL_RCC_OscConfig+0x232>
 8002640:	6f2b      	ldr	r3, [r5, #112]	; 0x70
 8002642:	f043 0304 	orr.w	r3, r3, #4
 8002646:	672b      	str	r3, [r5, #112]	; 0x70
 8002648:	e7d0      	b.n	80025ec <HAL_RCC_OscConfig+0x1d4>
 800264a:	6f2a      	ldr	r2, [r5, #112]	; 0x70
 800264c:	f022 0201 	bic.w	r2, r2, #1
 8002650:	672a      	str	r2, [r5, #112]	; 0x70
 8002652:	6f2a      	ldr	r2, [r5, #112]	; 0x70
 8002654:	f022 0204 	bic.w	r2, r2, #4
 8002658:	672a      	str	r2, [r5, #112]	; 0x70
 800265a:	2b00      	cmp	r3, #0
 800265c:	d1ca      	bne.n	80025f4 <HAL_RCC_OscConfig+0x1dc>
 800265e:	f7fe fc0f 	bl	8000e80 <HAL_GetTick>
 8002662:	f241 3888 	movw	r8, #5000	; 0x1388
 8002666:	4606      	mov	r6, r0
 8002668:	6f2b      	ldr	r3, [r5, #112]	; 0x70
 800266a:	0798      	lsls	r0, r3, #30
 800266c:	d5cb      	bpl.n	8002606 <HAL_RCC_OscConfig+0x1ee>
 800266e:	f7fe fc07 	bl	8000e80 <HAL_GetTick>
 8002672:	1b80      	subs	r0, r0, r6
 8002674:	4540      	cmp	r0, r8
 8002676:	d9f7      	bls.n	8002668 <HAL_RCC_OscConfig+0x250>
 8002678:	e711      	b.n	800249e <HAL_RCC_OscConfig+0x86>
 800267a:	f7fe fc01 	bl	8000e80 <HAL_GetTick>
 800267e:	1b40      	subs	r0, r0, r5
 8002680:	4540      	cmp	r0, r8
 8002682:	d9bd      	bls.n	8002600 <HAL_RCC_OscConfig+0x1e8>
 8002684:	e70b      	b.n	800249e <HAL_RCC_OscConfig+0x86>
 8002686:	bf00      	nop
 8002688:	40023800 	.word	0x40023800
 800268c:	42470000 	.word	0x42470000
 8002690:	40007000 	.word	0x40007000
 8002694:	4d36      	ldr	r5, [pc, #216]	; (8002770 <HAL_RCC_OscConfig+0x358>)
 8002696:	68ab      	ldr	r3, [r5, #8]
 8002698:	f003 030c 	and.w	r3, r3, #12
 800269c:	2b08      	cmp	r3, #8
 800269e:	d03d      	beq.n	800271c <HAL_RCC_OscConfig+0x304>
 80026a0:	4b34      	ldr	r3, [pc, #208]	; (8002774 <HAL_RCC_OscConfig+0x35c>)
 80026a2:	2200      	movs	r2, #0
 80026a4:	2802      	cmp	r0, #2
 80026a6:	661a      	str	r2, [r3, #96]	; 0x60
 80026a8:	d12b      	bne.n	8002702 <HAL_RCC_OscConfig+0x2ea>
 80026aa:	f7fe fbe9 	bl	8000e80 <HAL_GetTick>
 80026ae:	4606      	mov	r6, r0
 80026b0:	682b      	ldr	r3, [r5, #0]
 80026b2:	0199      	lsls	r1, r3, #6
 80026b4:	d41f      	bmi.n	80026f6 <HAL_RCC_OscConfig+0x2de>
 80026b6:	e9d4 3207 	ldrd	r3, r2, [r4, #28]
 80026ba:	4313      	orrs	r3, r2
 80026bc:	6a62      	ldr	r2, [r4, #36]	; 0x24
 80026be:	ea43 1382 	orr.w	r3, r3, r2, lsl #6
 80026c2:	6ae2      	ldr	r2, [r4, #44]	; 0x2c
 80026c4:	ea43 6302 	orr.w	r3, r3, r2, lsl #24
 80026c8:	6aa2      	ldr	r2, [r4, #40]	; 0x28
 80026ca:	0852      	lsrs	r2, r2, #1
 80026cc:	3a01      	subs	r2, #1
 80026ce:	ea43 4302 	orr.w	r3, r3, r2, lsl #16
 80026d2:	606b      	str	r3, [r5, #4]
 80026d4:	4b27      	ldr	r3, [pc, #156]	; (8002774 <HAL_RCC_OscConfig+0x35c>)
 80026d6:	4d26      	ldr	r5, [pc, #152]	; (8002770 <HAL_RCC_OscConfig+0x358>)
 80026d8:	2201      	movs	r2, #1
 80026da:	661a      	str	r2, [r3, #96]	; 0x60
 80026dc:	f7fe fbd0 	bl	8000e80 <HAL_GetTick>
 80026e0:	4604      	mov	r4, r0
 80026e2:	682b      	ldr	r3, [r5, #0]
 80026e4:	019a      	lsls	r2, r3, #6
 80026e6:	f53f aead 	bmi.w	8002444 <HAL_RCC_OscConfig+0x2c>
 80026ea:	f7fe fbc9 	bl	8000e80 <HAL_GetTick>
 80026ee:	1b00      	subs	r0, r0, r4
 80026f0:	2802      	cmp	r0, #2
 80026f2:	d9f6      	bls.n	80026e2 <HAL_RCC_OscConfig+0x2ca>
 80026f4:	e6d3      	b.n	800249e <HAL_RCC_OscConfig+0x86>
 80026f6:	f7fe fbc3 	bl	8000e80 <HAL_GetTick>
 80026fa:	1b80      	subs	r0, r0, r6
 80026fc:	2802      	cmp	r0, #2
 80026fe:	d9d7      	bls.n	80026b0 <HAL_RCC_OscConfig+0x298>
 8002700:	e6cd      	b.n	800249e <HAL_RCC_OscConfig+0x86>
 8002702:	f7fe fbbd 	bl	8000e80 <HAL_GetTick>
 8002706:	4604      	mov	r4, r0
 8002708:	682b      	ldr	r3, [r5, #0]
 800270a:	019b      	lsls	r3, r3, #6
 800270c:	f57f ae9a 	bpl.w	8002444 <HAL_RCC_OscConfig+0x2c>
 8002710:	f7fe fbb6 	bl	8000e80 <HAL_GetTick>
 8002714:	1b00      	subs	r0, r0, r4
 8002716:	2802      	cmp	r0, #2
 8002718:	d9f6      	bls.n	8002708 <HAL_RCC_OscConfig+0x2f0>
 800271a:	e6c0      	b.n	800249e <HAL_RCC_OscConfig+0x86>
 800271c:	2801      	cmp	r0, #1
 800271e:	f43f aebf 	beq.w	80024a0 <HAL_RCC_OscConfig+0x88>
 8002722:	686b      	ldr	r3, [r5, #4]
 8002724:	69e2      	ldr	r2, [r4, #28]
 8002726:	f403 0180 	and.w	r1, r3, #4194304	; 0x400000
 800272a:	4291      	cmp	r1, r2
 800272c:	f47f aea1 	bne.w	8002472 <HAL_RCC_OscConfig+0x5a>
 8002730:	6a21      	ldr	r1, [r4, #32]
 8002732:	f003 023f 	and.w	r2, r3, #63	; 0x3f
 8002736:	428a      	cmp	r2, r1
 8002738:	f47f ae9b 	bne.w	8002472 <HAL_RCC_OscConfig+0x5a>
 800273c:	6a61      	ldr	r1, [r4, #36]	; 0x24
 800273e:	f647 72c0 	movw	r2, #32704	; 0x7fc0
 8002742:	401a      	ands	r2, r3
 8002744:	ebb2 1f81 	cmp.w	r2, r1, lsl #6
 8002748:	f47f ae93 	bne.w	8002472 <HAL_RCC_OscConfig+0x5a>
 800274c:	6aa2      	ldr	r2, [r4, #40]	; 0x28
 800274e:	0852      	lsrs	r2, r2, #1
 8002750:	f403 3140 	and.w	r1, r3, #196608	; 0x30000
 8002754:	3a01      	subs	r2, #1
 8002756:	ebb1 4f02 	cmp.w	r1, r2, lsl #16
 800275a:	f47f ae8a 	bne.w	8002472 <HAL_RCC_OscConfig+0x5a>
 800275e:	6ae2      	ldr	r2, [r4, #44]	; 0x2c
 8002760:	f003 6370 	and.w	r3, r3, #251658240	; 0xf000000
 8002764:	ebb3 6f02 	cmp.w	r3, r2, lsl #24
 8002768:	f43f ae6c 	beq.w	8002444 <HAL_RCC_OscConfig+0x2c>
 800276c:	e681      	b.n	8002472 <HAL_RCC_OscConfig+0x5a>
 800276e:	bf00      	nop
 8002770:	40023800 	.word	0x40023800
 8002774:	42470000 	.word	0x42470000

08002778 <HAL_RCC_GetSysClockFreq>:
 8002778:	4913      	ldr	r1, [pc, #76]	; (80027c8 <HAL_RCC_GetSysClockFreq+0x50>)
 800277a:	b508      	push	{r3, lr}
 800277c:	688b      	ldr	r3, [r1, #8]
 800277e:	f003 030c 	and.w	r3, r3, #12
 8002782:	2b04      	cmp	r3, #4
 8002784:	d01c      	beq.n	80027c0 <HAL_RCC_GetSysClockFreq+0x48>
 8002786:	2b08      	cmp	r3, #8
 8002788:	d11c      	bne.n	80027c4 <HAL_RCC_GetSysClockFreq+0x4c>
 800278a:	684a      	ldr	r2, [r1, #4]
 800278c:	684b      	ldr	r3, [r1, #4]
 800278e:	6849      	ldr	r1, [r1, #4]
 8002790:	f413 0380 	ands.w	r3, r3, #4194304	; 0x400000
 8002794:	bf14      	ite	ne
 8002796:	480d      	ldrne	r0, [pc, #52]	; (80027cc <HAL_RCC_GetSysClockFreq+0x54>)
 8002798:	480d      	ldreq	r0, [pc, #52]	; (80027d0 <HAL_RCC_GetSysClockFreq+0x58>)
 800279a:	f3c1 1188 	ubfx	r1, r1, #6, #9
 800279e:	bf18      	it	ne
 80027a0:	2300      	movne	r3, #0
 80027a2:	f002 023f 	and.w	r2, r2, #63	; 0x3f
 80027a6:	fba1 0100 	umull	r0, r1, r1, r0
 80027aa:	f7fd fd69 	bl	8000280 <__aeabi_uldivmod>
 80027ae:	4b06      	ldr	r3, [pc, #24]	; (80027c8 <HAL_RCC_GetSysClockFreq+0x50>)
 80027b0:	685b      	ldr	r3, [r3, #4]
 80027b2:	f3c3 4301 	ubfx	r3, r3, #16, #2
 80027b6:	3301      	adds	r3, #1
 80027b8:	005b      	lsls	r3, r3, #1
 80027ba:	fbb0 f0f3 	udiv	r0, r0, r3
 80027be:	bd08      	pop	{r3, pc}
 80027c0:	4802      	ldr	r0, [pc, #8]	; (80027cc <HAL_RCC_GetSysClockFreq+0x54>)
 80027c2:	e7fc      	b.n	80027be <HAL_RCC_GetSysClockFreq+0x46>
 80027c4:	4802      	ldr	r0, [pc, #8]	; (80027d0 <HAL_RCC_GetSysClockFreq+0x58>)
 80027c6:	e7fa      	b.n	80027be <HAL_RCC_GetSysClockFreq+0x46>
 80027c8:	40023800 	.word	0x40023800
 80027cc:	017d7840 	.word	0x017d7840
 80027d0:	00f42400 	.word	0x00f42400

080027d4 <HAL_RCC_ClockConfig>:
 80027d4:	e92d 41f0 	stmdb	sp!, {r4, r5, r6, r7, r8, lr}
 80027d8:	460d      	mov	r5, r1
 80027da:	4604      	mov	r4, r0
 80027dc:	b910      	cbnz	r0, 80027e4 <HAL_RCC_ClockConfig+0x10>
 80027de:	2001      	movs	r0, #1
 80027e0:	e8bd 81f0 	ldmia.w	sp!, {r4, r5, r6, r7, r8, pc}
 80027e4:	4b44      	ldr	r3, [pc, #272]	; (80028f8 <HAL_RCC_ClockConfig+0x124>)
 80027e6:	681a      	ldr	r2, [r3, #0]
 80027e8:	f002 0207 	and.w	r2, r2, #7
 80027ec:	428a      	cmp	r2, r1
 80027ee:	d328      	bcc.n	8002842 <HAL_RCC_ClockConfig+0x6e>
 80027f0:	6822      	ldr	r2, [r4, #0]
 80027f2:	0797      	lsls	r7, r2, #30
 80027f4:	d42d      	bmi.n	8002852 <HAL_RCC_ClockConfig+0x7e>
 80027f6:	07d0      	lsls	r0, r2, #31
 80027f8:	d441      	bmi.n	800287e <HAL_RCC_ClockConfig+0xaa>
 80027fa:	4b3f      	ldr	r3, [pc, #252]	; (80028f8 <HAL_RCC_ClockConfig+0x124>)
 80027fc:	681a      	ldr	r2, [r3, #0]
 80027fe:	f002 0207 	and.w	r2, r2, #7
 8002802:	42aa      	cmp	r2, r5
 8002804:	d866      	bhi.n	80028d4 <HAL_RCC_ClockConfig+0x100>
 8002806:	6822      	ldr	r2, [r4, #0]
 8002808:	0751      	lsls	r1, r2, #29
 800280a:	d46c      	bmi.n	80028e6 <HAL_RCC_ClockConfig+0x112>
 800280c:	0713      	lsls	r3, r2, #28
 800280e:	d507      	bpl.n	8002820 <HAL_RCC_ClockConfig+0x4c>
 8002810:	4a3a      	ldr	r2, [pc, #232]	; (80028fc <HAL_RCC_ClockConfig+0x128>)
 8002812:	6921      	ldr	r1, [r4, #16]
 8002814:	6893      	ldr	r3, [r2, #8]
 8002816:	f423 4360 	bic.w	r3, r3, #57344	; 0xe000
 800281a:	ea43 03c1 	orr.w	r3, r3, r1, lsl #3
 800281e:	6093      	str	r3, [r2, #8]
 8002820:	f7ff ffaa 	bl	8002778 <HAL_RCC_GetSysClockFreq>
 8002824:	4b35      	ldr	r3, [pc, #212]	; (80028fc <HAL_RCC_ClockConfig+0x128>)
 8002826:	4a36      	ldr	r2, [pc, #216]	; (8002900 <HAL_RCC_ClockConfig+0x12c>)
 8002828:	689b      	ldr	r3, [r3, #8]
 800282a:	f3c3 1303 	ubfx	r3, r3, #4, #4
 800282e:	5cd3      	ldrb	r3, [r2, r3]
 8002830:	40d8      	lsrs	r0, r3
 8002832:	4b34      	ldr	r3, [pc, #208]	; (8002904 <HAL_RCC_ClockConfig+0x130>)
 8002834:	6018      	str	r0, [r3, #0]
 8002836:	4b34      	ldr	r3, [pc, #208]	; (8002908 <HAL_RCC_ClockConfig+0x134>)
 8002838:	6818      	ldr	r0, [r3, #0]
 800283a:	f7fe fad7 	bl	8000dec <HAL_InitTick>
 800283e:	2000      	movs	r0, #0
 8002840:	e7ce      	b.n	80027e0 <HAL_RCC_ClockConfig+0xc>
 8002842:	b2ca      	uxtb	r2, r1
 8002844:	701a      	strb	r2, [r3, #0]
 8002846:	681b      	ldr	r3, [r3, #0]
 8002848:	f003 0307 	and.w	r3, r3, #7
 800284c:	428b      	cmp	r3, r1
 800284e:	d1c6      	bne.n	80027de <HAL_RCC_ClockConfig+0xa>
 8002850:	e7ce      	b.n	80027f0 <HAL_RCC_ClockConfig+0x1c>
 8002852:	4b2a      	ldr	r3, [pc, #168]	; (80028fc <HAL_RCC_ClockConfig+0x128>)
 8002854:	f012 0f04 	tst.w	r2, #4
 8002858:	bf1e      	ittt	ne
 800285a:	6899      	ldrne	r1, [r3, #8]
 800285c:	f441 51e0 	orrne.w	r1, r1, #7168	; 0x1c00
 8002860:	6099      	strne	r1, [r3, #8]
 8002862:	0716      	lsls	r6, r2, #28
 8002864:	bf42      	ittt	mi
 8002866:	6899      	ldrmi	r1, [r3, #8]
 8002868:	f441 4160 	orrmi.w	r1, r1, #57344	; 0xe000
 800286c:	6099      	strmi	r1, [r3, #8]
 800286e:	4923      	ldr	r1, [pc, #140]	; (80028fc <HAL_RCC_ClockConfig+0x128>)
 8002870:	68a0      	ldr	r0, [r4, #8]
 8002872:	688b      	ldr	r3, [r1, #8]
 8002874:	f023 03f0 	bic.w	r3, r3, #240	; 0xf0
 8002878:	4303      	orrs	r3, r0
 800287a:	608b      	str	r3, [r1, #8]
 800287c:	e7bb      	b.n	80027f6 <HAL_RCC_ClockConfig+0x22>
 800287e:	6862      	ldr	r2, [r4, #4]
 8002880:	4b1e      	ldr	r3, [pc, #120]	; (80028fc <HAL_RCC_ClockConfig+0x128>)
 8002882:	2a01      	cmp	r2, #1
 8002884:	d11c      	bne.n	80028c0 <HAL_RCC_ClockConfig+0xec>
 8002886:	681b      	ldr	r3, [r3, #0]
 8002888:	f413 3f00 	tst.w	r3, #131072	; 0x20000
 800288c:	d0a7      	beq.n	80027de <HAL_RCC_ClockConfig+0xa>
 800288e:	4e1b      	ldr	r6, [pc, #108]	; (80028fc <HAL_RCC_ClockConfig+0x128>)
 8002890:	68b3      	ldr	r3, [r6, #8]
 8002892:	f023 0303 	bic.w	r3, r3, #3
 8002896:	4313      	orrs	r3, r2
 8002898:	60b3      	str	r3, [r6, #8]
 800289a:	f7fe faf1 	bl	8000e80 <HAL_GetTick>
 800289e:	f241 3888 	movw	r8, #5000	; 0x1388
 80028a2:	4607      	mov	r7, r0
 80028a4:	68b3      	ldr	r3, [r6, #8]
 80028a6:	6862      	ldr	r2, [r4, #4]
 80028a8:	f003 030c 	and.w	r3, r3, #12
 80028ac:	ebb3 0f82 	cmp.w	r3, r2, lsl #2
 80028b0:	d0a3      	beq.n	80027fa <HAL_RCC_ClockConfig+0x26>
 80028b2:	f7fe fae5 	bl	8000e80 <HAL_GetTick>
 80028b6:	1bc0      	subs	r0, r0, r7
 80028b8:	4540      	cmp	r0, r8
 80028ba:	d9f3      	bls.n	80028a4 <HAL_RCC_ClockConfig+0xd0>
 80028bc:	2003      	movs	r0, #3
 80028be:	e78f      	b.n	80027e0 <HAL_RCC_ClockConfig+0xc>
 80028c0:	1e91      	subs	r1, r2, #2
 80028c2:	2901      	cmp	r1, #1
 80028c4:	681b      	ldr	r3, [r3, #0]
 80028c6:	d802      	bhi.n	80028ce <HAL_RCC_ClockConfig+0xfa>
 80028c8:	f013 7f00 	tst.w	r3, #33554432	; 0x2000000
 80028cc:	e7de      	b.n	800288c <HAL_RCC_ClockConfig+0xb8>
 80028ce:	f013 0f02 	tst.w	r3, #2
 80028d2:	e7db      	b.n	800288c <HAL_RCC_ClockConfig+0xb8>
 80028d4:	b2ea      	uxtb	r2, r5
 80028d6:	701a      	strb	r2, [r3, #0]
 80028d8:	681b      	ldr	r3, [r3, #0]
 80028da:	f003 0307 	and.w	r3, r3, #7
 80028de:	42ab      	cmp	r3, r5
 80028e0:	f47f af7d 	bne.w	80027de <HAL_RCC_ClockConfig+0xa>
 80028e4:	e78f      	b.n	8002806 <HAL_RCC_ClockConfig+0x32>
 80028e6:	4905      	ldr	r1, [pc, #20]	; (80028fc <HAL_RCC_ClockConfig+0x128>)
 80028e8:	68e0      	ldr	r0, [r4, #12]
 80028ea:	688b      	ldr	r3, [r1, #8]
 80028ec:	f423 53e0 	bic.w	r3, r3, #7168	; 0x1c00
 80028f0:	4303      	orrs	r3, r0
 80028f2:	608b      	str	r3, [r1, #8]
 80028f4:	e78a      	b.n	800280c <HAL_RCC_ClockConfig+0x38>
 80028f6:	bf00      	nop
 80028f8:	40023c00 	.word	0x40023c00
 80028fc:	40023800 	.word	0x40023800
 8002900:	08006ba0 	.word	0x08006ba0
 8002904:	20000038 	.word	0x20000038
 8002908:	20000040 	.word	0x20000040

0800290c <HAL_RCC_GetHCLKFreq>:
 800290c:	4b01      	ldr	r3, [pc, #4]	; (8002914 <HAL_RCC_GetHCLKFreq+0x8>)
 800290e:	6818      	ldr	r0, [r3, #0]
 8002910:	4770      	bx	lr
 8002912:	bf00      	nop
 8002914:	20000038 	.word	0x20000038

08002918 <HAL_RCC_GetPCLK1Freq>:
 8002918:	4b04      	ldr	r3, [pc, #16]	; (800292c <HAL_RCC_GetPCLK1Freq+0x14>)
 800291a:	4a05      	ldr	r2, [pc, #20]	; (8002930 <HAL_RCC_GetPCLK1Freq+0x18>)
 800291c:	689b      	ldr	r3, [r3, #8]
 800291e:	f3c3 2382 	ubfx	r3, r3, #10, #3
 8002922:	5cd3      	ldrb	r3, [r2, r3]
 8002924:	4a03      	ldr	r2, [pc, #12]	; (8002934 <HAL_RCC_GetPCLK1Freq+0x1c>)
 8002926:	6810      	ldr	r0, [r2, #0]
 8002928:	40d8      	lsrs	r0, r3
 800292a:	4770      	bx	lr
 800292c:	40023800 	.word	0x40023800
 8002930:	08006bb0 	.word	0x08006bb0
 8002934:	20000038 	.word	0x20000038

08002938 <USB_CoreReset>:
 8002938:	b082      	sub	sp, #8
 800293a:	2300      	movs	r3, #0
 800293c:	4a10      	ldr	r2, [pc, #64]	; (8002980 <USB_CoreReset+0x48>)
 800293e:	9301      	str	r3, [sp, #4]
 8002940:	9b01      	ldr	r3, [sp, #4]
 8002942:	3301      	adds	r3, #1
 8002944:	9301      	str	r3, [sp, #4]
 8002946:	9b01      	ldr	r3, [sp, #4]
 8002948:	4293      	cmp	r3, r2
 800294a:	d816      	bhi.n	800297a <USB_CoreReset+0x42>
 800294c:	6903      	ldr	r3, [r0, #16]
 800294e:	2b00      	cmp	r3, #0
 8002950:	daf6      	bge.n	8002940 <USB_CoreReset+0x8>
 8002952:	2300      	movs	r3, #0
 8002954:	9301      	str	r3, [sp, #4]
 8002956:	6903      	ldr	r3, [r0, #16]
 8002958:	4a09      	ldr	r2, [pc, #36]	; (8002980 <USB_CoreReset+0x48>)
 800295a:	f043 0301 	orr.w	r3, r3, #1
 800295e:	6103      	str	r3, [r0, #16]
 8002960:	9b01      	ldr	r3, [sp, #4]
 8002962:	3301      	adds	r3, #1
 8002964:	9301      	str	r3, [sp, #4]
 8002966:	9b01      	ldr	r3, [sp, #4]
 8002968:	4293      	cmp	r3, r2
 800296a:	d806      	bhi.n	800297a <USB_CoreReset+0x42>
 800296c:	6903      	ldr	r3, [r0, #16]
 800296e:	f013 0301 	ands.w	r3, r3, #1
 8002972:	d1f5      	bne.n	8002960 <USB_CoreReset+0x28>
 8002974:	4618      	mov	r0, r3
 8002976:	b002      	add	sp, #8
 8002978:	4770      	bx	lr
 800297a:	2003      	movs	r0, #3
 800297c:	e7fb      	b.n	8002976 <USB_CoreReset+0x3e>
 800297e:	bf00      	nop
 8002980:	00030d40 	.word	0x00030d40

08002984 <USB_CoreInit>:
 8002984:	b084      	sub	sp, #16
 8002986:	b538      	push	{r3, r4, r5, lr}
 8002988:	ad05      	add	r5, sp, #20
 800298a:	e885 000e 	stmia.w	r5, {r1, r2, r3}
 800298e:	9b0a      	ldr	r3, [sp, #40]	; 0x28
 8002990:	2b01      	cmp	r3, #1
 8002992:	4604      	mov	r4, r0
 8002994:	d125      	bne.n	80029e2 <USB_CoreInit+0x5e>
 8002996:	6b83      	ldr	r3, [r0, #56]	; 0x38
 8002998:	f423 3380 	bic.w	r3, r3, #65536	; 0x10000
 800299c:	6383      	str	r3, [r0, #56]	; 0x38
 800299e:	68c3      	ldr	r3, [r0, #12]
 80029a0:	f423 0384 	bic.w	r3, r3, #4325376	; 0x420000
 80029a4:	f023 0340 	bic.w	r3, r3, #64	; 0x40
 80029a8:	60c3      	str	r3, [r0, #12]
 80029aa:	68c3      	ldr	r3, [r0, #12]
 80029ac:	f423 1340 	bic.w	r3, r3, #3145728	; 0x300000
 80029b0:	60c3      	str	r3, [r0, #12]
 80029b2:	9b11      	ldr	r3, [sp, #68]	; 0x44
 80029b4:	2b01      	cmp	r3, #1
 80029b6:	bf02      	ittt	eq
 80029b8:	68c3      	ldreq	r3, [r0, #12]
 80029ba:	f443 1380 	orreq.w	r3, r3, #1048576	; 0x100000
 80029be:	60c3      	streq	r3, [r0, #12]
 80029c0:	f7ff ffba 	bl	8002938 <USB_CoreReset>
 80029c4:	9b08      	ldr	r3, [sp, #32]
 80029c6:	2b01      	cmp	r3, #1
 80029c8:	d107      	bne.n	80029da <USB_CoreInit+0x56>
 80029ca:	68a3      	ldr	r3, [r4, #8]
 80029cc:	f043 0306 	orr.w	r3, r3, #6
 80029d0:	60a3      	str	r3, [r4, #8]
 80029d2:	68a3      	ldr	r3, [r4, #8]
 80029d4:	f043 0320 	orr.w	r3, r3, #32
 80029d8:	60a3      	str	r3, [r4, #8]
 80029da:	e8bd 4038 	ldmia.w	sp!, {r3, r4, r5, lr}
 80029de:	b004      	add	sp, #16
 80029e0:	4770      	bx	lr
 80029e2:	68c3      	ldr	r3, [r0, #12]
 80029e4:	f043 0340 	orr.w	r3, r3, #64	; 0x40
 80029e8:	60c3      	str	r3, [r0, #12]
 80029ea:	f7ff ffa5 	bl	8002938 <USB_CoreReset>
 80029ee:	9b0e      	ldr	r3, [sp, #56]	; 0x38
 80029f0:	b923      	cbnz	r3, 80029fc <USB_CoreInit+0x78>
 80029f2:	6ba3      	ldr	r3, [r4, #56]	; 0x38
 80029f4:	f443 3380 	orr.w	r3, r3, #65536	; 0x10000
 80029f8:	63a3      	str	r3, [r4, #56]	; 0x38
 80029fa:	e7e3      	b.n	80029c4 <USB_CoreInit+0x40>
 80029fc:	6ba3      	ldr	r3, [r4, #56]	; 0x38
 80029fe:	f423 3380 	bic.w	r3, r3, #65536	; 0x10000
 8002a02:	e7f9      	b.n	80029f8 <USB_CoreInit+0x74>

08002a04 <USB_SetTurnaroundTime>:
 8002a04:	2a02      	cmp	r2, #2
 8002a06:	d14a      	bne.n	8002a9e <USB_SetTurnaroundTime+0x9a>
 8002a08:	4b27      	ldr	r3, [pc, #156]	; (8002aa8 <USB_SetTurnaroundTime+0xa4>)
 8002a0a:	4a28      	ldr	r2, [pc, #160]	; (8002aac <USB_SetTurnaroundTime+0xa8>)
 8002a0c:	440b      	add	r3, r1
 8002a0e:	4293      	cmp	r3, r2
 8002a10:	d939      	bls.n	8002a86 <USB_SetTurnaroundTime+0x82>
 8002a12:	4b27      	ldr	r3, [pc, #156]	; (8002ab0 <USB_SetTurnaroundTime+0xac>)
 8002a14:	4a27      	ldr	r2, [pc, #156]	; (8002ab4 <USB_SetTurnaroundTime+0xb0>)
 8002a16:	440b      	add	r3, r1
 8002a18:	4293      	cmp	r3, r2
 8002a1a:	d936      	bls.n	8002a8a <USB_SetTurnaroundTime+0x86>
 8002a1c:	4a26      	ldr	r2, [pc, #152]	; (8002ab8 <USB_SetTurnaroundTime+0xb4>)
 8002a1e:	f5a1 0374 	sub.w	r3, r1, #15990784	; 0xf40000
 8002a22:	f5a3 5310 	sub.w	r3, r3, #9216	; 0x2400
 8002a26:	4293      	cmp	r3, r2
 8002a28:	d931      	bls.n	8002a8e <USB_SetTurnaroundTime+0x8a>
 8002a2a:	4a24      	ldr	r2, [pc, #144]	; (8002abc <USB_SetTurnaroundTime+0xb8>)
 8002a2c:	f1a1 7383 	sub.w	r3, r1, #17170432	; 0x1060000
 8002a30:	f5a3 43e7 	sub.w	r3, r3, #29568	; 0x7380
 8002a34:	4293      	cmp	r3, r2
 8002a36:	d32c      	bcc.n	8002a92 <USB_SetTurnaroundTime+0x8e>
 8002a38:	4b21      	ldr	r3, [pc, #132]	; (8002ac0 <USB_SetTurnaroundTime+0xbc>)
 8002a3a:	4a22      	ldr	r2, [pc, #136]	; (8002ac4 <USB_SetTurnaroundTime+0xc0>)
 8002a3c:	440b      	add	r3, r1
 8002a3e:	4293      	cmp	r3, r2
 8002a40:	d929      	bls.n	8002a96 <USB_SetTurnaroundTime+0x92>
 8002a42:	4b21      	ldr	r3, [pc, #132]	; (8002ac8 <USB_SetTurnaroundTime+0xc4>)
 8002a44:	4a21      	ldr	r2, [pc, #132]	; (8002acc <USB_SetTurnaroundTime+0xc8>)
 8002a46:	440b      	add	r3, r1
 8002a48:	4293      	cmp	r3, r2
 8002a4a:	d326      	bcc.n	8002a9a <USB_SetTurnaroundTime+0x96>
 8002a4c:	4b20      	ldr	r3, [pc, #128]	; (8002ad0 <USB_SetTurnaroundTime+0xcc>)
 8002a4e:	4a21      	ldr	r2, [pc, #132]	; (8002ad4 <USB_SetTurnaroundTime+0xd0>)
 8002a50:	440b      	add	r3, r1
 8002a52:	4293      	cmp	r3, r2
 8002a54:	d323      	bcc.n	8002a9e <USB_SetTurnaroundTime+0x9a>
 8002a56:	4a20      	ldr	r2, [pc, #128]	; (8002ad8 <USB_SetTurnaroundTime+0xd4>)
 8002a58:	f1a1 73b7 	sub.w	r3, r1, #23986176	; 0x16e0000
 8002a5c:	f5a3 5358 	sub.w	r3, r3, #13824	; 0x3600
 8002a60:	4293      	cmp	r3, r2
 8002a62:	d31e      	bcc.n	8002aa2 <USB_SetTurnaroundTime+0x9e>
 8002a64:	4b1d      	ldr	r3, [pc, #116]	; (8002adc <USB_SetTurnaroundTime+0xd8>)
 8002a66:	4a1e      	ldr	r2, [pc, #120]	; (8002ae0 <USB_SetTurnaroundTime+0xdc>)
 8002a68:	440b      	add	r3, r1
 8002a6a:	4293      	cmp	r3, r2
 8002a6c:	bf34      	ite	cc
 8002a6e:	2307      	movcc	r3, #7
 8002a70:	2306      	movcs	r3, #6
 8002a72:	68c2      	ldr	r2, [r0, #12]
 8002a74:	f422 5270 	bic.w	r2, r2, #15360	; 0x3c00
 8002a78:	60c2      	str	r2, [r0, #12]
 8002a7a:	68c2      	ldr	r2, [r0, #12]
 8002a7c:	ea42 2383 	orr.w	r3, r2, r3, lsl #10
 8002a80:	60c3      	str	r3, [r0, #12]
 8002a82:	2000      	movs	r0, #0
 8002a84:	4770      	bx	lr
 8002a86:	230f      	movs	r3, #15
 8002a88:	e7f3      	b.n	8002a72 <USB_SetTurnaroundTime+0x6e>
 8002a8a:	230e      	movs	r3, #14
 8002a8c:	e7f1      	b.n	8002a72 <USB_SetTurnaroundTime+0x6e>
 8002a8e:	230d      	movs	r3, #13
 8002a90:	e7ef      	b.n	8002a72 <USB_SetTurnaroundTime+0x6e>
 8002a92:	230c      	movs	r3, #12
 8002a94:	e7ed      	b.n	8002a72 <USB_SetTurnaroundTime+0x6e>
 8002a96:	230b      	movs	r3, #11
 8002a98:	e7eb      	b.n	8002a72 <USB_SetTurnaroundTime+0x6e>
 8002a9a:	230a      	movs	r3, #10
 8002a9c:	e7e9      	b.n	8002a72 <USB_SetTurnaroundTime+0x6e>
 8002a9e:	2309      	movs	r3, #9
 8002aa0:	e7e7      	b.n	8002a72 <USB_SetTurnaroundTime+0x6e>
 8002aa2:	2308      	movs	r3, #8
 8002aa4:	e7e5      	b.n	8002a72 <USB_SetTurnaroundTime+0x6e>
 8002aa6:	bf00      	nop
 8002aa8:	ff275340 	.word	0xff275340
 8002aac:	000c34ff 	.word	0x000c34ff
 8002ab0:	ff1b1e40 	.word	0xff1b1e40
 8002ab4:	000f423f 	.word	0x000f423f
 8002ab8:	00124f7f 	.word	0x00124f7f
 8002abc:	0013d620 	.word	0x0013d620
 8002ac0:	fee5b660 	.word	0xfee5b660
 8002ac4:	0016e35f 	.word	0x0016e35f
 8002ac8:	feced300 	.word	0xfeced300
 8002acc:	001b7740 	.word	0x001b7740
 8002ad0:	feb35bc0 	.word	0xfeb35bc0
 8002ad4:	002191c0 	.word	0x002191c0
 8002ad8:	00387520 	.word	0x00387520
 8002adc:	fe5954e0 	.word	0xfe5954e0
 8002ae0:	00419ce0 	.word	0x00419ce0

08002ae4 <USB_EnableGlobalInt>:
 8002ae4:	6883      	ldr	r3, [r0, #8]
 8002ae6:	f043 0301 	orr.w	r3, r3, #1
 8002aea:	6083      	str	r3, [r0, #8]
 8002aec:	2000      	movs	r0, #0
 8002aee:	4770      	bx	lr

08002af0 <USB_DisableGlobalInt>:
 8002af0:	6883      	ldr	r3, [r0, #8]
 8002af2:	f023 0301 	bic.w	r3, r3, #1
 8002af6:	6083      	str	r3, [r0, #8]
 8002af8:	2000      	movs	r0, #0
 8002afa:	4770      	bx	lr

08002afc <USB_SetCurrentMode>:
 8002afc:	b538      	push	{r3, r4, r5, lr}
 8002afe:	68c3      	ldr	r3, [r0, #12]
 8002b00:	2901      	cmp	r1, #1
 8002b02:	f023 43c0 	bic.w	r3, r3, #1610612736	; 0x60000000
 8002b06:	4605      	mov	r5, r0
 8002b08:	60c3      	str	r3, [r0, #12]
 8002b0a:	d110      	bne.n	8002b2e <USB_SetCurrentMode+0x32>
 8002b0c:	68c3      	ldr	r3, [r0, #12]
 8002b0e:	f043 5300 	orr.w	r3, r3, #536870912	; 0x20000000
 8002b12:	60c3      	str	r3, [r0, #12]
 8002b14:	2400      	movs	r4, #0
 8002b16:	2001      	movs	r0, #1
 8002b18:	f7fe f9b8 	bl	8000e8c <HAL_Delay>
 8002b1c:	696b      	ldr	r3, [r5, #20]
 8002b1e:	07d9      	lsls	r1, r3, #31
 8002b20:	f104 0401 	add.w	r4, r4, #1
 8002b24:	d415      	bmi.n	8002b52 <USB_SetCurrentMode+0x56>
 8002b26:	2c32      	cmp	r4, #50	; 0x32
 8002b28:	d1f5      	bne.n	8002b16 <USB_SetCurrentMode+0x1a>
 8002b2a:	2001      	movs	r0, #1
 8002b2c:	bd38      	pop	{r3, r4, r5, pc}
 8002b2e:	2900      	cmp	r1, #0
 8002b30:	d1fb      	bne.n	8002b2a <USB_SetCurrentMode+0x2e>
 8002b32:	68c3      	ldr	r3, [r0, #12]
 8002b34:	f043 4380 	orr.w	r3, r3, #1073741824	; 0x40000000
 8002b38:	60c3      	str	r3, [r0, #12]
 8002b3a:	460c      	mov	r4, r1
 8002b3c:	2001      	movs	r0, #1
 8002b3e:	f7fe f9a5 	bl	8000e8c <HAL_Delay>
 8002b42:	696b      	ldr	r3, [r5, #20]
 8002b44:	07da      	lsls	r2, r3, #31
 8002b46:	f104 0401 	add.w	r4, r4, #1
 8002b4a:	d502      	bpl.n	8002b52 <USB_SetCurrentMode+0x56>
 8002b4c:	2c32      	cmp	r4, #50	; 0x32
 8002b4e:	d1f5      	bne.n	8002b3c <USB_SetCurrentMode+0x40>
 8002b50:	e7eb      	b.n	8002b2a <USB_SetCurrentMode+0x2e>
 8002b52:	f1a4 0332 	sub.w	r3, r4, #50	; 0x32
 8002b56:	4258      	negs	r0, r3
 8002b58:	4158      	adcs	r0, r3
 8002b5a:	e7e7      	b.n	8002b2c <USB_SetCurrentMode+0x30>

08002b5c <USB_FlushTxFifo>:
 8002b5c:	b082      	sub	sp, #8
 8002b5e:	2300      	movs	r3, #0
 8002b60:	4a10      	ldr	r2, [pc, #64]	; (8002ba4 <USB_FlushTxFifo+0x48>)
 8002b62:	9301      	str	r3, [sp, #4]
 8002b64:	9b01      	ldr	r3, [sp, #4]
 8002b66:	3301      	adds	r3, #1
 8002b68:	9301      	str	r3, [sp, #4]
 8002b6a:	9b01      	ldr	r3, [sp, #4]
 8002b6c:	4293      	cmp	r3, r2
 8002b6e:	d816      	bhi.n	8002b9e <USB_FlushTxFifo+0x42>
 8002b70:	6903      	ldr	r3, [r0, #16]
 8002b72:	2b00      	cmp	r3, #0
 8002b74:	daf6      	bge.n	8002b64 <USB_FlushTxFifo+0x8>
 8002b76:	0189      	lsls	r1, r1, #6
 8002b78:	2300      	movs	r3, #0
 8002b7a:	f041 0120 	orr.w	r1, r1, #32
 8002b7e:	4a09      	ldr	r2, [pc, #36]	; (8002ba4 <USB_FlushTxFifo+0x48>)
 8002b80:	9301      	str	r3, [sp, #4]
 8002b82:	6101      	str	r1, [r0, #16]
 8002b84:	9b01      	ldr	r3, [sp, #4]
 8002b86:	3301      	adds	r3, #1
 8002b88:	9301      	str	r3, [sp, #4]
 8002b8a:	9b01      	ldr	r3, [sp, #4]
 8002b8c:	4293      	cmp	r3, r2
 8002b8e:	d806      	bhi.n	8002b9e <USB_FlushTxFifo+0x42>
 8002b90:	6903      	ldr	r3, [r0, #16]
 8002b92:	f013 0320 	ands.w	r3, r3, #32
 8002b96:	d1f5      	bne.n	8002b84 <USB_FlushTxFifo+0x28>
 8002b98:	4618      	mov	r0, r3
 8002b9a:	b002      	add	sp, #8
 8002b9c:	4770      	bx	lr
 8002b9e:	2003      	movs	r0, #3
 8002ba0:	e7fb      	b.n	8002b9a <USB_FlushTxFifo+0x3e>
 8002ba2:	bf00      	nop
 8002ba4:	00030d40 	.word	0x00030d40

08002ba8 <USB_FlushRxFifo>:
 8002ba8:	b082      	sub	sp, #8
 8002baa:	2300      	movs	r3, #0
 8002bac:	4a0f      	ldr	r2, [pc, #60]	; (8002bec <USB_FlushRxFifo+0x44>)
 8002bae:	9301      	str	r3, [sp, #4]
 8002bb0:	9b01      	ldr	r3, [sp, #4]
 8002bb2:	3301      	adds	r3, #1
 8002bb4:	9301      	str	r3, [sp, #4]
 8002bb6:	9b01      	ldr	r3, [sp, #4]
 8002bb8:	4293      	cmp	r3, r2
 8002bba:	d814      	bhi.n	8002be6 <USB_FlushRxFifo+0x3e>
 8002bbc:	6903      	ldr	r3, [r0, #16]
 8002bbe:	2b00      	cmp	r3, #0
 8002bc0:	daf6      	bge.n	8002bb0 <USB_FlushRxFifo+0x8>
 8002bc2:	2300      	movs	r3, #0
 8002bc4:	9301      	str	r3, [sp, #4]
 8002bc6:	4a09      	ldr	r2, [pc, #36]	; (8002bec <USB_FlushRxFifo+0x44>)
 8002bc8:	2310      	movs	r3, #16
 8002bca:	6103      	str	r3, [r0, #16]
 8002bcc:	9b01      	ldr	r3, [sp, #4]
 8002bce:	3301      	adds	r3, #1
 8002bd0:	9301      	str	r3, [sp, #4]
 8002bd2:	9b01      	ldr	r3, [sp, #4]
 8002bd4:	4293      	cmp	r3, r2
 8002bd6:	d806      	bhi.n	8002be6 <USB_FlushRxFifo+0x3e>
 8002bd8:	6903      	ldr	r3, [r0, #16]
 8002bda:	f013 0310 	ands.w	r3, r3, #16
 8002bde:	d1f5      	bne.n	8002bcc <USB_FlushRxFifo+0x24>
 8002be0:	4618      	mov	r0, r3
 8002be2:	b002      	add	sp, #8
 8002be4:	4770      	bx	lr
 8002be6:	2003      	movs	r0, #3
 8002be8:	e7fb      	b.n	8002be2 <USB_FlushRxFifo+0x3a>
 8002bea:	bf00      	nop
 8002bec:	00030d40 	.word	0x00030d40

08002bf0 <USB_SetDevSpeed>:
 8002bf0:	f8d0 3800 	ldr.w	r3, [r0, #2048]	; 0x800
 8002bf4:	4319      	orrs	r1, r3
 8002bf6:	f8c0 1800 	str.w	r1, [r0, #2048]	; 0x800
 8002bfa:	2000      	movs	r0, #0
 8002bfc:	4770      	bx	lr
	...

08002c00 <USB_DevInit>:
 8002c00:	b084      	sub	sp, #16
 8002c02:	e92d 43f8 	stmdb	sp!, {r3, r4, r5, r6, r7, r8, r9, lr}
 8002c06:	4604      	mov	r4, r0
 8002c08:	a809      	add	r0, sp, #36	; 0x24
 8002c0a:	e880 000e 	stmia.w	r0, {r1, r2, r3}
 8002c0e:	9d13      	ldr	r5, [sp, #76]	; 0x4c
 8002c10:	2300      	movs	r3, #0
 8002c12:	460e      	mov	r6, r1
 8002c14:	4619      	mov	r1, r3
 8002c16:	f103 0240 	add.w	r2, r3, #64	; 0x40
 8002c1a:	eb04 0282 	add.w	r2, r4, r2, lsl #2
 8002c1e:	3301      	adds	r3, #1
 8002c20:	2b0f      	cmp	r3, #15
 8002c22:	6051      	str	r1, [r2, #4]
 8002c24:	d1f7      	bne.n	8002c16 <USB_DevInit+0x16>
 8002c26:	f504 6700 	add.w	r7, r4, #2048	; 0x800
 8002c2a:	2d00      	cmp	r5, #0
 8002c2c:	d16c      	bne.n	8002d08 <USB_DevInit+0x108>
 8002c2e:	687b      	ldr	r3, [r7, #4]
 8002c30:	f043 0302 	orr.w	r3, r3, #2
 8002c34:	607b      	str	r3, [r7, #4]
 8002c36:	6ba3      	ldr	r3, [r4, #56]	; 0x38
 8002c38:	f443 1300 	orr.w	r3, r3, #2097152	; 0x200000
 8002c3c:	63a3      	str	r3, [r4, #56]	; 0x38
 8002c3e:	6ba3      	ldr	r3, [r4, #56]	; 0x38
 8002c40:	f423 2300 	bic.w	r3, r3, #524288	; 0x80000
 8002c44:	63a3      	str	r3, [r4, #56]	; 0x38
 8002c46:	6ba3      	ldr	r3, [r4, #56]	; 0x38
 8002c48:	f423 2380 	bic.w	r3, r3, #262144	; 0x40000
 8002c4c:	63a3      	str	r3, [r4, #56]	; 0x38
 8002c4e:	2300      	movs	r3, #0
 8002c50:	f8c4 3e00 	str.w	r3, [r4, #3584]	; 0xe00
 8002c54:	f8d4 3800 	ldr.w	r3, [r4, #2048]	; 0x800
 8002c58:	f8c4 3800 	str.w	r3, [r4, #2048]	; 0x800
 8002c5c:	9b0e      	ldr	r3, [sp, #56]	; 0x38
 8002c5e:	2b01      	cmp	r3, #1
 8002c60:	d15c      	bne.n	8002d1c <USB_DevInit+0x11c>
 8002c62:	990b      	ldr	r1, [sp, #44]	; 0x2c
 8002c64:	2900      	cmp	r1, #0
 8002c66:	d157      	bne.n	8002d18 <USB_DevInit+0x118>
 8002c68:	4620      	mov	r0, r4
 8002c6a:	f7ff ffc1 	bl	8002bf0 <USB_SetDevSpeed>
 8002c6e:	2110      	movs	r1, #16
 8002c70:	4620      	mov	r0, r4
 8002c72:	f7ff ff73 	bl	8002b5c <USB_FlushTxFifo>
 8002c76:	4601      	mov	r1, r0
 8002c78:	4620      	mov	r0, r4
 8002c7a:	f7ff ff95 	bl	8002ba8 <USB_FlushRxFifo>
 8002c7e:	4308      	orrs	r0, r1
 8002c80:	b2c0      	uxtb	r0, r0
 8002c82:	2300      	movs	r3, #0
 8002c84:	3800      	subs	r0, #0
 8002c86:	613b      	str	r3, [r7, #16]
 8002c88:	bf18      	it	ne
 8002c8a:	2001      	movne	r0, #1
 8002c8c:	617b      	str	r3, [r7, #20]
 8002c8e:	f504 6210 	add.w	r2, r4, #2304	; 0x900
 8002c92:	61fb      	str	r3, [r7, #28]
 8002c94:	4619      	mov	r1, r3
 8002c96:	f04f 4c90 	mov.w	ip, #1207959552	; 0x48000000
 8002c9a:	f04f 6e00 	mov.w	lr, #134217728	; 0x8000000
 8002c9e:	f64f 387f 	movw	r8, #64383	; 0xfb7f
 8002ca2:	42b3      	cmp	r3, r6
 8002ca4:	d13c      	bne.n	8002d20 <USB_DevInit+0x120>
 8002ca6:	2200      	movs	r2, #0
 8002ca8:	f504 6330 	add.w	r3, r4, #2816	; 0xb00
 8002cac:	4611      	mov	r1, r2
 8002cae:	f04f 4c90 	mov.w	ip, #1207959552	; 0x48000000
 8002cb2:	f04f 6e00 	mov.w	lr, #134217728	; 0x8000000
 8002cb6:	f64f 387f 	movw	r8, #64383	; 0xfb7f
 8002cba:	42b2      	cmp	r2, r6
 8002cbc:	d143      	bne.n	8002d46 <USB_DevInit+0x146>
 8002cbe:	693b      	ldr	r3, [r7, #16]
 8002cc0:	f423 7380 	bic.w	r3, r3, #256	; 0x100
 8002cc4:	613b      	str	r3, [r7, #16]
 8002cc6:	2300      	movs	r3, #0
 8002cc8:	61a3      	str	r3, [r4, #24]
 8002cca:	f06f 4380 	mvn.w	r3, #1073741824	; 0x40000000
 8002cce:	6163      	str	r3, [r4, #20]
 8002cd0:	9b0c      	ldr	r3, [sp, #48]	; 0x30
 8002cd2:	b91b      	cbnz	r3, 8002cdc <USB_DevInit+0xdc>
 8002cd4:	69a3      	ldr	r3, [r4, #24]
 8002cd6:	f043 0310 	orr.w	r3, r3, #16
 8002cda:	61a3      	str	r3, [r4, #24]
 8002cdc:	69a2      	ldr	r2, [r4, #24]
 8002cde:	4b23      	ldr	r3, [pc, #140]	; (8002d6c <USB_DevInit+0x16c>)
 8002ce0:	4313      	orrs	r3, r2
 8002ce2:	61a3      	str	r3, [r4, #24]
 8002ce4:	9b0f      	ldr	r3, [sp, #60]	; 0x3c
 8002ce6:	b11b      	cbz	r3, 8002cf0 <USB_DevInit+0xf0>
 8002ce8:	69a3      	ldr	r3, [r4, #24]
 8002cea:	f043 0308 	orr.w	r3, r3, #8
 8002cee:	61a3      	str	r3, [r4, #24]
 8002cf0:	2d01      	cmp	r5, #1
 8002cf2:	bf01      	itttt	eq
 8002cf4:	69a3      	ldreq	r3, [r4, #24]
 8002cf6:	f043 4380 	orreq.w	r3, r3, #1073741824	; 0x40000000
 8002cfa:	f043 0304 	orreq.w	r3, r3, #4
 8002cfe:	61a3      	streq	r3, [r4, #24]
 8002d00:	e8bd 43f8 	ldmia.w	sp!, {r3, r4, r5, r6, r7, r8, r9, lr}
 8002d04:	b004      	add	sp, #16
 8002d06:	4770      	bx	lr
 8002d08:	6ba3      	ldr	r3, [r4, #56]	; 0x38
 8002d0a:	f423 1300 	bic.w	r3, r3, #2097152	; 0x200000
 8002d0e:	63a3      	str	r3, [r4, #56]	; 0x38
 8002d10:	6ba3      	ldr	r3, [r4, #56]	; 0x38
 8002d12:	f443 2300 	orr.w	r3, r3, #524288	; 0x80000
 8002d16:	e799      	b.n	8002c4c <USB_DevInit+0x4c>
 8002d18:	4619      	mov	r1, r3
 8002d1a:	e7a5      	b.n	8002c68 <USB_DevInit+0x68>
 8002d1c:	2103      	movs	r1, #3
 8002d1e:	e7a3      	b.n	8002c68 <USB_DevInit+0x68>
 8002d20:	f8d2 9000 	ldr.w	r9, [r2]
 8002d24:	f1b9 0f00 	cmp.w	r9, #0
 8002d28:	da0b      	bge.n	8002d42 <USB_DevInit+0x142>
 8002d2a:	b93b      	cbnz	r3, 8002d3c <USB_DevInit+0x13c>
 8002d2c:	f8c2 e000 	str.w	lr, [r2]
 8002d30:	6111      	str	r1, [r2, #16]
 8002d32:	3301      	adds	r3, #1
 8002d34:	f8c2 8008 	str.w	r8, [r2, #8]
 8002d38:	3220      	adds	r2, #32
 8002d3a:	e7b2      	b.n	8002ca2 <USB_DevInit+0xa2>
 8002d3c:	f8c2 c000 	str.w	ip, [r2]
 8002d40:	e7f6      	b.n	8002d30 <USB_DevInit+0x130>
 8002d42:	6011      	str	r1, [r2, #0]
 8002d44:	e7f4      	b.n	8002d30 <USB_DevInit+0x130>
 8002d46:	f8d3 9000 	ldr.w	r9, [r3]
 8002d4a:	f1b9 0f00 	cmp.w	r9, #0
 8002d4e:	da0b      	bge.n	8002d68 <USB_DevInit+0x168>
 8002d50:	b93a      	cbnz	r2, 8002d62 <USB_DevInit+0x162>
 8002d52:	f8c3 e000 	str.w	lr, [r3]
 8002d56:	6119      	str	r1, [r3, #16]
 8002d58:	3201      	adds	r2, #1
 8002d5a:	f8c3 8008 	str.w	r8, [r3, #8]
 8002d5e:	3320      	adds	r3, #32
 8002d60:	e7ab      	b.n	8002cba <USB_DevInit+0xba>
 8002d62:	f8c3 c000 	str.w	ip, [r3]
 8002d66:	e7f6      	b.n	8002d56 <USB_DevInit+0x156>
 8002d68:	6019      	str	r1, [r3, #0]
 8002d6a:	e7f4      	b.n	8002d56 <USB_DevInit+0x156>
 8002d6c:	803c3800 	.word	0x803c3800

08002d70 <USB_GetDevSpeed>:
 8002d70:	f8d0 3808 	ldr.w	r3, [r0, #2056]	; 0x808
 8002d74:	f013 0006 	ands.w	r0, r3, #6
 8002d78:	d004      	beq.n	8002d84 <USB_GetDevSpeed+0x14>
 8002d7a:	f013 0f02 	tst.w	r3, #2
 8002d7e:	bf14      	ite	ne
 8002d80:	2002      	movne	r0, #2
 8002d82:	200f      	moveq	r0, #15
 8002d84:	4770      	bx	lr

08002d86 <USB_ActivateEndpoint>:
 8002d86:	b530      	push	{r4, r5, lr}
 8002d88:	780d      	ldrb	r5, [r1, #0]
 8002d8a:	2401      	movs	r4, #1
 8002d8c:	f005 030f 	and.w	r3, r5, #15
 8002d90:	409c      	lsls	r4, r3
 8002d92:	784b      	ldrb	r3, [r1, #1]
 8002d94:	f500 6200 	add.w	r2, r0, #2048	; 0x800
 8002d98:	2b01      	cmp	r3, #1
 8002d9a:	eb00 1045 	add.w	r0, r0, r5, lsl #5
 8002d9e:	69d3      	ldr	r3, [r2, #28]
 8002da0:	d118      	bne.n	8002dd4 <USB_ActivateEndpoint+0x4e>
 8002da2:	431c      	orrs	r4, r3
 8002da4:	61d4      	str	r4, [r2, #28]
 8002da6:	f8d0 3900 	ldr.w	r3, [r0, #2304]	; 0x900
 8002daa:	041a      	lsls	r2, r3, #16
 8002dac:	d410      	bmi.n	8002dd0 <USB_ActivateEndpoint+0x4a>
 8002dae:	68ca      	ldr	r2, [r1, #12]
 8002db0:	f8d0 4900 	ldr.w	r4, [r0, #2304]	; 0x900
 8002db4:	f3c2 030a 	ubfx	r3, r2, #0, #11
 8002db8:	790a      	ldrb	r2, [r1, #4]
 8002dba:	4323      	orrs	r3, r4
 8002dbc:	ea43 4382 	orr.w	r3, r3, r2, lsl #18
 8002dc0:	ea43 5385 	orr.w	r3, r3, r5, lsl #22
 8002dc4:	f043 5380 	orr.w	r3, r3, #268435456	; 0x10000000
 8002dc8:	f443 4300 	orr.w	r3, r3, #32768	; 0x8000
 8002dcc:	f8c0 3900 	str.w	r3, [r0, #2304]	; 0x900
 8002dd0:	2000      	movs	r0, #0
 8002dd2:	bd30      	pop	{r4, r5, pc}
 8002dd4:	ea43 4404 	orr.w	r4, r3, r4, lsl #16
 8002dd8:	61d4      	str	r4, [r2, #28]
 8002dda:	f8d0 3b00 	ldr.w	r3, [r0, #2816]	; 0xb00
 8002dde:	041b      	lsls	r3, r3, #16
 8002de0:	d4f6      	bmi.n	8002dd0 <USB_ActivateEndpoint+0x4a>
 8002de2:	68cb      	ldr	r3, [r1, #12]
 8002de4:	f8d0 2b00 	ldr.w	r2, [r0, #2816]	; 0xb00
 8002de8:	f3c3 030a 	ubfx	r3, r3, #0, #11
 8002dec:	4313      	orrs	r3, r2
 8002dee:	790a      	ldrb	r2, [r1, #4]
 8002df0:	ea43 4382 	orr.w	r3, r3, r2, lsl #18
 8002df4:	f043 5380 	orr.w	r3, r3, #268435456	; 0x10000000
 8002df8:	f443 4300 	orr.w	r3, r3, #32768	; 0x8000
 8002dfc:	f8c0 3b00 	str.w	r3, [r0, #2816]	; 0xb00
 8002e00:	e7e6      	b.n	8002dd0 <USB_ActivateEndpoint+0x4a>
	...

08002e04 <USB_DeactivateEndpoint>:
 8002e04:	b510      	push	{r4, lr}
 8002e06:	780a      	ldrb	r2, [r1, #0]
 8002e08:	7849      	ldrb	r1, [r1, #1]
 8002e0a:	2901      	cmp	r1, #1
 8002e0c:	eb00 1342 	add.w	r3, r0, r2, lsl #5
 8002e10:	f500 6000 	add.w	r0, r0, #2048	; 0x800
 8002e14:	f002 020f 	and.w	r2, r2, #15
 8002e18:	d122      	bne.n	8002e60 <USB_DeactivateEndpoint+0x5c>
 8002e1a:	f8d3 1900 	ldr.w	r1, [r3, #2304]	; 0x900
 8002e1e:	2900      	cmp	r1, #0
 8002e20:	da0b      	bge.n	8002e3a <USB_DeactivateEndpoint+0x36>
 8002e22:	f8d3 1900 	ldr.w	r1, [r3, #2304]	; 0x900
 8002e26:	f041 6100 	orr.w	r1, r1, #134217728	; 0x8000000
 8002e2a:	f8c3 1900 	str.w	r1, [r3, #2304]	; 0x900
 8002e2e:	f8d3 1900 	ldr.w	r1, [r3, #2304]	; 0x900
 8002e32:	f041 4180 	orr.w	r1, r1, #1073741824	; 0x40000000
 8002e36:	f8c3 1900 	str.w	r1, [r3, #2304]	; 0x900
 8002e3a:	6bc4      	ldr	r4, [r0, #60]	; 0x3c
 8002e3c:	2101      	movs	r1, #1
 8002e3e:	fa01 f202 	lsl.w	r2, r1, r2
 8002e42:	ea24 0402 	bic.w	r4, r4, r2
 8002e46:	63c4      	str	r4, [r0, #60]	; 0x3c
 8002e48:	69c1      	ldr	r1, [r0, #28]
 8002e4a:	ea21 0202 	bic.w	r2, r1, r2
 8002e4e:	61c2      	str	r2, [r0, #28]
 8002e50:	f8d3 1900 	ldr.w	r1, [r3, #2304]	; 0x900
 8002e54:	4a14      	ldr	r2, [pc, #80]	; (8002ea8 <USB_DeactivateEndpoint+0xa4>)
 8002e56:	400a      	ands	r2, r1
 8002e58:	f8c3 2900 	str.w	r2, [r3, #2304]	; 0x900
 8002e5c:	2000      	movs	r0, #0
 8002e5e:	bd10      	pop	{r4, pc}
 8002e60:	f8d3 1b00 	ldr.w	r1, [r3, #2816]	; 0xb00
 8002e64:	2900      	cmp	r1, #0
 8002e66:	da0b      	bge.n	8002e80 <USB_DeactivateEndpoint+0x7c>
 8002e68:	f8d3 1b00 	ldr.w	r1, [r3, #2816]	; 0xb00
 8002e6c:	f041 6100 	orr.w	r1, r1, #134217728	; 0x8000000
 8002e70:	f8c3 1b00 	str.w	r1, [r3, #2816]	; 0xb00
 8002e74:	f8d3 1b00 	ldr.w	r1, [r3, #2816]	; 0xb00
 8002e78:	f041 4180 	orr.w	r1, r1, #1073741824	; 0x40000000
 8002e7c:	f8c3 1b00 	str.w	r1, [r3, #2816]	; 0xb00
 8002e80:	6bc4      	ldr	r4, [r0, #60]	; 0x3c
 8002e82:	f44f 3180 	mov.w	r1, #65536	; 0x10000
 8002e86:	fa01 f202 	lsl.w	r2, r1, r2
 8002e8a:	ea24 0402 	bic.w	r4, r4, r2
 8002e8e:	63c4      	str	r4, [r0, #60]	; 0x3c
 8002e90:	69c1      	ldr	r1, [r0, #28]
 8002e92:	ea21 0202 	bic.w	r2, r1, r2
 8002e96:	61c2      	str	r2, [r0, #28]
 8002e98:	f8d3 1b00 	ldr.w	r1, [r3, #2816]	; 0xb00
 8002e9c:	4a03      	ldr	r2, [pc, #12]	; (8002eac <USB_DeactivateEndpoint+0xa8>)
 8002e9e:	400a      	ands	r2, r1
 8002ea0:	f8c3 2b00 	str.w	r2, [r3, #2816]	; 0xb00
 8002ea4:	e7da      	b.n	8002e5c <USB_DeactivateEndpoint+0x58>
 8002ea6:	bf00      	nop
 8002ea8:	ec337800 	.word	0xec337800
 8002eac:	eff37800 	.word	0xeff37800

08002eb0 <USB_EP0StartXfer>:
 8002eb0:	784b      	ldrb	r3, [r1, #1]
 8002eb2:	f8df c0f0 	ldr.w	ip, [pc, #240]	; 8002fa4 <USB_EP0StartXfer+0xf4>
 8002eb6:	b5f0      	push	{r4, r5, r6, r7, lr}
 8002eb8:	780e      	ldrb	r6, [r1, #0]
 8002eba:	698d      	ldr	r5, [r1, #24]
 8002ebc:	4f38      	ldr	r7, [pc, #224]	; (8002fa0 <USB_EP0StartXfer+0xf0>)
 8002ebe:	2b01      	cmp	r3, #1
 8002ec0:	eb00 1446 	add.w	r4, r0, r6, lsl #5
 8002ec4:	d146      	bne.n	8002f54 <USB_EP0StartXfer+0xa4>
 8002ec6:	f504 6310 	add.w	r3, r4, #2304	; 0x900
 8002eca:	b9bd      	cbnz	r5, 8002efc <USB_EP0StartXfer+0x4c>
 8002ecc:	691d      	ldr	r5, [r3, #16]
 8002ece:	402f      	ands	r7, r5
 8002ed0:	611f      	str	r7, [r3, #16]
 8002ed2:	691d      	ldr	r5, [r3, #16]
 8002ed4:	f445 2500 	orr.w	r5, r5, #524288	; 0x80000
 8002ed8:	611d      	str	r5, [r3, #16]
 8002eda:	691d      	ldr	r5, [r3, #16]
 8002edc:	ea05 050c 	and.w	r5, r5, ip
 8002ee0:	2a01      	cmp	r2, #1
 8002ee2:	611d      	str	r5, [r3, #16]
 8002ee4:	d123      	bne.n	8002f2e <USB_EP0StartXfer+0x7e>
 8002ee6:	694a      	ldr	r2, [r1, #20]
 8002ee8:	b102      	cbz	r2, 8002eec <USB_EP0StartXfer+0x3c>
 8002eea:	615a      	str	r2, [r3, #20]
 8002eec:	f8d4 3900 	ldr.w	r3, [r4, #2304]	; 0x900
 8002ef0:	f043 4304 	orr.w	r3, r3, #2214592512	; 0x84000000
 8002ef4:	f8c4 3900 	str.w	r3, [r4, #2304]	; 0x900
 8002ef8:	2000      	movs	r0, #0
 8002efa:	bdf0      	pop	{r4, r5, r6, r7, pc}
 8002efc:	f8d3 e010 	ldr.w	lr, [r3, #16]
 8002f00:	ea0e 0c0c 	and.w	ip, lr, ip
 8002f04:	f8c3 c010 	str.w	ip, [r3, #16]
 8002f08:	f8d3 c010 	ldr.w	ip, [r3, #16]
 8002f0c:	ea0c 0707 	and.w	r7, ip, r7
 8002f10:	611f      	str	r7, [r3, #16]
 8002f12:	68cf      	ldr	r7, [r1, #12]
 8002f14:	42af      	cmp	r7, r5
 8002f16:	691d      	ldr	r5, [r3, #16]
 8002f18:	bf38      	it	cc
 8002f1a:	618f      	strcc	r7, [r1, #24]
 8002f1c:	f445 2500 	orr.w	r5, r5, #524288	; 0x80000
 8002f20:	611d      	str	r5, [r3, #16]
 8002f22:	698d      	ldr	r5, [r1, #24]
 8002f24:	691f      	ldr	r7, [r3, #16]
 8002f26:	f3c5 0512 	ubfx	r5, r5, #0, #19
 8002f2a:	433d      	orrs	r5, r7
 8002f2c:	e7d8      	b.n	8002ee0 <USB_EP0StartXfer+0x30>
 8002f2e:	f8d4 3900 	ldr.w	r3, [r4, #2304]	; 0x900
 8002f32:	f043 4304 	orr.w	r3, r3, #2214592512	; 0x84000000
 8002f36:	f8c4 3900 	str.w	r3, [r4, #2304]	; 0x900
 8002f3a:	698b      	ldr	r3, [r1, #24]
 8002f3c:	2b00      	cmp	r3, #0
 8002f3e:	d0db      	beq.n	8002ef8 <USB_EP0StartXfer+0x48>
 8002f40:	f8d0 2834 	ldr.w	r2, [r0, #2100]	; 0x834
 8002f44:	f006 060f 	and.w	r6, r6, #15
 8002f48:	2301      	movs	r3, #1
 8002f4a:	40b3      	lsls	r3, r6
 8002f4c:	4313      	orrs	r3, r2
 8002f4e:	f8c0 3834 	str.w	r3, [r0, #2100]	; 0x834
 8002f52:	e7d1      	b.n	8002ef8 <USB_EP0StartXfer+0x48>
 8002f54:	f8d4 0b10 	ldr.w	r0, [r4, #2832]	; 0xb10
 8002f58:	ea00 000c 	and.w	r0, r0, ip
 8002f5c:	f8c4 0b10 	str.w	r0, [r4, #2832]	; 0xb10
 8002f60:	f8d4 0b10 	ldr.w	r0, [r4, #2832]	; 0xb10
 8002f64:	4038      	ands	r0, r7
 8002f66:	f504 6330 	add.w	r3, r4, #2816	; 0xb00
 8002f6a:	6118      	str	r0, [r3, #16]
 8002f6c:	68c8      	ldr	r0, [r1, #12]
 8002f6e:	b105      	cbz	r5, 8002f72 <USB_EP0StartXfer+0xc2>
 8002f70:	6188      	str	r0, [r1, #24]
 8002f72:	691d      	ldr	r5, [r3, #16]
 8002f74:	61c8      	str	r0, [r1, #28]
 8002f76:	f445 2500 	orr.w	r5, r5, #524288	; 0x80000
 8002f7a:	611d      	str	r5, [r3, #16]
 8002f7c:	691d      	ldr	r5, [r3, #16]
 8002f7e:	f3c0 0012 	ubfx	r0, r0, #0, #19
 8002f82:	4328      	orrs	r0, r5
 8002f84:	2a01      	cmp	r2, #1
 8002f86:	6118      	str	r0, [r3, #16]
 8002f88:	d102      	bne.n	8002f90 <USB_EP0StartXfer+0xe0>
 8002f8a:	690a      	ldr	r2, [r1, #16]
 8002f8c:	b102      	cbz	r2, 8002f90 <USB_EP0StartXfer+0xe0>
 8002f8e:	615a      	str	r2, [r3, #20]
 8002f90:	f8d4 3b00 	ldr.w	r3, [r4, #2816]	; 0xb00
 8002f94:	f043 4304 	orr.w	r3, r3, #2214592512	; 0x84000000
 8002f98:	f8c4 3b00 	str.w	r3, [r4, #2816]	; 0xb00
 8002f9c:	e7ac      	b.n	8002ef8 <USB_EP0StartXfer+0x48>
 8002f9e:	bf00      	nop
 8002fa0:	e007ffff 	.word	0xe007ffff
 8002fa4:	fff80000 	.word	0xfff80000

08002fa8 <USB_EPStopXfer>:
 8002fa8:	b082      	sub	sp, #8
 8002faa:	2300      	movs	r3, #0
 8002fac:	784a      	ldrb	r2, [r1, #1]
 8002fae:	9301      	str	r3, [sp, #4]
 8002fb0:	780b      	ldrb	r3, [r1, #0]
 8002fb2:	2a01      	cmp	r2, #1
 8002fb4:	ea4f 1343 	mov.w	r3, r3, lsl #5
 8002fb8:	d11e      	bne.n	8002ff8 <USB_EPStopXfer+0x50>
 8002fba:	f500 6010 	add.w	r0, r0, #2304	; 0x900
 8002fbe:	18c1      	adds	r1, r0, r3
 8002fc0:	58c2      	ldr	r2, [r0, r3]
 8002fc2:	2a00      	cmp	r2, #0
 8002fc4:	db02      	blt.n	8002fcc <USB_EPStopXfer+0x24>
 8002fc6:	2000      	movs	r0, #0
 8002fc8:	b002      	add	sp, #8
 8002fca:	4770      	bx	lr
 8002fcc:	58c2      	ldr	r2, [r0, r3]
 8002fce:	f042 6200 	orr.w	r2, r2, #134217728	; 0x8000000
 8002fd2:	50c2      	str	r2, [r0, r3]
 8002fd4:	58c2      	ldr	r2, [r0, r3]
 8002fd6:	f042 4280 	orr.w	r2, r2, #1073741824	; 0x40000000
 8002fda:	50c2      	str	r2, [r0, r3]
 8002fdc:	f242 7210 	movw	r2, #10000	; 0x2710
 8002fe0:	9b01      	ldr	r3, [sp, #4]
 8002fe2:	3301      	adds	r3, #1
 8002fe4:	9301      	str	r3, [sp, #4]
 8002fe6:	9b01      	ldr	r3, [sp, #4]
 8002fe8:	4293      	cmp	r3, r2
 8002fea:	d901      	bls.n	8002ff0 <USB_EPStopXfer+0x48>
 8002fec:	2001      	movs	r0, #1
 8002fee:	e7eb      	b.n	8002fc8 <USB_EPStopXfer+0x20>
 8002ff0:	680b      	ldr	r3, [r1, #0]
 8002ff2:	2b00      	cmp	r3, #0
 8002ff4:	dbf4      	blt.n	8002fe0 <USB_EPStopXfer+0x38>
 8002ff6:	e7e6      	b.n	8002fc6 <USB_EPStopXfer+0x1e>
 8002ff8:	f500 6030 	add.w	r0, r0, #2816	; 0xb00
 8002ffc:	18c1      	adds	r1, r0, r3
 8002ffe:	58c2      	ldr	r2, [r0, r3]
 8003000:	2a00      	cmp	r2, #0
 8003002:	dae0      	bge.n	8002fc6 <USB_EPStopXfer+0x1e>
 8003004:	58c2      	ldr	r2, [r0, r3]
 8003006:	f042 6200 	orr.w	r2, r2, #134217728	; 0x8000000
 800300a:	50c2      	str	r2, [r0, r3]
 800300c:	58c2      	ldr	r2, [r0, r3]
 800300e:	f042 4280 	orr.w	r2, r2, #1073741824	; 0x40000000
 8003012:	50c2      	str	r2, [r0, r3]
 8003014:	f242 7210 	movw	r2, #10000	; 0x2710
 8003018:	9b01      	ldr	r3, [sp, #4]
 800301a:	3301      	adds	r3, #1
 800301c:	9301      	str	r3, [sp, #4]
 800301e:	9b01      	ldr	r3, [sp, #4]
 8003020:	4293      	cmp	r3, r2
 8003022:	d8e3      	bhi.n	8002fec <USB_EPStopXfer+0x44>
 8003024:	680b      	ldr	r3, [r1, #0]
 8003026:	2b00      	cmp	r3, #0
 8003028:	dbf6      	blt.n	8003018 <USB_EPStopXfer+0x70>
 800302a:	e7cc      	b.n	8002fc6 <USB_EPStopXfer+0x1e>

0800302c <USB_WritePacket>:
 800302c:	b510      	push	{r4, lr}
 800302e:	f89d 4008 	ldrb.w	r4, [sp, #8]
 8003032:	b944      	cbnz	r4, 8003046 <USB_WritePacket+0x1a>
 8003034:	3303      	adds	r3, #3
 8003036:	3201      	adds	r2, #1
 8003038:	089b      	lsrs	r3, r3, #2
 800303a:	eb00 3002 	add.w	r0, r0, r2, lsl #12
 800303e:	eb01 0383 	add.w	r3, r1, r3, lsl #2
 8003042:	428b      	cmp	r3, r1
 8003044:	d101      	bne.n	800304a <USB_WritePacket+0x1e>
 8003046:	2000      	movs	r0, #0
 8003048:	bd10      	pop	{r4, pc}
 800304a:	f851 2b04 	ldr.w	r2, [r1], #4
 800304e:	6002      	str	r2, [r0, #0]
 8003050:	e7f7      	b.n	8003042 <USB_WritePacket+0x16>
	...

08003054 <USB_EPStartXfer>:
 8003054:	e92d 41f3 	stmdb	sp!, {r0, r1, r4, r5, r6, r7, r8, lr}
 8003058:	784d      	ldrb	r5, [r1, #1]
 800305a:	780f      	ldrb	r7, [r1, #0]
 800305c:	698b      	ldr	r3, [r1, #24]
 800305e:	790e      	ldrb	r6, [r1, #4]
 8003060:	f8df c1bc 	ldr.w	ip, [pc, #444]	; 8003220 <USB_EPStartXfer+0x1cc>
 8003064:	f8df e1bc 	ldr.w	lr, [pc, #444]	; 8003224 <USB_EPStartXfer+0x1d0>
 8003068:	2d01      	cmp	r5, #1
 800306a:	eb00 1447 	add.w	r4, r0, r7, lsl #5
 800306e:	f040 808e 	bne.w	800318e <USB_EPStartXfer+0x13a>
 8003072:	f504 6510 	add.w	r5, r4, #2304	; 0x900
 8003076:	f8d5 8010 	ldr.w	r8, [r5, #16]
 800307a:	bb6b      	cbnz	r3, 80030d8 <USB_EPStartXfer+0x84>
 800307c:	ea08 0c0c 	and.w	ip, r8, ip
 8003080:	f8c5 c010 	str.w	ip, [r5, #16]
 8003084:	f8d5 c010 	ldr.w	ip, [r5, #16]
 8003088:	f44c 2c00 	orr.w	ip, ip, #524288	; 0x80000
 800308c:	f8c5 c010 	str.w	ip, [r5, #16]
 8003090:	f8d5 c010 	ldr.w	ip, [r5, #16]
 8003094:	ea0c 0e0e 	and.w	lr, ip, lr
 8003098:	f8c5 e010 	str.w	lr, [r5, #16]
 800309c:	2a01      	cmp	r2, #1
 800309e:	d14e      	bne.n	800313e <USB_EPStartXfer+0xea>
 80030a0:	694b      	ldr	r3, [r1, #20]
 80030a2:	b103      	cbz	r3, 80030a6 <USB_EPStartXfer+0x52>
 80030a4:	616b      	str	r3, [r5, #20]
 80030a6:	2e01      	cmp	r6, #1
 80030a8:	d10c      	bne.n	80030c4 <USB_EPStartXfer+0x70>
 80030aa:	f8d0 3808 	ldr.w	r3, [r0, #2056]	; 0x808
 80030ae:	f413 7f80 	tst.w	r3, #256	; 0x100
 80030b2:	f8d4 3900 	ldr.w	r3, [r4, #2304]	; 0x900
 80030b6:	bf0c      	ite	eq
 80030b8:	f043 5300 	orreq.w	r3, r3, #536870912	; 0x20000000
 80030bc:	f043 5380 	orrne.w	r3, r3, #268435456	; 0x10000000
 80030c0:	f8c4 3900 	str.w	r3, [r4, #2304]	; 0x900
 80030c4:	f8d4 3900 	ldr.w	r3, [r4, #2304]	; 0x900
 80030c8:	f043 4304 	orr.w	r3, r3, #2214592512	; 0x84000000
 80030cc:	f8c4 3900 	str.w	r3, [r4, #2304]	; 0x900
 80030d0:	2000      	movs	r0, #0
 80030d2:	b002      	add	sp, #8
 80030d4:	e8bd 81f0 	ldmia.w	sp!, {r4, r5, r6, r7, r8, pc}
 80030d8:	ea08 0e0e 	and.w	lr, r8, lr
 80030dc:	f8c5 e010 	str.w	lr, [r5, #16]
 80030e0:	f8d5 e010 	ldr.w	lr, [r5, #16]
 80030e4:	ea0e 0c0c 	and.w	ip, lr, ip
 80030e8:	f8d1 e00c 	ldr.w	lr, [r1, #12]
 80030ec:	f8c5 c010 	str.w	ip, [r5, #16]
 80030f0:	eb0e 0c03 	add.w	ip, lr, r3
 80030f4:	f10c 3cff 	add.w	ip, ip, #4294967295
 80030f8:	fbbc fefe 	udiv	lr, ip, lr
 80030fc:	f8df c128 	ldr.w	ip, [pc, #296]	; 8003228 <USB_EPStartXfer+0x1d4>
 8003100:	f8d5 8010 	ldr.w	r8, [r5, #16]
 8003104:	ea0c 4cce 	and.w	ip, ip, lr, lsl #19
 8003108:	ea4c 0c08 	orr.w	ip, ip, r8
 800310c:	f8c5 c010 	str.w	ip, [r5, #16]
 8003110:	f8d5 e010 	ldr.w	lr, [r5, #16]
 8003114:	f3c3 0c12 	ubfx	ip, r3, #0, #19
 8003118:	ea4c 0c0e 	orr.w	ip, ip, lr
 800311c:	2e01      	cmp	r6, #1
 800311e:	f8c5 c010 	str.w	ip, [r5, #16]
 8003122:	d1bb      	bne.n	800309c <USB_EPStartXfer+0x48>
 8003124:	f8d5 c010 	ldr.w	ip, [r5, #16]
 8003128:	f02c 4cc0 	bic.w	ip, ip, #1610612736	; 0x60000000
 800312c:	f8c5 c010 	str.w	ip, [r5, #16]
 8003130:	f8d5 c010 	ldr.w	ip, [r5, #16]
 8003134:	f04c 5c00 	orr.w	ip, ip, #536870912	; 0x20000000
 8003138:	f8c5 c010 	str.w	ip, [r5, #16]
 800313c:	e7ae      	b.n	800309c <USB_EPStartXfer+0x48>
 800313e:	f8d4 5900 	ldr.w	r5, [r4, #2304]	; 0x900
 8003142:	2e01      	cmp	r6, #1
 8003144:	f045 4504 	orr.w	r5, r5, #2214592512	; 0x84000000
 8003148:	f8c4 5900 	str.w	r5, [r4, #2304]	; 0x900
 800314c:	d00b      	beq.n	8003166 <USB_EPStartXfer+0x112>
 800314e:	2b00      	cmp	r3, #0
 8003150:	d0be      	beq.n	80030d0 <USB_EPStartXfer+0x7c>
 8003152:	f8d0 3834 	ldr.w	r3, [r0, #2100]	; 0x834
 8003156:	f007 020f 	and.w	r2, r7, #15
 800315a:	2701      	movs	r7, #1
 800315c:	4097      	lsls	r7, r2
 800315e:	431f      	orrs	r7, r3
 8003160:	f8c0 7834 	str.w	r7, [r0, #2100]	; 0x834
 8003164:	e7b4      	b.n	80030d0 <USB_EPStartXfer+0x7c>
 8003166:	f8d0 5808 	ldr.w	r5, [r0, #2056]	; 0x808
 800316a:	f415 7f80 	tst.w	r5, #256	; 0x100
 800316e:	f8d4 5900 	ldr.w	r5, [r4, #2304]	; 0x900
 8003172:	bf0c      	ite	eq
 8003174:	f045 5500 	orreq.w	r5, r5, #536870912	; 0x20000000
 8003178:	f045 5580 	orrne.w	r5, r5, #268435456	; 0x10000000
 800317c:	f8c4 5900 	str.w	r5, [r4, #2304]	; 0x900
 8003180:	9200      	str	r2, [sp, #0]
 8003182:	6909      	ldr	r1, [r1, #16]
 8003184:	b29b      	uxth	r3, r3
 8003186:	463a      	mov	r2, r7
 8003188:	f7ff ff50 	bl	800302c <USB_WritePacket>
 800318c:	e7a0      	b.n	80030d0 <USB_EPStartXfer+0x7c>
 800318e:	f8d4 5b10 	ldr.w	r5, [r4, #2832]	; 0xb10
 8003192:	ea05 050e 	and.w	r5, r5, lr
 8003196:	f8c4 5b10 	str.w	r5, [r4, #2832]	; 0xb10
 800319a:	f8d4 5b10 	ldr.w	r5, [r4, #2832]	; 0xb10
 800319e:	ea05 050c 	and.w	r5, r5, ip
 80031a2:	f504 6730 	add.w	r7, r4, #2816	; 0xb00
 80031a6:	613d      	str	r5, [r7, #16]
 80031a8:	68cd      	ldr	r5, [r1, #12]
 80031aa:	bb1b      	cbnz	r3, 80031f4 <USB_EPStartXfer+0x1a0>
 80031ac:	693b      	ldr	r3, [r7, #16]
 80031ae:	f3c5 0512 	ubfx	r5, r5, #0, #19
 80031b2:	431d      	orrs	r5, r3
 80031b4:	613d      	str	r5, [r7, #16]
 80031b6:	693b      	ldr	r3, [r7, #16]
 80031b8:	f443 2300 	orr.w	r3, r3, #524288	; 0x80000
 80031bc:	613b      	str	r3, [r7, #16]
 80031be:	2a01      	cmp	r2, #1
 80031c0:	d102      	bne.n	80031c8 <USB_EPStartXfer+0x174>
 80031c2:	690b      	ldr	r3, [r1, #16]
 80031c4:	b103      	cbz	r3, 80031c8 <USB_EPStartXfer+0x174>
 80031c6:	617b      	str	r3, [r7, #20]
 80031c8:	2e01      	cmp	r6, #1
 80031ca:	d10c      	bne.n	80031e6 <USB_EPStartXfer+0x192>
 80031cc:	f8d0 3808 	ldr.w	r3, [r0, #2056]	; 0x808
 80031d0:	f413 7f80 	tst.w	r3, #256	; 0x100
 80031d4:	f8d4 3b00 	ldr.w	r3, [r4, #2816]	; 0xb00
 80031d8:	bf0c      	ite	eq
 80031da:	f043 5300 	orreq.w	r3, r3, #536870912	; 0x20000000
 80031de:	f043 5380 	orrne.w	r3, r3, #268435456	; 0x10000000
 80031e2:	f8c4 3b00 	str.w	r3, [r4, #2816]	; 0xb00
 80031e6:	f8d4 3b00 	ldr.w	r3, [r4, #2816]	; 0xb00
 80031ea:	f043 4304 	orr.w	r3, r3, #2214592512	; 0x84000000
 80031ee:	f8c4 3b00 	str.w	r3, [r4, #2816]	; 0xb00
 80031f2:	e76d      	b.n	80030d0 <USB_EPStartXfer+0x7c>
 80031f4:	442b      	add	r3, r5
 80031f6:	f8df c030 	ldr.w	ip, [pc, #48]	; 8003228 <USB_EPStartXfer+0x1d4>
 80031fa:	f8d7 e010 	ldr.w	lr, [r7, #16]
 80031fe:	3b01      	subs	r3, #1
 8003200:	fbb3 f3f5 	udiv	r3, r3, r5
 8003204:	b29b      	uxth	r3, r3
 8003206:	435d      	muls	r5, r3
 8003208:	ea0c 43c3 	and.w	r3, ip, r3, lsl #19
 800320c:	ea43 030e 	orr.w	r3, r3, lr
 8003210:	61cd      	str	r5, [r1, #28]
 8003212:	613b      	str	r3, [r7, #16]
 8003214:	693b      	ldr	r3, [r7, #16]
 8003216:	f3c5 0512 	ubfx	r5, r5, #0, #19
 800321a:	431d      	orrs	r5, r3
 800321c:	613d      	str	r5, [r7, #16]
 800321e:	e7ce      	b.n	80031be <USB_EPStartXfer+0x16a>
 8003220:	e007ffff 	.word	0xe007ffff
 8003224:	fff80000 	.word	0xfff80000
 8003228:	1ff80000 	.word	0x1ff80000

0800322c <USB_ReadPacket>:
 800322c:	4603      	mov	r3, r0
 800322e:	b570      	push	{r4, r5, r6, lr}
 8003230:	0890      	lsrs	r0, r2, #2
 8003232:	2400      	movs	r4, #0
 8003234:	f002 0203 	and.w	r2, r2, #3
 8003238:	f503 5580 	add.w	r5, r3, #4096	; 0x1000
 800323c:	4284      	cmp	r4, r0
 800323e:	d310      	bcc.n	8003262 <USB_ReadPacket+0x36>
 8003240:	eb01 0080 	add.w	r0, r1, r0, lsl #2
 8003244:	b162      	cbz	r2, 8003260 <USB_ReadPacket+0x34>
 8003246:	f503 5380 	add.w	r3, r3, #4096	; 0x1000
 800324a:	681c      	ldr	r4, [r3, #0]
 800324c:	2300      	movs	r3, #0
 800324e:	00d9      	lsls	r1, r3, #3
 8003250:	fa24 f101 	lsr.w	r1, r4, r1
 8003254:	54c1      	strb	r1, [r0, r3]
 8003256:	3301      	adds	r3, #1
 8003258:	b299      	uxth	r1, r3
 800325a:	428a      	cmp	r2, r1
 800325c:	d1f7      	bne.n	800324e <USB_ReadPacket+0x22>
 800325e:	4410      	add	r0, r2
 8003260:	bd70      	pop	{r4, r5, r6, pc}
 8003262:	682e      	ldr	r6, [r5, #0]
 8003264:	f841 6024 	str.w	r6, [r1, r4, lsl #2]
 8003268:	3401      	adds	r4, #1
 800326a:	e7e7      	b.n	800323c <USB_ReadPacket+0x10>

0800326c <USB_EPSetStall>:
 800326c:	784a      	ldrb	r2, [r1, #1]
 800326e:	780b      	ldrb	r3, [r1, #0]
 8003270:	2a01      	cmp	r2, #1
 8003272:	eb00 1043 	add.w	r0, r0, r3, lsl #5
 8003276:	d112      	bne.n	800329e <USB_EPSetStall+0x32>
 8003278:	f8d0 2900 	ldr.w	r2, [r0, #2304]	; 0x900
 800327c:	2a00      	cmp	r2, #0
 800327e:	db06      	blt.n	800328e <USB_EPSetStall+0x22>
 8003280:	b12b      	cbz	r3, 800328e <USB_EPSetStall+0x22>
 8003282:	f8d0 3900 	ldr.w	r3, [r0, #2304]	; 0x900
 8003286:	f023 4380 	bic.w	r3, r3, #1073741824	; 0x40000000
 800328a:	f8c0 3900 	str.w	r3, [r0, #2304]	; 0x900
 800328e:	f8d0 3900 	ldr.w	r3, [r0, #2304]	; 0x900
 8003292:	f443 1300 	orr.w	r3, r3, #2097152	; 0x200000
 8003296:	f8c0 3900 	str.w	r3, [r0, #2304]	; 0x900
 800329a:	2000      	movs	r0, #0
 800329c:	4770      	bx	lr
 800329e:	f8d0 2b00 	ldr.w	r2, [r0, #2816]	; 0xb00
 80032a2:	2a00      	cmp	r2, #0
 80032a4:	db06      	blt.n	80032b4 <USB_EPSetStall+0x48>
 80032a6:	b12b      	cbz	r3, 80032b4 <USB_EPSetStall+0x48>
 80032a8:	f8d0 3b00 	ldr.w	r3, [r0, #2816]	; 0xb00
 80032ac:	f023 4380 	bic.w	r3, r3, #1073741824	; 0x40000000
 80032b0:	f8c0 3b00 	str.w	r3, [r0, #2816]	; 0xb00
 80032b4:	f8d0 3b00 	ldr.w	r3, [r0, #2816]	; 0xb00
 80032b8:	f443 1300 	orr.w	r3, r3, #2097152	; 0x200000
 80032bc:	f8c0 3b00 	str.w	r3, [r0, #2816]	; 0xb00
 80032c0:	e7eb      	b.n	800329a <USB_EPSetStall+0x2e>

080032c2 <USB_EPClearStall>:
 80032c2:	780b      	ldrb	r3, [r1, #0]
 80032c4:	784a      	ldrb	r2, [r1, #1]
 80032c6:	eb00 1043 	add.w	r0, r0, r3, lsl #5
 80032ca:	790b      	ldrb	r3, [r1, #4]
 80032cc:	2a01      	cmp	r2, #1
 80032ce:	f1a3 0302 	sub.w	r3, r3, #2
 80032d2:	b2db      	uxtb	r3, r3
 80032d4:	d10f      	bne.n	80032f6 <USB_EPClearStall+0x34>
 80032d6:	f8d0 2900 	ldr.w	r2, [r0, #2304]	; 0x900
 80032da:	2b01      	cmp	r3, #1
 80032dc:	f422 1200 	bic.w	r2, r2, #2097152	; 0x200000
 80032e0:	f8c0 2900 	str.w	r2, [r0, #2304]	; 0x900
 80032e4:	d805      	bhi.n	80032f2 <USB_EPClearStall+0x30>
 80032e6:	f8d0 3900 	ldr.w	r3, [r0, #2304]	; 0x900
 80032ea:	f043 5380 	orr.w	r3, r3, #268435456	; 0x10000000
 80032ee:	f8c0 3900 	str.w	r3, [r0, #2304]	; 0x900
 80032f2:	2000      	movs	r0, #0
 80032f4:	4770      	bx	lr
 80032f6:	f8d0 2b00 	ldr.w	r2, [r0, #2816]	; 0xb00
 80032fa:	f422 1200 	bic.w	r2, r2, #2097152	; 0x200000
 80032fe:	2b01      	cmp	r3, #1
 8003300:	f8c0 2b00 	str.w	r2, [r0, #2816]	; 0xb00
 8003304:	bf9e      	ittt	ls
 8003306:	f8d0 3b00 	ldrls.w	r3, [r0, #2816]	; 0xb00
 800330a:	f043 5380 	orrls.w	r3, r3, #268435456	; 0x10000000
 800330e:	f8c0 3b00 	strls.w	r3, [r0, #2816]	; 0xb00
 8003312:	e7ee      	b.n	80032f2 <USB_EPClearStall+0x30>

08003314 <USB_SetDevAddress>:
 8003314:	f8d0 3800 	ldr.w	r3, [r0, #2048]	; 0x800
 8003318:	f423 63fe 	bic.w	r3, r3, #2032	; 0x7f0
 800331c:	f8c0 3800 	str.w	r3, [r0, #2048]	; 0x800
 8003320:	f8d0 3800 	ldr.w	r3, [r0, #2048]	; 0x800
 8003324:	0109      	lsls	r1, r1, #4
 8003326:	f401 61fe 	and.w	r1, r1, #2032	; 0x7f0
 800332a:	4319      	orrs	r1, r3
 800332c:	f8c0 1800 	str.w	r1, [r0, #2048]	; 0x800
 8003330:	2000      	movs	r0, #0
 8003332:	4770      	bx	lr

08003334 <USB_DevConnect>:
 8003334:	f8d0 3e00 	ldr.w	r3, [r0, #3584]	; 0xe00
 8003338:	f023 0303 	bic.w	r3, r3, #3
 800333c:	f8c0 3e00 	str.w	r3, [r0, #3584]	; 0xe00
 8003340:	f8d0 3804 	ldr.w	r3, [r0, #2052]	; 0x804
 8003344:	f023 0302 	bic.w	r3, r3, #2
 8003348:	f8c0 3804 	str.w	r3, [r0, #2052]	; 0x804
 800334c:	2000      	movs	r0, #0
 800334e:	4770      	bx	lr

08003350 <USB_DevDisconnect>:
 8003350:	f8d0 3e00 	ldr.w	r3, [r0, #3584]	; 0xe00
 8003354:	f023 0303 	bic.w	r3, r3, #3
 8003358:	f8c0 3e00 	str.w	r3, [r0, #3584]	; 0xe00
 800335c:	f8d0 3804 	ldr.w	r3, [r0, #2052]	; 0x804
 8003360:	f043 0302 	orr.w	r3, r3, #2
 8003364:	f8c0 3804 	str.w	r3, [r0, #2052]	; 0x804
 8003368:	2000      	movs	r0, #0
 800336a:	4770      	bx	lr

0800336c <USB_ReadInterrupts>:
 800336c:	6942      	ldr	r2, [r0, #20]
 800336e:	6980      	ldr	r0, [r0, #24]
 8003370:	4010      	ands	r0, r2
 8003372:	4770      	bx	lr

08003374 <USB_ReadDevAllOutEpInterrupt>:
 8003374:	f8d0 3818 	ldr.w	r3, [r0, #2072]	; 0x818
 8003378:	f500 6000 	add.w	r0, r0, #2048	; 0x800
 800337c:	69c0      	ldr	r0, [r0, #28]
 800337e:	4018      	ands	r0, r3
 8003380:	0c00      	lsrs	r0, r0, #16
 8003382:	4770      	bx	lr

08003384 <USB_ReadDevAllInEpInterrupt>:
 8003384:	f8d0 3818 	ldr.w	r3, [r0, #2072]	; 0x818
 8003388:	f500 6000 	add.w	r0, r0, #2048	; 0x800
 800338c:	69c0      	ldr	r0, [r0, #28]
 800338e:	4018      	ands	r0, r3
 8003390:	b280      	uxth	r0, r0
 8003392:	4770      	bx	lr

08003394 <USB_ReadDevOutEPInterrupt>:
 8003394:	eb00 1141 	add.w	r1, r0, r1, lsl #5
 8003398:	f500 6000 	add.w	r0, r0, #2048	; 0x800
 800339c:	f8d1 2b08 	ldr.w	r2, [r1, #2824]	; 0xb08
 80033a0:	6940      	ldr	r0, [r0, #20]
 80033a2:	4010      	ands	r0, r2
 80033a4:	4770      	bx	lr

080033a6 <USB_ReadDevInEPInterrupt>:
 80033a6:	b510      	push	{r4, lr}
 80033a8:	f8d0 4810 	ldr.w	r4, [r0, #2064]	; 0x810
 80033ac:	f8d0 3834 	ldr.w	r3, [r0, #2100]	; 0x834
 80033b0:	eb00 1041 	add.w	r0, r0, r1, lsl #5
 80033b4:	f001 010f 	and.w	r1, r1, #15
 80033b8:	40cb      	lsrs	r3, r1
 80033ba:	f500 6010 	add.w	r0, r0, #2304	; 0x900
 80033be:	01db      	lsls	r3, r3, #7
 80033c0:	6880      	ldr	r0, [r0, #8]
 80033c2:	b2db      	uxtb	r3, r3
 80033c4:	4323      	orrs	r3, r4
 80033c6:	4018      	ands	r0, r3
 80033c8:	bd10      	pop	{r4, pc}

080033ca <USB_GetMode>:
 80033ca:	6940      	ldr	r0, [r0, #20]
 80033cc:	f000 0001 	and.w	r0, r0, #1
 80033d0:	4770      	bx	lr

080033d2 <USB_ActivateSetup>:
 80033d2:	f8d0 3900 	ldr.w	r3, [r0, #2304]	; 0x900
 80033d6:	f423 63ff 	bic.w	r3, r3, #2040	; 0x7f8
 80033da:	f023 0307 	bic.w	r3, r3, #7
 80033de:	f8c0 3900 	str.w	r3, [r0, #2304]	; 0x900
 80033e2:	f8d0 3804 	ldr.w	r3, [r0, #2052]	; 0x804
 80033e6:	f443 7380 	orr.w	r3, r3, #256	; 0x100
 80033ea:	f8c0 3804 	str.w	r3, [r0, #2052]	; 0x804
 80033ee:	2000      	movs	r0, #0
 80033f0:	4770      	bx	lr
	...

080033f4 <USB_EP0_OutStart>:
 80033f4:	b530      	push	{r4, r5, lr}
 80033f6:	6c05      	ldr	r5, [r0, #64]	; 0x40
 80033f8:	4c10      	ldr	r4, [pc, #64]	; (800343c <USB_EP0_OutStart+0x48>)
 80033fa:	42a5      	cmp	r5, r4
 80033fc:	f500 6330 	add.w	r3, r0, #2816	; 0xb00
 8003400:	d903      	bls.n	800340a <USB_EP0_OutStart+0x16>
 8003402:	f8d0 4b00 	ldr.w	r4, [r0, #2816]	; 0xb00
 8003406:	2c00      	cmp	r4, #0
 8003408:	db16      	blt.n	8003438 <USB_EP0_OutStart+0x44>
 800340a:	2400      	movs	r4, #0
 800340c:	611c      	str	r4, [r3, #16]
 800340e:	691c      	ldr	r4, [r3, #16]
 8003410:	f444 2400 	orr.w	r4, r4, #524288	; 0x80000
 8003414:	611c      	str	r4, [r3, #16]
 8003416:	691c      	ldr	r4, [r3, #16]
 8003418:	f044 0418 	orr.w	r4, r4, #24
 800341c:	611c      	str	r4, [r3, #16]
 800341e:	691c      	ldr	r4, [r3, #16]
 8003420:	2901      	cmp	r1, #1
 8003422:	f044 44c0 	orr.w	r4, r4, #1610612736	; 0x60000000
 8003426:	611c      	str	r4, [r3, #16]
 8003428:	bf01      	itttt	eq
 800342a:	615a      	streq	r2, [r3, #20]
 800342c:	f8d0 3b00 	ldreq.w	r3, [r0, #2816]	; 0xb00
 8003430:	f043 2380 	orreq.w	r3, r3, #2147516416	; 0x80008000
 8003434:	f8c0 3b00 	streq.w	r3, [r0, #2816]	; 0xb00
 8003438:	2000      	movs	r0, #0
 800343a:	bd30      	pop	{r4, r5, pc}
 800343c:	4f54300a 	.word	0x4f54300a

08003440 <MX_USB_DEVICE_Init>:
 8003440:	b508      	push	{r3, lr}
 8003442:	f000 fbeb 	bl	8003c1c <USBD_COMPOSITE_Mount_Class>
 8003446:	490f      	ldr	r1, [pc, #60]	; (8003484 <MX_USB_DEVICE_Init+0x44>)
 8003448:	480f      	ldr	r0, [pc, #60]	; (8003488 <MX_USB_DEVICE_Init+0x48>)
 800344a:	2200      	movs	r2, #0
 800344c:	f000 fc50 	bl	8003cf0 <USBD_Init>
 8003450:	b108      	cbz	r0, 8003456 <MX_USB_DEVICE_Init+0x16>
 8003452:	f7fd fbc1 	bl	8000bd8 <Error_Handler>
 8003456:	490d      	ldr	r1, [pc, #52]	; (800348c <MX_USB_DEVICE_Init+0x4c>)
 8003458:	480b      	ldr	r0, [pc, #44]	; (8003488 <MX_USB_DEVICE_Init+0x48>)
 800345a:	f000 fc5a 	bl	8003d12 <USBD_RegisterClass>
 800345e:	b108      	cbz	r0, 8003464 <MX_USB_DEVICE_Init+0x24>
 8003460:	f7fd fbba 	bl	8000bd8 <Error_Handler>
 8003464:	490a      	ldr	r1, [pc, #40]	; (8003490 <MX_USB_DEVICE_Init+0x50>)
 8003466:	4808      	ldr	r0, [pc, #32]	; (8003488 <MX_USB_DEVICE_Init+0x48>)
 8003468:	f000 faac 	bl	80039c4 <USBD_CDC_ACM_RegisterInterface>
 800346c:	b108      	cbz	r0, 8003472 <MX_USB_DEVICE_Init+0x32>
 800346e:	f7fd fbb3 	bl	8000bd8 <Error_Handler>
 8003472:	4805      	ldr	r0, [pc, #20]	; (8003488 <MX_USB_DEVICE_Init+0x48>)
 8003474:	f000 fc6d 	bl	8003d52 <USBD_Start>
 8003478:	b118      	cbz	r0, 8003482 <MX_USB_DEVICE_Init+0x42>
 800347a:	e8bd 4008 	ldmia.w	sp!, {r3, lr}
 800347e:	f7fd bbab 	b.w	8000bd8 <Error_Handler>
 8003482:	bd08      	pop	{r3, pc}
 8003484:	20000058 	.word	0x20000058
 8003488:	20000840 	.word	0x20000840
 800348c:	20000188 	.word	0x20000188
 8003490:	20000044 	.word	0x20000044

08003494 <CDC_DeInit>:
 8003494:	2000      	movs	r0, #0
 8003496:	4770      	bx	lr

08003498 <CDC_Control>:
 8003498:	2920      	cmp	r1, #32
 800349a:	d003      	beq.n	80034a4 <CDC_Control+0xc>
 800349c:	2921      	cmp	r1, #33	; 0x21
 800349e:	d00e      	beq.n	80034be <CDC_Control+0x26>
 80034a0:	2000      	movs	r0, #0
 80034a2:	4770      	bx	lr
 80034a4:	4b12      	ldr	r3, [pc, #72]	; (80034f0 <CDC_Control+0x58>)
 80034a6:	6811      	ldr	r1, [r2, #0]
 80034a8:	f843 1030 	str.w	r1, [r3, r0, lsl #3]
 80034ac:	eb03 03c0 	add.w	r3, r3, r0, lsl #3
 80034b0:	7911      	ldrb	r1, [r2, #4]
 80034b2:	7119      	strb	r1, [r3, #4]
 80034b4:	7951      	ldrb	r1, [r2, #5]
 80034b6:	7159      	strb	r1, [r3, #5]
 80034b8:	7992      	ldrb	r2, [r2, #6]
 80034ba:	719a      	strb	r2, [r3, #6]
 80034bc:	e7f0      	b.n	80034a0 <CDC_Control+0x8>
 80034be:	4b0c      	ldr	r3, [pc, #48]	; (80034f0 <CDC_Control+0x58>)
 80034c0:	f853 1030 	ldr.w	r1, [r3, r0, lsl #3]
 80034c4:	7011      	strb	r1, [r2, #0]
 80034c6:	f853 1030 	ldr.w	r1, [r3, r0, lsl #3]
 80034ca:	0a09      	lsrs	r1, r1, #8
 80034cc:	7051      	strb	r1, [r2, #1]
 80034ce:	f853 1030 	ldr.w	r1, [r3, r0, lsl #3]
 80034d2:	0c09      	lsrs	r1, r1, #16
 80034d4:	7091      	strb	r1, [r2, #2]
 80034d6:	f853 1030 	ldr.w	r1, [r3, r0, lsl #3]
 80034da:	eb03 03c0 	add.w	r3, r3, r0, lsl #3
 80034de:	0e09      	lsrs	r1, r1, #24
 80034e0:	70d1      	strb	r1, [r2, #3]
 80034e2:	7919      	ldrb	r1, [r3, #4]
 80034e4:	7111      	strb	r1, [r2, #4]
 80034e6:	7959      	ldrb	r1, [r3, #5]
 80034e8:	7151      	strb	r1, [r2, #5]
 80034ea:	799b      	ldrb	r3, [r3, #6]
 80034ec:	7193      	strb	r3, [r2, #6]
 80034ee:	e7d7      	b.n	80034a0 <CDC_Control+0x8>
 80034f0:	20000b5c 	.word	0x20000b5c

080034f4 <CDC_TransmitCplt>:
 80034f4:	2000      	movs	r0, #0
 80034f6:	4770      	bx	lr

080034f8 <CDC_Init>:
 80034f8:	b508      	push	{r3, lr}
 80034fa:	4a04      	ldr	r2, [pc, #16]	; (800350c <CDC_Init+0x14>)
 80034fc:	4904      	ldr	r1, [pc, #16]	; (8003510 <CDC_Init+0x18>)
 80034fe:	eb02 12c0 	add.w	r2, r2, r0, lsl #7
 8003502:	f000 fa75 	bl	80039f0 <USBD_CDC_SetRxBuffer>
 8003506:	2000      	movs	r0, #0
 8003508:	bd08      	pop	{r3, pc}
 800350a:	bf00      	nop
 800350c:	20000b64 	.word	0x20000b64
 8003510:	20000840 	.word	0x20000840

08003514 <CDC_Transmit>:
 8003514:	b538      	push	{r3, r4, r5, lr}
 8003516:	4613      	mov	r3, r2
 8003518:	4a0a      	ldr	r2, [pc, #40]	; (8003544 <CDC_Transmit+0x30>)
 800351a:	f44f 7507 	mov.w	r5, #540	; 0x21c
 800351e:	fb05 2200 	mla	r2, r5, r0, r2
 8003522:	4604      	mov	r4, r0
 8003524:	f8d2 2214 	ldr.w	r2, [r2, #532]	; 0x214
 8003528:	b94a      	cbnz	r2, 800353e <CDC_Transmit+0x2a>
 800352a:	460a      	mov	r2, r1
 800352c:	4906      	ldr	r1, [pc, #24]	; (8003548 <CDC_Transmit+0x34>)
 800352e:	f000 fa51 	bl	80039d4 <USBD_CDC_SetTxBuffer>
 8003532:	4620      	mov	r0, r4
 8003534:	4904      	ldr	r1, [pc, #16]	; (8003548 <CDC_Transmit+0x34>)
 8003536:	e8bd 4038 	ldmia.w	sp!, {r3, r4, r5, lr}
 800353a:	f000 ba65 	b.w	8003a08 <USBD_CDC_TransmitPacket>
 800353e:	2001      	movs	r0, #1
 8003540:	bd38      	pop	{r3, r4, r5, pc}
 8003542:	bf00      	nop
 8003544:	20000de4 	.word	0x20000de4
 8003548:	20000840 	.word	0x20000840

0800354c <CDC_Receive>:
 800354c:	b537      	push	{r0, r1, r2, r4, r5, lr}
 800354e:	780b      	ldrb	r3, [r1, #0]
 8003550:	2bff      	cmp	r3, #255	; 0xff
 8003552:	4605      	mov	r5, r0
 8003554:	460c      	mov	r4, r1
 8003556:	d104      	bne.n	8003562 <CDC_Receive+0x16>
 8003558:	784b      	ldrb	r3, [r1, #1]
 800355a:	2bf0      	cmp	r3, #240	; 0xf0
 800355c:	d10d      	bne.n	800357a <CDC_Receive+0x2e>
 800355e:	f7fd fb49 	bl	8000bf4 <slider_get_board_info>
 8003562:	4622      	mov	r2, r4
 8003564:	4915      	ldr	r1, [pc, #84]	; (80035bc <CDC_Receive+0x70>)
 8003566:	4628      	mov	r0, r5
 8003568:	f000 fa42 	bl	80039f0 <USBD_CDC_SetRxBuffer>
 800356c:	4913      	ldr	r1, [pc, #76]	; (80035bc <CDC_Receive+0x70>)
 800356e:	4628      	mov	r0, r5
 8003570:	f000 fa6e 	bl	8003a50 <USBD_CDC_ReceivePacket>
 8003574:	2000      	movs	r0, #0
 8003576:	b003      	add	sp, #12
 8003578:	bd30      	pop	{r4, r5, pc}
 800357a:	2b03      	cmp	r3, #3
 800357c:	d109      	bne.n	8003592 <CDC_Receive+0x46>
 800357e:	4b10      	ldr	r3, [pc, #64]	; (80035c0 <CDC_Receive+0x74>)
 8003580:	2201      	movs	r2, #1
 8003582:	701a      	strb	r2, [r3, #0]
 8003584:	2200      	movs	r2, #0
 8003586:	480f      	ldr	r0, [pc, #60]	; (80035c4 <CDC_Receive+0x78>)
 8003588:	f44f 5100 	mov.w	r1, #8192	; 0x2000
 800358c:	f7fd fdc0 	bl	8001110 <HAL_GPIO_WritePin>
 8003590:	e7e7      	b.n	8003562 <CDC_Receive+0x16>
 8003592:	2b04      	cmp	r3, #4
 8003594:	d104      	bne.n	80035a0 <CDC_Receive+0x54>
 8003596:	4b0a      	ldr	r3, [pc, #40]	; (80035c0 <CDC_Receive+0x74>)
 8003598:	2200      	movs	r2, #0
 800359a:	701a      	strb	r2, [r3, #0]
 800359c:	2201      	movs	r2, #1
 800359e:	e7f2      	b.n	8003586 <CDC_Receive+0x3a>
 80035a0:	2b10      	cmp	r3, #16
 80035a2:	d108      	bne.n	80035b6 <CDC_Receive+0x6a>
 80035a4:	2204      	movs	r2, #4
 80035a6:	4b08      	ldr	r3, [pc, #32]	; (80035c8 <CDC_Receive+0x7c>)
 80035a8:	9301      	str	r3, [sp, #4]
 80035aa:	eb0d 0102 	add.w	r1, sp, r2
 80035ae:	2000      	movs	r0, #0
 80035b0:	f7ff ffb0 	bl	8003514 <CDC_Transmit>
 80035b4:	e7d5      	b.n	8003562 <CDC_Receive+0x16>
 80035b6:	2b01      	cmp	r3, #1
 80035b8:	d1d3      	bne.n	8003562 <CDC_Receive+0x16>
 80035ba:	e7e0      	b.n	800357e <CDC_Receive+0x32>
 80035bc:	20000840 	.word	0x20000840
 80035c0:	20000329 	.word	0x20000329
 80035c4:	40020800 	.word	0x40020800
 80035c8:	f10010ff 	.word	0xf10010ff

080035cc <USBD_DeviceDescriptor>:
 80035cc:	2312      	movs	r3, #18
 80035ce:	4801      	ldr	r0, [pc, #4]	; (80035d4 <USBD_DeviceDescriptor+0x8>)
 80035d0:	800b      	strh	r3, [r1, #0]
 80035d2:	4770      	bx	lr
 80035d4:	20000074 	.word	0x20000074

080035d8 <USBD_LangIDStrDescriptor>:
 80035d8:	2304      	movs	r3, #4
 80035da:	4801      	ldr	r0, [pc, #4]	; (80035e0 <USBD_LangIDStrDescriptor+0x8>)
 80035dc:	800b      	strh	r3, [r1, #0]
 80035de:	4770      	bx	lr
 80035e0:	20000088 	.word	0x20000088

080035e4 <IntToUnicode>:
 80035e4:	2300      	movs	r3, #0
 80035e6:	b570      	push	{r4, r5, r6, lr}
 80035e8:	1c4d      	adds	r5, r1, #1
 80035ea:	461e      	mov	r6, r3
 80035ec:	0f04      	lsrs	r4, r0, #28
 80035ee:	f1b0 4f20 	cmp.w	r0, #2684354560	; 0xa0000000
 80035f2:	bf34      	ite	cc
 80035f4:	3430      	addcc	r4, #48	; 0x30
 80035f6:	3437      	addcs	r4, #55	; 0x37
 80035f8:	f801 4013 	strb.w	r4, [r1, r3, lsl #1]
 80035fc:	f805 6013 	strb.w	r6, [r5, r3, lsl #1]
 8003600:	3301      	adds	r3, #1
 8003602:	b2dc      	uxtb	r4, r3
 8003604:	42a2      	cmp	r2, r4
 8003606:	ea4f 1000 	mov.w	r0, r0, lsl #4
 800360a:	d8ef      	bhi.n	80035ec <IntToUnicode+0x8>
 800360c:	bd70      	pop	{r4, r5, r6, pc}
	...

08003610 <USBD_SerialStrDescriptor>:
 8003610:	231a      	movs	r3, #26
 8003612:	b510      	push	{r4, lr}
 8003614:	800b      	strh	r3, [r1, #0]
 8003616:	4b0a      	ldr	r3, [pc, #40]	; (8003640 <USBD_SerialStrDescriptor+0x30>)
 8003618:	f8d3 0a10 	ldr.w	r0, [r3, #2576]	; 0xa10
 800361c:	f8d3 2a18 	ldr.w	r2, [r3, #2584]	; 0xa18
 8003620:	1880      	adds	r0, r0, r2
 8003622:	d00a      	beq.n	800363a <USBD_SerialStrDescriptor+0x2a>
 8003624:	f8d3 4a14 	ldr.w	r4, [r3, #2580]	; 0xa14
 8003628:	4906      	ldr	r1, [pc, #24]	; (8003644 <USBD_SerialStrDescriptor+0x34>)
 800362a:	2208      	movs	r2, #8
 800362c:	f7ff ffda 	bl	80035e4 <IntToUnicode>
 8003630:	2204      	movs	r2, #4
 8003632:	3110      	adds	r1, #16
 8003634:	4620      	mov	r0, r4
 8003636:	f7ff ffd5 	bl	80035e4 <IntToUnicode>
 800363a:	4803      	ldr	r0, [pc, #12]	; (8003648 <USBD_SerialStrDescriptor+0x38>)
 800363c:	bd10      	pop	{r4, pc}
 800363e:	bf00      	nop
 8003640:	1fff7000 	.word	0x1fff7000
 8003644:	2000008e 	.word	0x2000008e
 8003648:	2000008c 	.word	0x2000008c

0800364c <USBD_ManufacturerStrDescriptor>:
 800364c:	b510      	push	{r4, lr}
 800364e:	4c04      	ldr	r4, [pc, #16]	; (8003660 <USBD_ManufacturerStrDescriptor+0x14>)
 8003650:	4804      	ldr	r0, [pc, #16]	; (8003664 <USBD_ManufacturerStrDescriptor+0x18>)
 8003652:	460a      	mov	r2, r1
 8003654:	4621      	mov	r1, r4
 8003656:	f000 fee5 	bl	8004424 <USBD_GetString>
 800365a:	4620      	mov	r0, r4
 800365c:	bd10      	pop	{r4, pc}
 800365e:	bf00      	nop
 8003660:	20000be4 	.word	0x20000be4
 8003664:	08006bb8 	.word	0x08006bb8

08003668 <USBD_ProductStrDescriptor>:
 8003668:	b510      	push	{r4, lr}
 800366a:	4c04      	ldr	r4, [pc, #16]	; (800367c <USBD_ProductStrDescriptor+0x14>)
 800366c:	4804      	ldr	r0, [pc, #16]	; (8003680 <USBD_ProductStrDescriptor+0x18>)
 800366e:	460a      	mov	r2, r1
 8003670:	4621      	mov	r1, r4
 8003672:	f000 fed7 	bl	8004424 <USBD_GetString>
 8003676:	4620      	mov	r0, r4
 8003678:	bd10      	pop	{r4, pc}
 800367a:	bf00      	nop
 800367c:	20000be4 	.word	0x20000be4
 8003680:	08006bcb 	.word	0x08006bcb

08003684 <USBD_ConfigStrDescriptor>:
 8003684:	b510      	push	{r4, lr}
 8003686:	4c04      	ldr	r4, [pc, #16]	; (8003698 <USBD_ConfigStrDescriptor+0x14>)
 8003688:	4804      	ldr	r0, [pc, #16]	; (800369c <USBD_ConfigStrDescriptor+0x18>)
 800368a:	460a      	mov	r2, r1
 800368c:	4621      	mov	r1, r4
 800368e:	f000 fec9 	bl	8004424 <USBD_GetString>
 8003692:	4620      	mov	r0, r4
 8003694:	bd10      	pop	{r4, pc}
 8003696:	bf00      	nop
 8003698:	20000be4 	.word	0x20000be4
 800369c:	08006be2 	.word	0x08006be2

080036a0 <USBD_InterfaceStrDescriptor>:
 80036a0:	b510      	push	{r4, lr}
 80036a2:	4c04      	ldr	r4, [pc, #16]	; (80036b4 <USBD_InterfaceStrDescriptor+0x14>)
 80036a4:	4804      	ldr	r0, [pc, #16]	; (80036b8 <USBD_InterfaceStrDescriptor+0x18>)
 80036a6:	460a      	mov	r2, r1
 80036a8:	4621      	mov	r1, r4
 80036aa:	f000 febb 	bl	8004424 <USBD_GetString>
 80036ae:	4620      	mov	r0, r4
 80036b0:	bd10      	pop	{r4, pc}
 80036b2:	bf00      	nop
 80036b4:	20000be4 	.word	0x20000be4
 80036b8:	08006bf2 	.word	0x08006bf2

080036bc <USBD_CDC_EP0_RxReady>:
 80036bc:	b538      	push	{r3, r4, r5, lr}
 80036be:	f8d0 32bc 	ldr.w	r3, [r0, #700]	; 0x2bc
 80036c2:	b16b      	cbz	r3, 80036e0 <USBD_CDC_EP0_RxReady+0x24>
 80036c4:	4c07      	ldr	r4, [pc, #28]	; (80036e4 <USBD_CDC_EP0_RxReady+0x28>)
 80036c6:	f894 1200 	ldrb.w	r1, [r4, #512]	; 0x200
 80036ca:	29ff      	cmp	r1, #255	; 0xff
 80036cc:	d008      	beq.n	80036e0 <USBD_CDC_EP0_RxReady+0x24>
 80036ce:	689d      	ldr	r5, [r3, #8]
 80036d0:	f894 3201 	ldrb.w	r3, [r4, #513]	; 0x201
 80036d4:	4622      	mov	r2, r4
 80036d6:	2000      	movs	r0, #0
 80036d8:	47a8      	blx	r5
 80036da:	23ff      	movs	r3, #255	; 0xff
 80036dc:	f884 3200 	strb.w	r3, [r4, #512]	; 0x200
 80036e0:	2000      	movs	r0, #0
 80036e2:	bd38      	pop	{r3, r4, r5, pc}
 80036e4:	20000de4 	.word	0x20000de4

080036e8 <USBD_CDC_GetFSCfgDesc>:
 80036e8:	234b      	movs	r3, #75	; 0x4b
 80036ea:	8003      	strh	r3, [r0, #0]
 80036ec:	4800      	ldr	r0, [pc, #0]	; (80036f0 <USBD_CDC_GetFSCfgDesc+0x8>)
 80036ee:	4770      	bx	lr
 80036f0:	200000e4 	.word	0x200000e4

080036f4 <USBD_CDC_GetHSCfgDesc>:
 80036f4:	234b      	movs	r3, #75	; 0x4b
 80036f6:	8003      	strh	r3, [r0, #0]
 80036f8:	4800      	ldr	r0, [pc, #0]	; (80036fc <USBD_CDC_GetHSCfgDesc+0x8>)
 80036fa:	4770      	bx	lr
 80036fc:	20000130 	.word	0x20000130

08003700 <USBD_CDC_GetDeviceQualifierDescriptor>:
 8003700:	230a      	movs	r3, #10
 8003702:	8003      	strh	r3, [r0, #0]
 8003704:	4800      	ldr	r0, [pc, #0]	; (8003708 <USBD_CDC_GetDeviceQualifierDescriptor+0x8>)
 8003706:	4770      	bx	lr
 8003708:	2000017c 	.word	0x2000017c

0800370c <USBD_CDC_DataOut>:
 800370c:	b510      	push	{r4, lr}
 800370e:	4604      	mov	r4, r0
 8003710:	f000 ff85 	bl	800461e <USBD_LL_GetRxDataSize>
 8003714:	4b06      	ldr	r3, [pc, #24]	; (8003730 <USBD_CDC_DataOut+0x24>)
 8003716:	f8d4 22bc 	ldr.w	r2, [r4, #700]	; 0x2bc
 800371a:	f8c3 020c 	str.w	r0, [r3, #524]	; 0x20c
 800371e:	68d4      	ldr	r4, [r2, #12]
 8003720:	f8d3 1204 	ldr.w	r1, [r3, #516]	; 0x204
 8003724:	f503 7203 	add.w	r2, r3, #524	; 0x20c
 8003728:	2000      	movs	r0, #0
 800372a:	47a0      	blx	r4
 800372c:	2000      	movs	r0, #0
 800372e:	bd10      	pop	{r4, pc}
 8003730:	20000de4 	.word	0x20000de4

08003734 <USBD_CDC_DataIn>:
 8003734:	b5f8      	push	{r3, r4, r5, r6, r7, lr}
 8003736:	2514      	movs	r5, #20
 8003738:	fb05 0501 	mla	r5, r5, r1, r0
 800373c:	4604      	mov	r4, r0
 800373e:	69aa      	ldr	r2, [r5, #24]
 8003740:	460b      	mov	r3, r1
 8003742:	b182      	cbz	r2, 8003766 <USBD_CDC_DataIn+0x32>
 8003744:	f8d0 6310 	ldr.w	r6, [r0, #784]	; 0x310
 8003748:	2724      	movs	r7, #36	; 0x24
 800374a:	fb07 6601 	mla	r6, r7, r1, r6
 800374e:	6cb6      	ldr	r6, [r6, #72]	; 0x48
 8003750:	fbb2 f7f6 	udiv	r7, r2, r6
 8003754:	fb06 2217 	mls	r2, r6, r7, r2
 8003758:	b92a      	cbnz	r2, 8003766 <USBD_CDC_DataIn+0x32>
 800375a:	61aa      	str	r2, [r5, #24]
 800375c:	4613      	mov	r3, r2
 800375e:	f000 ffa4 	bl	80046aa <USBD_LL_Transmit>
 8003762:	2000      	movs	r0, #0
 8003764:	bdf8      	pop	{r3, r4, r5, r6, r7, pc}
 8003766:	f8d4 22bc 	ldr.w	r2, [r4, #700]	; 0x2bc
 800376a:	4906      	ldr	r1, [pc, #24]	; (8003784 <USBD_CDC_DataIn+0x50>)
 800376c:	6914      	ldr	r4, [r2, #16]
 800376e:	2000      	movs	r0, #0
 8003770:	f8c1 0214 	str.w	r0, [r1, #532]	; 0x214
 8003774:	2c00      	cmp	r4, #0
 8003776:	d0f4      	beq.n	8003762 <USBD_CDC_DataIn+0x2e>
 8003778:	f501 7204 	add.w	r2, r1, #528	; 0x210
 800377c:	f8d1 1208 	ldr.w	r1, [r1, #520]	; 0x208
 8003780:	47a0      	blx	r4
 8003782:	e7ee      	b.n	8003762 <USBD_CDC_DataIn+0x2e>
 8003784:	20000de4 	.word	0x20000de4

08003788 <USBD_CDC_Setup>:
 8003788:	e92d 41f3 	stmdb	sp!, {r0, r1, r4, r5, r6, r7, r8, lr}
 800378c:	780b      	ldrb	r3, [r1, #0]
 800378e:	2700      	movs	r7, #0
 8003790:	f013 0460 	ands.w	r4, r3, #96	; 0x60
 8003794:	4605      	mov	r5, r0
 8003796:	460e      	mov	r6, r1
 8003798:	f88d 7005 	strb.w	r7, [sp, #5]
 800379c:	f8ad 7006 	strh.w	r7, [sp, #6]
 80037a0:	d02d      	beq.n	80037fe <USBD_CDC_Setup+0x76>
 80037a2:	2c20      	cmp	r4, #32
 80037a4:	d160      	bne.n	8003868 <USBD_CDC_Setup+0xe0>
 80037a6:	88cc      	ldrh	r4, [r1, #6]
 80037a8:	7849      	ldrb	r1, [r1, #1]
 80037aa:	b1ec      	cbz	r4, 80037e8 <USBD_CDC_Setup+0x60>
 80037ac:	061b      	lsls	r3, r3, #24
 80037ae:	d510      	bpl.n	80037d2 <USBD_CDC_Setup+0x4a>
 80037b0:	f8d0 32bc 	ldr.w	r3, [r0, #700]	; 0x2bc
 80037b4:	4a2f      	ldr	r2, [pc, #188]	; (8003874 <USBD_CDC_Setup+0xec>)
 80037b6:	f8d3 8008 	ldr.w	r8, [r3, #8]
 80037ba:	4638      	mov	r0, r7
 80037bc:	4623      	mov	r3, r4
 80037be:	47c0      	blx	r8
 80037c0:	88f2      	ldrh	r2, [r6, #6]
 80037c2:	492c      	ldr	r1, [pc, #176]	; (8003874 <USBD_CDC_Setup+0xec>)
 80037c4:	2a07      	cmp	r2, #7
 80037c6:	bf28      	it	cs
 80037c8:	2207      	movcs	r2, #7
 80037ca:	4628      	mov	r0, r5
 80037cc:	f000 fe46 	bl	800445c <USBD_CtlSendData>
 80037d0:	e008      	b.n	80037e4 <USBD_CDC_Setup+0x5c>
 80037d2:	4b28      	ldr	r3, [pc, #160]	; (8003874 <USBD_CDC_Setup+0xec>)
 80037d4:	4622      	mov	r2, r4
 80037d6:	f883 1200 	strb.w	r1, [r3, #512]	; 0x200
 80037da:	f883 4201 	strb.w	r4, [r3, #513]	; 0x201
 80037de:	4619      	mov	r1, r3
 80037e0:	f000 fe51 	bl	8004486 <USBD_CtlPrepareRx>
 80037e4:	463c      	mov	r4, r7
 80037e6:	e006      	b.n	80037f6 <USBD_CDC_Setup+0x6e>
 80037e8:	f8d0 32bc 	ldr.w	r3, [r0, #700]	; 0x2bc
 80037ec:	4632      	mov	r2, r6
 80037ee:	689d      	ldr	r5, [r3, #8]
 80037f0:	4620      	mov	r0, r4
 80037f2:	4623      	mov	r3, r4
 80037f4:	47a8      	blx	r5
 80037f6:	4620      	mov	r0, r4
 80037f8:	b002      	add	sp, #8
 80037fa:	e8bd 81f0 	ldmia.w	sp!, {r4, r5, r6, r7, r8, pc}
 80037fe:	784f      	ldrb	r7, [r1, #1]
 8003800:	2f0b      	cmp	r7, #11
 8003802:	d831      	bhi.n	8003868 <USBD_CDC_Setup+0xe0>
 8003804:	a301      	add	r3, pc, #4	; (adr r3, 800380c <USBD_CDC_Setup+0x84>)
 8003806:	f853 f027 	ldr.w	pc, [r3, r7, lsl #2]
 800380a:	bf00      	nop
 800380c:	0800383d 	.word	0x0800383d
 8003810:	080037f7 	.word	0x080037f7
 8003814:	08003869 	.word	0x08003869
 8003818:	08003869 	.word	0x08003869
 800381c:	08003869 	.word	0x08003869
 8003820:	08003869 	.word	0x08003869
 8003824:	08003869 	.word	0x08003869
 8003828:	08003869 	.word	0x08003869
 800382c:	08003869 	.word	0x08003869
 8003830:	08003869 	.word	0x08003869
 8003834:	0800384d 	.word	0x0800384d
 8003838:	08003861 	.word	0x08003861
 800383c:	f890 329c 	ldrb.w	r3, [r0, #668]	; 0x29c
 8003840:	2b03      	cmp	r3, #3
 8003842:	d111      	bne.n	8003868 <USBD_CDC_Setup+0xe0>
 8003844:	2202      	movs	r2, #2
 8003846:	f10d 0106 	add.w	r1, sp, #6
 800384a:	e7be      	b.n	80037ca <USBD_CDC_Setup+0x42>
 800384c:	f890 329c 	ldrb.w	r3, [r0, #668]	; 0x29c
 8003850:	2b03      	cmp	r3, #3
 8003852:	d109      	bne.n	8003868 <USBD_CDC_Setup+0xe0>
 8003854:	2201      	movs	r2, #1
 8003856:	f10d 0105 	add.w	r1, sp, #5
 800385a:	f000 fdff 	bl	800445c <USBD_CtlSendData>
 800385e:	e7ca      	b.n	80037f6 <USBD_CDC_Setup+0x6e>
 8003860:	f890 329c 	ldrb.w	r3, [r0, #668]	; 0x29c
 8003864:	2b03      	cmp	r3, #3
 8003866:	d0c6      	beq.n	80037f6 <USBD_CDC_Setup+0x6e>
 8003868:	4631      	mov	r1, r6
 800386a:	4628      	mov	r0, r5
 800386c:	f000 fdcf 	bl	800440e <USBD_CtlError>
 8003870:	2403      	movs	r4, #3
 8003872:	e7c0      	b.n	80037f6 <USBD_CDC_Setup+0x6e>
 8003874:	20000de4 	.word	0x20000de4

08003878 <USBD_CDC_DeInit>:
 8003878:	b5f8      	push	{r3, r4, r5, r6, r7, lr}
 800387a:	4d15      	ldr	r5, [pc, #84]	; (80038d0 <USBD_CDC_DeInit+0x58>)
 800387c:	4f15      	ldr	r7, [pc, #84]	; (80038d4 <USBD_CDC_DeInit+0x5c>)
 800387e:	7829      	ldrb	r1, [r5, #0]
 8003880:	4604      	mov	r4, r0
 8003882:	f000 feee 	bl	8004662 <USBD_LL_CloseEP>
 8003886:	782a      	ldrb	r2, [r5, #0]
 8003888:	7839      	ldrb	r1, [r7, #0]
 800388a:	2614      	movs	r6, #20
 800388c:	f002 020f 	and.w	r2, r2, #15
 8003890:	fb06 4202 	mla	r2, r6, r2, r4
 8003894:	2500      	movs	r5, #0
 8003896:	8495      	strh	r5, [r2, #36]	; 0x24
 8003898:	4620      	mov	r0, r4
 800389a:	f000 fee2 	bl	8004662 <USBD_LL_CloseEP>
 800389e:	783a      	ldrb	r2, [r7, #0]
 80038a0:	4f0d      	ldr	r7, [pc, #52]	; (80038d8 <USBD_CDC_DeInit+0x60>)
 80038a2:	f002 020f 	and.w	r2, r2, #15
 80038a6:	fb06 4202 	mla	r2, r6, r2, r4
 80038aa:	7839      	ldrb	r1, [r7, #0]
 80038ac:	f8a2 5164 	strh.w	r5, [r2, #356]	; 0x164
 80038b0:	4620      	mov	r0, r4
 80038b2:	f000 fed6 	bl	8004662 <USBD_LL_CloseEP>
 80038b6:	783b      	ldrb	r3, [r7, #0]
 80038b8:	f003 030f 	and.w	r3, r3, #15
 80038bc:	fb06 4303 	mla	r3, r6, r3, r4
 80038c0:	4628      	mov	r0, r5
 80038c2:	625d      	str	r5, [r3, #36]	; 0x24
 80038c4:	f8d4 32bc 	ldr.w	r3, [r4, #700]	; 0x2bc
 80038c8:	685b      	ldr	r3, [r3, #4]
 80038ca:	4798      	blx	r3
 80038cc:	4628      	mov	r0, r5
 80038ce:	bdf8      	pop	{r3, r4, r5, r6, r7, pc}
 80038d0:	20001003 	.word	0x20001003
 80038d4:	20001004 	.word	0x20001004
 80038d8:	20001000 	.word	0x20001000

080038dc <USBD_CDC_Init>:
 80038dc:	e92d 41f0 	stmdb	sp!, {r4, r5, r6, r7, r8, lr}
 80038e0:	4f31      	ldr	r7, [pc, #196]	; (80039a8 <USBD_CDC_Init+0xcc>)
 80038e2:	7c03      	ldrb	r3, [r0, #16]
 80038e4:	7839      	ldrb	r1, [r7, #0]
 80038e6:	4d31      	ldr	r5, [pc, #196]	; (80039ac <USBD_CDC_Init+0xd0>)
 80038e8:	4e31      	ldr	r6, [pc, #196]	; (80039b0 <USBD_CDC_Init+0xd4>)
 80038ea:	4604      	mov	r4, r0
 80038ec:	2b00      	cmp	r3, #0
 80038ee:	d149      	bne.n	8003984 <USBD_CDC_Init+0xa8>
 80038f0:	f44f 7300 	mov.w	r3, #512	; 0x200
 80038f4:	2202      	movs	r2, #2
 80038f6:	f000 fea8 	bl	800464a <USBD_LL_OpenEP>
 80038fa:	783b      	ldrb	r3, [r7, #0]
 80038fc:	2714      	movs	r7, #20
 80038fe:	f003 030f 	and.w	r3, r3, #15
 8003902:	fb07 4303 	mla	r3, r7, r3, r4
 8003906:	f04f 0801 	mov.w	r8, #1
 800390a:	f8a3 8024 	strh.w	r8, [r3, #36]	; 0x24
 800390e:	f44f 7300 	mov.w	r3, #512	; 0x200
 8003912:	7829      	ldrb	r1, [r5, #0]
 8003914:	2202      	movs	r2, #2
 8003916:	4620      	mov	r0, r4
 8003918:	f000 fe97 	bl	800464a <USBD_LL_OpenEP>
 800391c:	782b      	ldrb	r3, [r5, #0]
 800391e:	f003 030f 	and.w	r3, r3, #15
 8003922:	fb07 4303 	mla	r3, r7, r3, r4
 8003926:	2210      	movs	r2, #16
 8003928:	f8a3 8164 	strh.w	r8, [r3, #356]	; 0x164
 800392c:	7833      	ldrb	r3, [r6, #0]
 800392e:	f003 030f 	and.w	r3, r3, #15
 8003932:	fb07 4303 	mla	r3, r7, r3, r4
 8003936:	4620      	mov	r0, r4
 8003938:	84da      	strh	r2, [r3, #38]	; 0x26
 800393a:	7831      	ldrb	r1, [r6, #0]
 800393c:	2308      	movs	r3, #8
 800393e:	2203      	movs	r2, #3
 8003940:	f000 fe83 	bl	800464a <USBD_LL_OpenEP>
 8003944:	7833      	ldrb	r3, [r6, #0]
 8003946:	2214      	movs	r2, #20
 8003948:	f003 030f 	and.w	r3, r3, #15
 800394c:	fb02 4303 	mla	r3, r2, r3, r4
 8003950:	2201      	movs	r2, #1
 8003952:	849a      	strh	r2, [r3, #36]	; 0x24
 8003954:	f8d4 32bc 	ldr.w	r3, [r4, #700]	; 0x2bc
 8003958:	2000      	movs	r0, #0
 800395a:	681b      	ldr	r3, [r3, #0]
 800395c:	4798      	blx	r3
 800395e:	4a15      	ldr	r2, [pc, #84]	; (80039b4 <USBD_CDC_Init+0xd8>)
 8003960:	2300      	movs	r3, #0
 8003962:	f8c2 3214 	str.w	r3, [r2, #532]	; 0x214
 8003966:	f8c2 3218 	str.w	r3, [r2, #536]	; 0x218
 800396a:	7c23      	ldrb	r3, [r4, #16]
 800396c:	b9d3      	cbnz	r3, 80039a4 <USBD_CDC_Init+0xc8>
 800396e:	f44f 7300 	mov.w	r3, #512	; 0x200
 8003972:	f8d2 2204 	ldr.w	r2, [r2, #516]	; 0x204
 8003976:	7829      	ldrb	r1, [r5, #0]
 8003978:	4620      	mov	r0, r4
 800397a:	f000 fe9f 	bl	80046bc <USBD_LL_PrepareReceive>
 800397e:	2000      	movs	r0, #0
 8003980:	e8bd 81f0 	ldmia.w	sp!, {r4, r5, r6, r7, r8, pc}
 8003984:	2340      	movs	r3, #64	; 0x40
 8003986:	2202      	movs	r2, #2
 8003988:	f000 fe5f 	bl	800464a <USBD_LL_OpenEP>
 800398c:	783b      	ldrb	r3, [r7, #0]
 800398e:	2714      	movs	r7, #20
 8003990:	f003 030f 	and.w	r3, r3, #15
 8003994:	fb07 4303 	mla	r3, r7, r3, r4
 8003998:	f04f 0801 	mov.w	r8, #1
 800399c:	f8a3 8024 	strh.w	r8, [r3, #36]	; 0x24
 80039a0:	2340      	movs	r3, #64	; 0x40
 80039a2:	e7b6      	b.n	8003912 <USBD_CDC_Init+0x36>
 80039a4:	2340      	movs	r3, #64	; 0x40
 80039a6:	e7e4      	b.n	8003972 <USBD_CDC_Init+0x96>
 80039a8:	20001003 	.word	0x20001003
 80039ac:	20001004 	.word	0x20001004
 80039b0:	20001000 	.word	0x20001000
 80039b4:	20000de4 	.word	0x20000de4

080039b8 <USBD_CDC_GetOtherSpeedCfgDesc>:
 80039b8:	234b      	movs	r3, #75	; 0x4b
 80039ba:	8003      	strh	r3, [r0, #0]
 80039bc:	4800      	ldr	r0, [pc, #0]	; (80039c0 <USBD_CDC_GetOtherSpeedCfgDesc+0x8>)
 80039be:	4770      	bx	lr
 80039c0:	200000e4 	.word	0x200000e4

080039c4 <USBD_CDC_ACM_RegisterInterface>:
 80039c4:	b119      	cbz	r1, 80039ce <USBD_CDC_ACM_RegisterInterface+0xa>
 80039c6:	f8c0 12bc 	str.w	r1, [r0, #700]	; 0x2bc
 80039ca:	2000      	movs	r0, #0
 80039cc:	4770      	bx	lr
 80039ce:	2003      	movs	r0, #3
 80039d0:	4770      	bx	lr
	...

080039d4 <USBD_CDC_SetTxBuffer>:
 80039d4:	b510      	push	{r4, lr}
 80039d6:	4905      	ldr	r1, [pc, #20]	; (80039ec <USBD_CDC_SetTxBuffer+0x18>)
 80039d8:	f44f 7407 	mov.w	r4, #540	; 0x21c
 80039dc:	fb04 1000 	mla	r0, r4, r0, r1
 80039e0:	f8c0 2208 	str.w	r2, [r0, #520]	; 0x208
 80039e4:	f8c0 3210 	str.w	r3, [r0, #528]	; 0x210
 80039e8:	2000      	movs	r0, #0
 80039ea:	bd10      	pop	{r4, pc}
 80039ec:	20000de4 	.word	0x20000de4

080039f0 <USBD_CDC_SetRxBuffer>:
 80039f0:	4b04      	ldr	r3, [pc, #16]	; (8003a04 <USBD_CDC_SetRxBuffer+0x14>)
 80039f2:	f44f 7107 	mov.w	r1, #540	; 0x21c
 80039f6:	fb01 3000 	mla	r0, r1, r0, r3
 80039fa:	f8c0 2204 	str.w	r2, [r0, #516]	; 0x204
 80039fe:	2000      	movs	r0, #0
 8003a00:	4770      	bx	lr
 8003a02:	bf00      	nop
 8003a04:	20000de4 	.word	0x20000de4

08003a08 <USBD_CDC_TransmitPacket>:
 8003a08:	4a0f      	ldr	r2, [pc, #60]	; (8003a48 <USBD_CDC_TransmitPacket+0x40>)
 8003a0a:	b570      	push	{r4, r5, r6, lr}
 8003a0c:	f44f 7307 	mov.w	r3, #540	; 0x21c
 8003a10:	4604      	mov	r4, r0
 8003a12:	fb03 2204 	mla	r2, r3, r4, r2
 8003a16:	4608      	mov	r0, r1
 8003a18:	f8d2 5214 	ldr.w	r5, [r2, #532]	; 0x214
 8003a1c:	2301      	movs	r3, #1
 8003a1e:	b98d      	cbnz	r5, 8003a44 <USBD_CDC_TransmitPacket+0x3c>
 8003a20:	f8c2 3214 	str.w	r3, [r2, #532]	; 0x214
 8003a24:	4b09      	ldr	r3, [pc, #36]	; (8003a4c <USBD_CDC_TransmitPacket+0x44>)
 8003a26:	5d19      	ldrb	r1, [r3, r4]
 8003a28:	f8d2 3210 	ldr.w	r3, [r2, #528]	; 0x210
 8003a2c:	f8d2 2208 	ldr.w	r2, [r2, #520]	; 0x208
 8003a30:	f001 040f 	and.w	r4, r1, #15
 8003a34:	2614      	movs	r6, #20
 8003a36:	fb06 0404 	mla	r4, r6, r4, r0
 8003a3a:	61a3      	str	r3, [r4, #24]
 8003a3c:	f000 fe35 	bl	80046aa <USBD_LL_Transmit>
 8003a40:	4628      	mov	r0, r5
 8003a42:	bd70      	pop	{r4, r5, r6, pc}
 8003a44:	4618      	mov	r0, r3
 8003a46:	e7fc      	b.n	8003a42 <USBD_CDC_TransmitPacket+0x3a>
 8003a48:	20000de4 	.word	0x20000de4
 8003a4c:	20001003 	.word	0x20001003

08003a50 <USBD_CDC_ReceivePacket>:
 8003a50:	b510      	push	{r4, lr}
 8003a52:	4603      	mov	r3, r0
 8003a54:	4a09      	ldr	r2, [pc, #36]	; (8003a7c <USBD_CDC_ReceivePacket+0x2c>)
 8003a56:	4608      	mov	r0, r1
 8003a58:	5cd1      	ldrb	r1, [r2, r3]
 8003a5a:	4a09      	ldr	r2, [pc, #36]	; (8003a80 <USBD_CDC_ReceivePacket+0x30>)
 8003a5c:	f44f 7407 	mov.w	r4, #540	; 0x21c
 8003a60:	fb04 2303 	mla	r3, r4, r3, r2
 8003a64:	f8d3 2204 	ldr.w	r2, [r3, #516]	; 0x204
 8003a68:	7c03      	ldrb	r3, [r0, #16]
 8003a6a:	b92b      	cbnz	r3, 8003a78 <USBD_CDC_ReceivePacket+0x28>
 8003a6c:	f44f 7300 	mov.w	r3, #512	; 0x200
 8003a70:	f000 fe24 	bl	80046bc <USBD_LL_PrepareReceive>
 8003a74:	2000      	movs	r0, #0
 8003a76:	bd10      	pop	{r4, pc}
 8003a78:	2340      	movs	r3, #64	; 0x40
 8003a7a:	e7f9      	b.n	8003a70 <USBD_CDC_ReceivePacket+0x20>
 8003a7c:	20001004 	.word	0x20001004
 8003a80:	20000de4 	.word	0x20000de4

08003a84 <USBD_Update_CDC_ACM_DESC>:
 8003a84:	b570      	push	{r4, r5, r6, lr}
 8003a86:	f89d 5010 	ldrb.w	r5, [sp, #16]
 8003a8a:	f89d 6014 	ldrb.w	r6, [sp, #20]
 8003a8e:	f89d 4018 	ldrb.w	r4, [sp, #24]
 8003a92:	f880 3046 	strb.w	r3, [r0, #70]	; 0x46
 8003a96:	72c1      	strb	r1, [r0, #11]
 8003a98:	7644      	strb	r4, [r0, #25]
 8003a9a:	74c1      	strb	r1, [r0, #19]
 8003a9c:	f880 2023 	strb.w	r2, [r0, #35]	; 0x23
 8003aa0:	f880 102b 	strb.w	r1, [r0, #43]	; 0x2b
 8003aa4:	f880 202c 	strb.w	r2, [r0, #44]	; 0x2c
 8003aa8:	f880 502f 	strb.w	r5, [r0, #47]	; 0x2f
 8003aac:	f880 2036 	strb.w	r2, [r0, #54]	; 0x36
 8003ab0:	f880 603f 	strb.w	r6, [r0, #63]	; 0x3f
 8003ab4:	4806      	ldr	r0, [pc, #24]	; (8003ad0 <USBD_Update_CDC_ACM_DESC+0x4c>)
 8003ab6:	7003      	strb	r3, [r0, #0]
 8003ab8:	4b06      	ldr	r3, [pc, #24]	; (8003ad4 <USBD_Update_CDC_ACM_DESC+0x50>)
 8003aba:	701e      	strb	r6, [r3, #0]
 8003abc:	4b06      	ldr	r3, [pc, #24]	; (8003ad8 <USBD_Update_CDC_ACM_DESC+0x54>)
 8003abe:	701d      	strb	r5, [r3, #0]
 8003ac0:	4b06      	ldr	r3, [pc, #24]	; (8003adc <USBD_Update_CDC_ACM_DESC+0x58>)
 8003ac2:	7019      	strb	r1, [r3, #0]
 8003ac4:	4b06      	ldr	r3, [pc, #24]	; (8003ae0 <USBD_Update_CDC_ACM_DESC+0x5c>)
 8003ac6:	701a      	strb	r2, [r3, #0]
 8003ac8:	4b06      	ldr	r3, [pc, #24]	; (8003ae4 <USBD_Update_CDC_ACM_DESC+0x60>)
 8003aca:	701c      	strb	r4, [r3, #0]
 8003acc:	bd70      	pop	{r4, r5, r6, pc}
 8003ace:	bf00      	nop
 8003ad0:	20001003 	.word	0x20001003
 8003ad4:	20001004 	.word	0x20001004
 8003ad8:	20001000 	.word	0x20001000
 8003adc:	20001001 	.word	0x20001001
 8003ae0:	20001002 	.word	0x20001002
 8003ae4:	20001005 	.word	0x20001005

08003ae8 <USBD_COMPOSITE_Init>:
 8003ae8:	b508      	push	{r3, lr}
 8003aea:	4b02      	ldr	r3, [pc, #8]	; (8003af4 <USBD_COMPOSITE_Init+0xc>)
 8003aec:	681b      	ldr	r3, [r3, #0]
 8003aee:	4798      	blx	r3
 8003af0:	2000      	movs	r0, #0
 8003af2:	bd08      	pop	{r3, pc}
 8003af4:	200000a8 	.word	0x200000a8

08003af8 <USBD_COMPOSITE_DeInit>:
 8003af8:	b508      	push	{r3, lr}
 8003afa:	4b02      	ldr	r3, [pc, #8]	; (8003b04 <USBD_COMPOSITE_DeInit+0xc>)
 8003afc:	685b      	ldr	r3, [r3, #4]
 8003afe:	4798      	blx	r3
 8003b00:	2000      	movs	r0, #0
 8003b02:	bd08      	pop	{r3, pc}
 8003b04:	200000a8 	.word	0x200000a8

08003b08 <USBD_COMPOSITE_EP0_RxReady>:
 8003b08:	b508      	push	{r3, lr}
 8003b0a:	4b02      	ldr	r3, [pc, #8]	; (8003b14 <USBD_COMPOSITE_EP0_RxReady+0xc>)
 8003b0c:	691b      	ldr	r3, [r3, #16]
 8003b0e:	4798      	blx	r3
 8003b10:	2000      	movs	r0, #0
 8003b12:	bd08      	pop	{r3, pc}
 8003b14:	200000a8 	.word	0x200000a8

08003b18 <USBD_COMPOSITE_EP0_TxReady>:
 8003b18:	2000      	movs	r0, #0
 8003b1a:	4770      	bx	lr

08003b1c <USBD_COMPOSITE_IsoINIncomplete>:
 8003b1c:	2000      	movs	r0, #0
 8003b1e:	4770      	bx	lr

08003b20 <USBD_COMPOSITE_GetHSCfgDesc>:
 8003b20:	234b      	movs	r3, #75	; 0x4b
 8003b22:	8003      	strh	r3, [r0, #0]
 8003b24:	4800      	ldr	r0, [pc, #0]	; (8003b28 <USBD_COMPOSITE_GetHSCfgDesc+0x8>)
 8003b26:	4770      	bx	lr
 8003b28:	20001054 	.word	0x20001054

08003b2c <USBD_COMPOSITE_GetFSCfgDesc>:
 8003b2c:	234b      	movs	r3, #75	; 0x4b
 8003b2e:	8003      	strh	r3, [r0, #0]
 8003b30:	4800      	ldr	r0, [pc, #0]	; (8003b34 <USBD_COMPOSITE_GetFSCfgDesc+0x8>)
 8003b32:	4770      	bx	lr
 8003b34:	20001006 	.word	0x20001006

08003b38 <USBD_COMPOSITE_GetDeviceQualifierDesc>:
 8003b38:	230a      	movs	r3, #10
 8003b3a:	8003      	strh	r3, [r0, #0]
 8003b3c:	4800      	ldr	r0, [pc, #0]	; (8003b40 <USBD_COMPOSITE_GetDeviceQualifierDesc+0x8>)
 8003b3e:	4770      	bx	lr
 8003b40:	200001c4 	.word	0x200001c4

08003b44 <USBD_COMPOSITE_GetUsrStringDesc>:
 8003b44:	b51f      	push	{r0, r1, r2, r3, r4, lr}
 8003b46:	4b0f      	ldr	r3, [pc, #60]	; (8003b84 <USBD_COMPOSITE_GetUsrStringDesc+0x40>)
 8003b48:	781b      	ldrb	r3, [r3, #0]
 8003b4a:	428b      	cmp	r3, r1
 8003b4c:	4614      	mov	r4, r2
 8003b4e:	f04f 0300 	mov.w	r3, #0
 8003b52:	d314      	bcc.n	8003b7e <USBD_COMPOSITE_GetUsrStringDesc+0x3a>
 8003b54:	4a0c      	ldr	r2, [pc, #48]	; (8003b88 <USBD_COMPOSITE_GetUsrStringDesc+0x44>)
 8003b56:	7812      	ldrb	r2, [r2, #0]
 8003b58:	428a      	cmp	r2, r1
 8003b5a:	e9cd 3300 	strd	r3, r3, [sp]
 8003b5e:	e9cd 3302 	strd	r3, r3, [sp, #8]
 8003b62:	d109      	bne.n	8003b78 <USBD_COMPOSITE_GetUsrStringDesc+0x34>
 8003b64:	4a09      	ldr	r2, [pc, #36]	; (8003b8c <USBD_COMPOSITE_GetUsrStringDesc+0x48>)
 8003b66:	2110      	movs	r1, #16
 8003b68:	4668      	mov	r0, sp
 8003b6a:	f002 fb09 	bl	8006180 <sniprintf>
 8003b6e:	4908      	ldr	r1, [pc, #32]	; (8003b90 <USBD_COMPOSITE_GetUsrStringDesc+0x4c>)
 8003b70:	4622      	mov	r2, r4
 8003b72:	4668      	mov	r0, sp
 8003b74:	f000 fc56 	bl	8004424 <USBD_GetString>
 8003b78:	4805      	ldr	r0, [pc, #20]	; (8003b90 <USBD_COMPOSITE_GetUsrStringDesc+0x4c>)
 8003b7a:	b004      	add	sp, #16
 8003b7c:	bd10      	pop	{r4, pc}
 8003b7e:	4618      	mov	r0, r3
 8003b80:	e7fb      	b.n	8003b7a <USBD_COMPOSITE_GetUsrStringDesc+0x36>
 8003b82:	bf00      	nop
 8003b84:	200001ce 	.word	0x200001ce
 8003b88:	20001005 	.word	0x20001005
 8003b8c:	08006c06 	.word	0x08006c06
 8003b90:	2000109f 	.word	0x2000109f

08003b94 <USBD_COMPOSITE_Setup>:
 8003b94:	4a06      	ldr	r2, [pc, #24]	; (8003bb0 <USBD_COMPOSITE_Setup+0x1c>)
 8003b96:	790b      	ldrb	r3, [r1, #4]
 8003b98:	7812      	ldrb	r2, [r2, #0]
 8003b9a:	429a      	cmp	r2, r3
 8003b9c:	d003      	beq.n	8003ba6 <USBD_COMPOSITE_Setup+0x12>
 8003b9e:	4a05      	ldr	r2, [pc, #20]	; (8003bb4 <USBD_COMPOSITE_Setup+0x20>)
 8003ba0:	7812      	ldrb	r2, [r2, #0]
 8003ba2:	429a      	cmp	r2, r3
 8003ba4:	d102      	bne.n	8003bac <USBD_COMPOSITE_Setup+0x18>
 8003ba6:	4b04      	ldr	r3, [pc, #16]	; (8003bb8 <USBD_COMPOSITE_Setup+0x24>)
 8003ba8:	689b      	ldr	r3, [r3, #8]
 8003baa:	4718      	bx	r3
 8003bac:	2003      	movs	r0, #3
 8003bae:	4770      	bx	lr
 8003bb0:	20001001 	.word	0x20001001
 8003bb4:	20001002 	.word	0x20001002
 8003bb8:	200000a8 	.word	0x200000a8

08003bbc <USBD_COMPOSITE_DataIn>:
 8003bbc:	4b08      	ldr	r3, [pc, #32]	; (8003be0 <USBD_COMPOSITE_DataIn+0x24>)
 8003bbe:	781b      	ldrb	r3, [r3, #0]
 8003bc0:	f003 037f 	and.w	r3, r3, #127	; 0x7f
 8003bc4:	428b      	cmp	r3, r1
 8003bc6:	d005      	beq.n	8003bd4 <USBD_COMPOSITE_DataIn+0x18>
 8003bc8:	4b06      	ldr	r3, [pc, #24]	; (8003be4 <USBD_COMPOSITE_DataIn+0x28>)
 8003bca:	781b      	ldrb	r3, [r3, #0]
 8003bcc:	f003 037f 	and.w	r3, r3, #127	; 0x7f
 8003bd0:	428b      	cmp	r3, r1
 8003bd2:	d102      	bne.n	8003bda <USBD_COMPOSITE_DataIn+0x1e>
 8003bd4:	4b04      	ldr	r3, [pc, #16]	; (8003be8 <USBD_COMPOSITE_DataIn+0x2c>)
 8003bd6:	695b      	ldr	r3, [r3, #20]
 8003bd8:	4718      	bx	r3
 8003bda:	2003      	movs	r0, #3
 8003bdc:	4770      	bx	lr
 8003bde:	bf00      	nop
 8003be0:	20001003 	.word	0x20001003
 8003be4:	20001000 	.word	0x20001000
 8003be8:	200000a8 	.word	0x200000a8

08003bec <USBD_COMPOSITE_DataOut>:
 8003bec:	4b04      	ldr	r3, [pc, #16]	; (8003c00 <USBD_COMPOSITE_DataOut+0x14>)
 8003bee:	781b      	ldrb	r3, [r3, #0]
 8003bf0:	428b      	cmp	r3, r1
 8003bf2:	d102      	bne.n	8003bfa <USBD_COMPOSITE_DataOut+0xe>
 8003bf4:	4b03      	ldr	r3, [pc, #12]	; (8003c04 <USBD_COMPOSITE_DataOut+0x18>)
 8003bf6:	699b      	ldr	r3, [r3, #24]
 8003bf8:	4718      	bx	r3
 8003bfa:	2003      	movs	r0, #3
 8003bfc:	4770      	bx	lr
 8003bfe:	bf00      	nop
 8003c00:	20001004 	.word	0x20001004
 8003c04:	200000a8 	.word	0x200000a8

08003c08 <USBD_COMPOSITE_IsoOutIncomplete>:
 8003c08:	2000      	movs	r0, #0
 8003c0a:	4770      	bx	lr

08003c0c <USBD_COMPOSITE_SOF>:
 8003c0c:	2000      	movs	r0, #0
 8003c0e:	4770      	bx	lr

08003c10 <USBD_COMPOSITE_GetOtherSpeedCfgDesc>:
 8003c10:	234b      	movs	r3, #75	; 0x4b
 8003c12:	8003      	strh	r3, [r0, #0]
 8003c14:	4800      	ldr	r0, [pc, #0]	; (8003c18 <USBD_COMPOSITE_GetOtherSpeedCfgDesc+0x8>)
 8003c16:	4770      	bx	lr
 8003c18:	20001054 	.word	0x20001054

08003c1c <USBD_COMPOSITE_Mount_Class>:
 8003c1c:	e92d 47f0 	stmdb	sp!, {r4, r5, r6, r7, r8, r9, sl, lr}
 8003c20:	f8df 90c4 	ldr.w	r9, [pc, #196]	; 8003ce8 <USBD_COMPOSITE_Mount_Class+0xcc>
 8003c24:	f8df 80c4 	ldr.w	r8, [pc, #196]	; 8003cec <USBD_COMPOSITE_Mount_Class+0xd0>
 8003c28:	f8d9 302c 	ldr.w	r3, [r9, #44]	; 0x2c
 8003c2c:	4c2a      	ldr	r4, [pc, #168]	; (8003cd8 <USBD_COMPOSITE_Mount_Class+0xbc>)
 8003c2e:	b086      	sub	sp, #24
 8003c30:	2500      	movs	r5, #0
 8003c32:	f8ad 5016 	strh.w	r5, [sp, #22]
 8003c36:	f10d 0016 	add.w	r0, sp, #22
 8003c3a:	4798      	blx	r3
 8003c3c:	2601      	movs	r6, #1
 8003c3e:	f898 3000 	ldrb.w	r3, [r8]
 8003c42:	9302      	str	r3, [sp, #8]
 8003c44:	f04f 0a82 	mov.w	sl, #130	; 0x82
 8003c48:	2381      	movs	r3, #129	; 0x81
 8003c4a:	4632      	mov	r2, r6
 8003c4c:	4629      	mov	r1, r5
 8003c4e:	e9cd a600 	strd	sl, r6, [sp]
 8003c52:	4607      	mov	r7, r0
 8003c54:	f7ff ff16 	bl	8003a84 <USBD_Update_CDC_ACM_DESC>
 8003c58:	f8bd 2016 	ldrh.w	r2, [sp, #22]
 8003c5c:	f107 0109 	add.w	r1, r7, #9
 8003c60:	3a09      	subs	r2, #9
 8003c62:	f104 0009 	add.w	r0, r4, #9
 8003c66:	f002 fa75 	bl	8006154 <memcpy>
 8003c6a:	f8d9 3028 	ldr.w	r3, [r9, #40]	; 0x28
 8003c6e:	4f1b      	ldr	r7, [pc, #108]	; (8003cdc <USBD_COMPOSITE_Mount_Class+0xc0>)
 8003c70:	f10d 0016 	add.w	r0, sp, #22
 8003c74:	4798      	blx	r3
 8003c76:	f898 3000 	ldrb.w	r3, [r8]
 8003c7a:	f8cd a000 	str.w	sl, [sp]
 8003c7e:	e9cd 6301 	strd	r6, r3, [sp, #4]
 8003c82:	4632      	mov	r2, r6
 8003c84:	2381      	movs	r3, #129	; 0x81
 8003c86:	4629      	mov	r1, r5
 8003c88:	4681      	mov	r9, r0
 8003c8a:	f7ff fefb 	bl	8003a84 <USBD_Update_CDC_ACM_DESC>
 8003c8e:	f8bd 2016 	ldrh.w	r2, [sp, #22]
 8003c92:	f109 0109 	add.w	r1, r9, #9
 8003c96:	3a09      	subs	r2, #9
 8003c98:	f107 0009 	add.w	r0, r7, #9
 8003c9c:	f002 fa5a 	bl	8006154 <memcpy>
 8003ca0:	f898 3000 	ldrb.w	r3, [r8]
 8003ca4:	4a0e      	ldr	r2, [pc, #56]	; (8003ce0 <USBD_COMPOSITE_Mount_Class+0xc4>)
 8003ca6:	70e5      	strb	r5, [r4, #3]
 8003ca8:	4433      	add	r3, r6
 8003caa:	f888 3000 	strb.w	r3, [r8]
 8003cae:	4b0d      	ldr	r3, [pc, #52]	; (8003ce4 <USBD_COMPOSITE_Mount_Class+0xc8>)
 8003cb0:	7166      	strb	r6, [r4, #5]
 8003cb2:	e9c7 2300 	strd	r2, r3, [r7]
 8003cb6:	2209      	movs	r2, #9
 8003cb8:	7022      	strb	r2, [r4, #0]
 8003cba:	2202      	movs	r2, #2
 8003cbc:	2332      	movs	r3, #50	; 0x32
 8003cbe:	7062      	strb	r2, [r4, #1]
 8003cc0:	214b      	movs	r1, #75	; 0x4b
 8003cc2:	7122      	strb	r2, [r4, #4]
 8003cc4:	22c0      	movs	r2, #192	; 0xc0
 8003cc6:	723b      	strb	r3, [r7, #8]
 8003cc8:	70a1      	strb	r1, [r4, #2]
 8003cca:	71a5      	strb	r5, [r4, #6]
 8003ccc:	71e2      	strb	r2, [r4, #7]
 8003cce:	7223      	strb	r3, [r4, #8]
 8003cd0:	b006      	add	sp, #24
 8003cd2:	e8bd 87f0 	ldmia.w	sp!, {r4, r5, r6, r7, r8, r9, sl, pc}
 8003cd6:	bf00      	nop
 8003cd8:	20001006 	.word	0x20001006
 8003cdc:	20001054 	.word	0x20001054
 8003ce0:	004b0209 	.word	0x004b0209
 8003ce4:	c0000102 	.word	0xc0000102
 8003ce8:	200000a8 	.word	0x200000a8
 8003cec:	200001ce 	.word	0x200001ce

08003cf0 <USBD_Init>:
 8003cf0:	b168      	cbz	r0, 8003d0e <USBD_Init+0x1e>
 8003cf2:	2300      	movs	r3, #0
 8003cf4:	f8c0 32b8 	str.w	r3, [r0, #696]	; 0x2b8
 8003cf8:	f8c0 3318 	str.w	r3, [r0, #792]	; 0x318
 8003cfc:	b109      	cbz	r1, 8003d02 <USBD_Init+0x12>
 8003cfe:	f8c0 12b4 	str.w	r1, [r0, #692]	; 0x2b4
 8003d02:	2301      	movs	r3, #1
 8003d04:	f880 329c 	strb.w	r3, [r0, #668]	; 0x29c
 8003d08:	7002      	strb	r2, [r0, #0]
 8003d0a:	f000 bc47 	b.w	800459c <USBD_LL_Init>
 8003d0e:	2003      	movs	r0, #3
 8003d10:	4770      	bx	lr

08003d12 <USBD_RegisterClass>:
 8003d12:	b573      	push	{r0, r1, r4, r5, r6, lr}
 8003d14:	2600      	movs	r6, #0
 8003d16:	4605      	mov	r5, r0
 8003d18:	f8ad 6006 	strh.w	r6, [sp, #6]
 8003d1c:	b1b9      	cbz	r1, 8003d4e <USBD_RegisterClass+0x3c>
 8003d1e:	7c04      	ldrb	r4, [r0, #16]
 8003d20:	f8c0 12b8 	str.w	r1, [r0, #696]	; 0x2b8
 8003d24:	b94c      	cbnz	r4, 8003d3a <USBD_RegisterClass+0x28>
 8003d26:	6a8b      	ldr	r3, [r1, #40]	; 0x28
 8003d28:	b123      	cbz	r3, 8003d34 <USBD_RegisterClass+0x22>
 8003d2a:	f10d 0006 	add.w	r0, sp, #6
 8003d2e:	4798      	blx	r3
 8003d30:	f8c5 0318 	str.w	r0, [r5, #792]	; 0x318
 8003d34:	4620      	mov	r0, r4
 8003d36:	b002      	add	sp, #8
 8003d38:	bd70      	pop	{r4, r5, r6, pc}
 8003d3a:	6acc      	ldr	r4, [r1, #44]	; 0x2c
 8003d3c:	2c00      	cmp	r4, #0
 8003d3e:	d0f9      	beq.n	8003d34 <USBD_RegisterClass+0x22>
 8003d40:	f10d 0006 	add.w	r0, sp, #6
 8003d44:	47a0      	blx	r4
 8003d46:	4634      	mov	r4, r6
 8003d48:	f8c5 0318 	str.w	r0, [r5, #792]	; 0x318
 8003d4c:	e7f2      	b.n	8003d34 <USBD_RegisterClass+0x22>
 8003d4e:	2403      	movs	r4, #3
 8003d50:	e7f0      	b.n	8003d34 <USBD_RegisterClass+0x22>

08003d52 <USBD_Start>:
 8003d52:	f000 bc71 	b.w	8004638 <USBD_LL_Start>

08003d56 <USBD_SetClassConfig>:
 8003d56:	f8d0 32b8 	ldr.w	r3, [r0, #696]	; 0x2b8
 8003d5a:	b10b      	cbz	r3, 8003d60 <USBD_SetClassConfig+0xa>
 8003d5c:	681b      	ldr	r3, [r3, #0]
 8003d5e:	4718      	bx	r3
 8003d60:	2003      	movs	r0, #3
 8003d62:	4770      	bx	lr

08003d64 <USBD_ClrClassConfig>:
 8003d64:	b508      	push	{r3, lr}
 8003d66:	f8d0 32b8 	ldr.w	r3, [r0, #696]	; 0x2b8
 8003d6a:	b10b      	cbz	r3, 8003d70 <USBD_ClrClassConfig+0xc>
 8003d6c:	685b      	ldr	r3, [r3, #4]
 8003d6e:	4798      	blx	r3
 8003d70:	2000      	movs	r0, #0
 8003d72:	bd08      	pop	{r3, pc}

08003d74 <USBD_LL_SetupStage>:
 8003d74:	b538      	push	{r3, r4, r5, lr}
 8003d76:	4604      	mov	r4, r0
 8003d78:	f200 25aa 	addw	r5, r0, #682	; 0x2aa
 8003d7c:	4628      	mov	r0, r5
 8003d7e:	f000 fb3b 	bl	80043f8 <USBD_ParseSetupRequest>
 8003d82:	2301      	movs	r3, #1
 8003d84:	f894 12aa 	ldrb.w	r1, [r4, #682]	; 0x2aa
 8003d88:	f8c4 3294 	str.w	r3, [r4, #660]	; 0x294
 8003d8c:	f8b4 32b0 	ldrh.w	r3, [r4, #688]	; 0x2b0
 8003d90:	f8c4 3298 	str.w	r3, [r4, #664]	; 0x298
 8003d94:	f001 031f 	and.w	r3, r1, #31
 8003d98:	2b01      	cmp	r3, #1
 8003d9a:	d008      	beq.n	8003dae <USBD_LL_SetupStage+0x3a>
 8003d9c:	2b02      	cmp	r3, #2
 8003d9e:	d00c      	beq.n	8003dba <USBD_LL_SetupStage+0x46>
 8003da0:	b98b      	cbnz	r3, 8003dc6 <USBD_LL_SetupStage+0x52>
 8003da2:	4629      	mov	r1, r5
 8003da4:	4620      	mov	r0, r4
 8003da6:	e8bd 4038 	ldmia.w	sp!, {r3, r4, r5, lr}
 8003daa:	f000 b923 	b.w	8003ff4 <USBD_StdDevReq>
 8003dae:	4629      	mov	r1, r5
 8003db0:	4620      	mov	r0, r4
 8003db2:	e8bd 4038 	ldmia.w	sp!, {r3, r4, r5, lr}
 8003db6:	f000 ba69 	b.w	800428c <USBD_StdItfReq>
 8003dba:	4629      	mov	r1, r5
 8003dbc:	4620      	mov	r0, r4
 8003dbe:	e8bd 4038 	ldmia.w	sp!, {r3, r4, r5, lr}
 8003dc2:	f000 ba89 	b.w	80042d8 <USBD_StdEPReq>
 8003dc6:	4620      	mov	r0, r4
 8003dc8:	f001 0180 	and.w	r1, r1, #128	; 0x80
 8003dcc:	e8bd 4038 	ldmia.w	sp!, {r3, r4, r5, lr}
 8003dd0:	f000 bc50 	b.w	8004674 <USBD_LL_StallEP>

08003dd4 <USBD_LL_DataOutStage>:
 8003dd4:	b570      	push	{r4, r5, r6, lr}
 8003dd6:	4604      	mov	r4, r0
 8003dd8:	4615      	mov	r5, r2
 8003dda:	b9f9      	cbnz	r1, 8003e1c <USBD_LL_DataOutStage+0x48>
 8003ddc:	f8d0 3294 	ldr.w	r3, [r0, #660]	; 0x294
 8003de0:	2b03      	cmp	r3, #3
 8003de2:	d10c      	bne.n	8003dfe <USBD_LL_DataOutStage+0x2a>
 8003de4:	e9d0 3257 	ldrd	r3, r2, [r0, #348]	; 0x15c
 8003de8:	4293      	cmp	r3, r2
 8003dea:	d90a      	bls.n	8003e02 <USBD_LL_DataOutStage+0x2e>
 8003dec:	1a9b      	subs	r3, r3, r2
 8003dee:	429a      	cmp	r2, r3
 8003df0:	f8c0 315c 	str.w	r3, [r0, #348]	; 0x15c
 8003df4:	bf28      	it	cs
 8003df6:	461a      	movcs	r2, r3
 8003df8:	4629      	mov	r1, r5
 8003dfa:	f000 fb51 	bl	80044a0 <USBD_CtlContinueRx>
 8003dfe:	2000      	movs	r0, #0
 8003e00:	bd70      	pop	{r4, r5, r6, pc}
 8003e02:	f890 329c 	ldrb.w	r3, [r0, #668]	; 0x29c
 8003e06:	2b03      	cmp	r3, #3
 8003e08:	d104      	bne.n	8003e14 <USBD_LL_DataOutStage+0x40>
 8003e0a:	f8d0 32b8 	ldr.w	r3, [r0, #696]	; 0x2b8
 8003e0e:	691b      	ldr	r3, [r3, #16]
 8003e10:	b103      	cbz	r3, 8003e14 <USBD_LL_DataOutStage+0x40>
 8003e12:	4798      	blx	r3
 8003e14:	4620      	mov	r0, r4
 8003e16:	f000 fb4b 	bl	80044b0 <USBD_CtlSendStatus>
 8003e1a:	e7f0      	b.n	8003dfe <USBD_LL_DataOutStage+0x2a>
 8003e1c:	f890 329c 	ldrb.w	r3, [r0, #668]	; 0x29c
 8003e20:	2b03      	cmp	r3, #3
 8003e22:	d1ec      	bne.n	8003dfe <USBD_LL_DataOutStage+0x2a>
 8003e24:	f8d0 32b8 	ldr.w	r3, [r0, #696]	; 0x2b8
 8003e28:	699b      	ldr	r3, [r3, #24]
 8003e2a:	2b00      	cmp	r3, #0
 8003e2c:	d0e7      	beq.n	8003dfe <USBD_LL_DataOutStage+0x2a>
 8003e2e:	e8bd 4070 	ldmia.w	sp!, {r4, r5, r6, lr}
 8003e32:	4718      	bx	r3

08003e34 <USBD_LL_DataInStage>:
 8003e34:	b573      	push	{r0, r1, r4, r5, r6, lr}
 8003e36:	4604      	mov	r4, r0
 8003e38:	4616      	mov	r6, r2
 8003e3a:	2900      	cmp	r1, #0
 8003e3c:	d13f      	bne.n	8003ebe <USBD_LL_DataInStage+0x8a>
 8003e3e:	f8d0 2294 	ldr.w	r2, [r0, #660]	; 0x294
 8003e42:	2a02      	cmp	r2, #2
 8003e44:	d10f      	bne.n	8003e66 <USBD_LL_DataInStage+0x32>
 8003e46:	e9d0 5207 	ldrd	r5, r2, [r0, #28]
 8003e4a:	4295      	cmp	r5, r2
 8003e4c:	d915      	bls.n	8003e7a <USBD_LL_DataInStage+0x46>
 8003e4e:	1aaa      	subs	r2, r5, r2
 8003e50:	9101      	str	r1, [sp, #4]
 8003e52:	61c2      	str	r2, [r0, #28]
 8003e54:	4631      	mov	r1, r6
 8003e56:	f000 fb0e 	bl	8004476 <USBD_CtlContinueSendData>
 8003e5a:	9b01      	ldr	r3, [sp, #4]
 8003e5c:	461a      	mov	r2, r3
 8003e5e:	4619      	mov	r1, r3
 8003e60:	4620      	mov	r0, r4
 8003e62:	f000 fc2b 	bl	80046bc <USBD_LL_PrepareReceive>
 8003e66:	f894 32a0 	ldrb.w	r3, [r4, #672]	; 0x2a0
 8003e6a:	2b01      	cmp	r3, #1
 8003e6c:	d102      	bne.n	8003e74 <USBD_LL_DataInStage+0x40>
 8003e6e:	2300      	movs	r3, #0
 8003e70:	f884 32a0 	strb.w	r3, [r4, #672]	; 0x2a0
 8003e74:	2000      	movs	r0, #0
 8003e76:	b002      	add	sp, #8
 8003e78:	bd70      	pop	{r4, r5, r6, pc}
 8003e7a:	d10e      	bne.n	8003e9a <USBD_LL_DataInStage+0x66>
 8003e7c:	6982      	ldr	r2, [r0, #24]
 8003e7e:	4295      	cmp	r5, r2
 8003e80:	d80b      	bhi.n	8003e9a <USBD_LL_DataInStage+0x66>
 8003e82:	f8d0 5298 	ldr.w	r5, [r0, #664]	; 0x298
 8003e86:	42aa      	cmp	r2, r5
 8003e88:	d207      	bcs.n	8003e9a <USBD_LL_DataInStage+0x66>
 8003e8a:	460a      	mov	r2, r1
 8003e8c:	9101      	str	r1, [sp, #4]
 8003e8e:	f000 faf2 	bl	8004476 <USBD_CtlContinueSendData>
 8003e92:	9b01      	ldr	r3, [sp, #4]
 8003e94:	f8c4 3298 	str.w	r3, [r4, #664]	; 0x298
 8003e98:	e7e0      	b.n	8003e5c <USBD_LL_DataInStage+0x28>
 8003e9a:	f894 329c 	ldrb.w	r3, [r4, #668]	; 0x29c
 8003e9e:	2b03      	cmp	r3, #3
 8003ea0:	d105      	bne.n	8003eae <USBD_LL_DataInStage+0x7a>
 8003ea2:	f8d4 32b8 	ldr.w	r3, [r4, #696]	; 0x2b8
 8003ea6:	68db      	ldr	r3, [r3, #12]
 8003ea8:	b10b      	cbz	r3, 8003eae <USBD_LL_DataInStage+0x7a>
 8003eaa:	4620      	mov	r0, r4
 8003eac:	4798      	blx	r3
 8003eae:	2180      	movs	r1, #128	; 0x80
 8003eb0:	4620      	mov	r0, r4
 8003eb2:	f000 fbdf 	bl	8004674 <USBD_LL_StallEP>
 8003eb6:	4620      	mov	r0, r4
 8003eb8:	f000 fb05 	bl	80044c6 <USBD_CtlReceiveStatus>
 8003ebc:	e7d3      	b.n	8003e66 <USBD_LL_DataInStage+0x32>
 8003ebe:	f890 329c 	ldrb.w	r3, [r0, #668]	; 0x29c
 8003ec2:	2b03      	cmp	r3, #3
 8003ec4:	d1d6      	bne.n	8003e74 <USBD_LL_DataInStage+0x40>
 8003ec6:	f8d0 32b8 	ldr.w	r3, [r0, #696]	; 0x2b8
 8003eca:	695b      	ldr	r3, [r3, #20]
 8003ecc:	2b00      	cmp	r3, #0
 8003ece:	d0d1      	beq.n	8003e74 <USBD_LL_DataInStage+0x40>
 8003ed0:	b002      	add	sp, #8
 8003ed2:	e8bd 4070 	ldmia.w	sp!, {r4, r5, r6, lr}
 8003ed6:	4718      	bx	r3

08003ed8 <USBD_LL_Reset>:
 8003ed8:	2301      	movs	r3, #1
 8003eda:	b570      	push	{r4, r5, r6, lr}
 8003edc:	f880 329c 	strb.w	r3, [r0, #668]	; 0x29c
 8003ee0:	f8d0 32b8 	ldr.w	r3, [r0, #696]	; 0x2b8
 8003ee4:	2100      	movs	r1, #0
 8003ee6:	4604      	mov	r4, r0
 8003ee8:	f8c0 1294 	str.w	r1, [r0, #660]	; 0x294
 8003eec:	6041      	str	r1, [r0, #4]
 8003eee:	f8c0 12a4 	str.w	r1, [r0, #676]	; 0x2a4
 8003ef2:	b1c3      	cbz	r3, 8003f26 <USBD_LL_Reset+0x4e>
 8003ef4:	685b      	ldr	r3, [r3, #4]
 8003ef6:	b103      	cbz	r3, 8003efa <USBD_LL_Reset+0x22>
 8003ef8:	4798      	blx	r3
 8003efa:	2200      	movs	r2, #0
 8003efc:	4611      	mov	r1, r2
 8003efe:	2540      	movs	r5, #64	; 0x40
 8003f00:	2340      	movs	r3, #64	; 0x40
 8003f02:	2601      	movs	r6, #1
 8003f04:	4620      	mov	r0, r4
 8003f06:	f000 fba0 	bl	800464a <USBD_LL_OpenEP>
 8003f0a:	f8a4 6164 	strh.w	r6, [r4, #356]	; 0x164
 8003f0e:	f8c4 5160 	str.w	r5, [r4, #352]	; 0x160
 8003f12:	462b      	mov	r3, r5
 8003f14:	2200      	movs	r2, #0
 8003f16:	2180      	movs	r1, #128	; 0x80
 8003f18:	4620      	mov	r0, r4
 8003f1a:	f000 fb96 	bl	800464a <USBD_LL_OpenEP>
 8003f1e:	84a6      	strh	r6, [r4, #36]	; 0x24
 8003f20:	6225      	str	r5, [r4, #32]
 8003f22:	2000      	movs	r0, #0
 8003f24:	bd70      	pop	{r4, r5, r6, pc}
 8003f26:	2003      	movs	r0, #3
 8003f28:	e7fc      	b.n	8003f24 <USBD_LL_Reset+0x4c>

08003f2a <USBD_LL_SetSpeed>:
 8003f2a:	7401      	strb	r1, [r0, #16]
 8003f2c:	2000      	movs	r0, #0
 8003f2e:	4770      	bx	lr

08003f30 <USBD_LL_Suspend>:
 8003f30:	f890 329c 	ldrb.w	r3, [r0, #668]	; 0x29c
 8003f34:	b2db      	uxtb	r3, r3
 8003f36:	f880 329d 	strb.w	r3, [r0, #669]	; 0x29d
 8003f3a:	2304      	movs	r3, #4
 8003f3c:	f880 329c 	strb.w	r3, [r0, #668]	; 0x29c
 8003f40:	2000      	movs	r0, #0
 8003f42:	4770      	bx	lr

08003f44 <USBD_LL_Resume>:
 8003f44:	f890 329c 	ldrb.w	r3, [r0, #668]	; 0x29c
 8003f48:	2b04      	cmp	r3, #4
 8003f4a:	bf02      	ittt	eq
 8003f4c:	f890 329d 	ldrbeq.w	r3, [r0, #669]	; 0x29d
 8003f50:	b2db      	uxtbeq	r3, r3
 8003f52:	f880 329c 	strbeq.w	r3, [r0, #668]	; 0x29c
 8003f56:	2000      	movs	r0, #0
 8003f58:	4770      	bx	lr

08003f5a <USBD_LL_SOF>:
 8003f5a:	f8d0 22b8 	ldr.w	r2, [r0, #696]	; 0x2b8
 8003f5e:	b508      	push	{r3, lr}
 8003f60:	b142      	cbz	r2, 8003f74 <USBD_LL_SOF+0x1a>
 8003f62:	f890 329c 	ldrb.w	r3, [r0, #668]	; 0x29c
 8003f66:	2b03      	cmp	r3, #3
 8003f68:	d102      	bne.n	8003f70 <USBD_LL_SOF+0x16>
 8003f6a:	69d3      	ldr	r3, [r2, #28]
 8003f6c:	b123      	cbz	r3, 8003f78 <USBD_LL_SOF+0x1e>
 8003f6e:	4798      	blx	r3
 8003f70:	2000      	movs	r0, #0
 8003f72:	e000      	b.n	8003f76 <USBD_LL_SOF+0x1c>
 8003f74:	2003      	movs	r0, #3
 8003f76:	bd08      	pop	{r3, pc}
 8003f78:	4618      	mov	r0, r3
 8003f7a:	e7fc      	b.n	8003f76 <USBD_LL_SOF+0x1c>

08003f7c <USBD_LL_IsoINIncomplete>:
 8003f7c:	f8d0 22b8 	ldr.w	r2, [r0, #696]	; 0x2b8
 8003f80:	b508      	push	{r3, lr}
 8003f82:	b142      	cbz	r2, 8003f96 <USBD_LL_IsoINIncomplete+0x1a>
 8003f84:	f890 329c 	ldrb.w	r3, [r0, #668]	; 0x29c
 8003f88:	2b03      	cmp	r3, #3
 8003f8a:	d102      	bne.n	8003f92 <USBD_LL_IsoINIncomplete+0x16>
 8003f8c:	6a13      	ldr	r3, [r2, #32]
 8003f8e:	b123      	cbz	r3, 8003f9a <USBD_LL_IsoINIncomplete+0x1e>
 8003f90:	4798      	blx	r3
 8003f92:	2000      	movs	r0, #0
 8003f94:	e000      	b.n	8003f98 <USBD_LL_IsoINIncomplete+0x1c>
 8003f96:	2003      	movs	r0, #3
 8003f98:	bd08      	pop	{r3, pc}
 8003f9a:	4618      	mov	r0, r3
 8003f9c:	e7fc      	b.n	8003f98 <USBD_LL_IsoINIncomplete+0x1c>

08003f9e <USBD_LL_IsoOUTIncomplete>:
 8003f9e:	f8d0 22b8 	ldr.w	r2, [r0, #696]	; 0x2b8
 8003fa2:	b508      	push	{r3, lr}
 8003fa4:	b142      	cbz	r2, 8003fb8 <USBD_LL_IsoOUTIncomplete+0x1a>
 8003fa6:	f890 329c 	ldrb.w	r3, [r0, #668]	; 0x29c
 8003faa:	2b03      	cmp	r3, #3
 8003fac:	d102      	bne.n	8003fb4 <USBD_LL_IsoOUTIncomplete+0x16>
 8003fae:	6a53      	ldr	r3, [r2, #36]	; 0x24
 8003fb0:	b123      	cbz	r3, 8003fbc <USBD_LL_IsoOUTIncomplete+0x1e>
 8003fb2:	4798      	blx	r3
 8003fb4:	2000      	movs	r0, #0
 8003fb6:	e000      	b.n	8003fba <USBD_LL_IsoOUTIncomplete+0x1c>
 8003fb8:	2003      	movs	r0, #3
 8003fba:	bd08      	pop	{r3, pc}
 8003fbc:	4618      	mov	r0, r3
 8003fbe:	e7fc      	b.n	8003fba <USBD_LL_IsoOUTIncomplete+0x1c>

08003fc0 <USBD_LL_DevConnected>:
 8003fc0:	2000      	movs	r0, #0
 8003fc2:	4770      	bx	lr

08003fc4 <USBD_LL_DevDisconnected>:
 8003fc4:	2201      	movs	r2, #1
 8003fc6:	b508      	push	{r3, lr}
 8003fc8:	f880 229c 	strb.w	r2, [r0, #668]	; 0x29c
 8003fcc:	f8d0 22b8 	ldr.w	r2, [r0, #696]	; 0x2b8
 8003fd0:	b112      	cbz	r2, 8003fd8 <USBD_LL_DevDisconnected+0x14>
 8003fd2:	6852      	ldr	r2, [r2, #4]
 8003fd4:	7901      	ldrb	r1, [r0, #4]
 8003fd6:	4790      	blx	r2
 8003fd8:	2000      	movs	r0, #0
 8003fda:	bd08      	pop	{r3, pc}

08003fdc <USBD_CtlError.constprop.0>:
 8003fdc:	b510      	push	{r4, lr}
 8003fde:	2180      	movs	r1, #128	; 0x80
 8003fe0:	4604      	mov	r4, r0
 8003fe2:	f000 fb47 	bl	8004674 <USBD_LL_StallEP>
 8003fe6:	4620      	mov	r0, r4
 8003fe8:	2100      	movs	r1, #0
 8003fea:	e8bd 4010 	ldmia.w	sp!, {r4, lr}
 8003fee:	f000 bb41 	b.w	8004674 <USBD_LL_StallEP>
	...

08003ff4 <USBD_StdDevReq>:
 8003ff4:	b5f7      	push	{r0, r1, r2, r4, r5, r6, r7, lr}
 8003ff6:	780d      	ldrb	r5, [r1, #0]
 8003ff8:	f005 0560 	and.w	r5, r5, #96	; 0x60
 8003ffc:	2d20      	cmp	r5, #32
 8003ffe:	4604      	mov	r4, r0
 8004000:	460e      	mov	r6, r1
 8004002:	d014      	beq.n	800402e <USBD_StdDevReq+0x3a>
 8004004:	2d40      	cmp	r5, #64	; 0x40
 8004006:	d012      	beq.n	800402e <USBD_StdDevReq+0x3a>
 8004008:	2d00      	cmp	r5, #0
 800400a:	f040 8109 	bne.w	8004220 <USBD_StdDevReq+0x22c>
 800400e:	784f      	ldrb	r7, [r1, #1]
 8004010:	2f09      	cmp	r7, #9
 8004012:	f200 8105 	bhi.w	8004220 <USBD_StdDevReq+0x22c>
 8004016:	e8df f017 	tbh	[pc, r7, lsl #1]
 800401a:	010a      	.short	0x010a
 800401c:	0103012c 	.word	0x0103012c
 8004020:	01030122 	.word	0x01030122
 8004024:	0013008b 	.word	0x0013008b
 8004028:	00f20103 	.word	0x00f20103
 800402c:	00a7      	.short	0x00a7
 800402e:	f8d4 32b8 	ldr.w	r3, [r4, #696]	; 0x2b8
 8004032:	689b      	ldr	r3, [r3, #8]
 8004034:	4631      	mov	r1, r6
 8004036:	4620      	mov	r0, r4
 8004038:	b003      	add	sp, #12
 800403a:	e8bd 40f0 	ldmia.w	sp!, {r4, r5, r6, r7, lr}
 800403e:	4718      	bx	r3
 8004040:	8849      	ldrh	r1, [r1, #2]
 8004042:	2300      	movs	r3, #0
 8004044:	f8ad 3006 	strh.w	r3, [sp, #6]
 8004048:	0a0b      	lsrs	r3, r1, #8
 800404a:	3b01      	subs	r3, #1
 800404c:	2b06      	cmp	r3, #6
 800404e:	d837      	bhi.n	80040c0 <USBD_StdDevReq+0xcc>
 8004050:	e8df f003 	tbb	[pc, r3]
 8004054:	36291c04 	.word	0x36291c04
 8004058:	5936      	.short	0x5936
 800405a:	63          	.byte	0x63
 800405b:	00          	.byte	0x00
 800405c:	f8d0 32b4 	ldr.w	r3, [r0, #692]	; 0x2b4
 8004060:	681b      	ldr	r3, [r3, #0]
 8004062:	7c20      	ldrb	r0, [r4, #16]
 8004064:	f10d 0106 	add.w	r1, sp, #6
 8004068:	4798      	blx	r3
 800406a:	88f2      	ldrh	r2, [r6, #6]
 800406c:	2a00      	cmp	r2, #0
 800406e:	f000 80fc 	beq.w	800426a <USBD_StdDevReq+0x276>
 8004072:	f8bd 3006 	ldrh.w	r3, [sp, #6]
 8004076:	b31b      	cbz	r3, 80040c0 <USBD_StdDevReq+0xcc>
 8004078:	429a      	cmp	r2, r3
 800407a:	bf28      	it	cs
 800407c:	461a      	movcs	r2, r3
 800407e:	f8ad 2006 	strh.w	r2, [sp, #6]
 8004082:	4601      	mov	r1, r0
 8004084:	4620      	mov	r0, r4
 8004086:	f000 f9e9 	bl	800445c <USBD_CtlSendData>
 800408a:	e01c      	b.n	80040c6 <USBD_StdDevReq+0xd2>
 800408c:	7c02      	ldrb	r2, [r0, #16]
 800408e:	f8d0 32b8 	ldr.w	r3, [r0, #696]	; 0x2b8
 8004092:	b932      	cbnz	r2, 80040a2 <USBD_StdDevReq+0xae>
 8004094:	6a9b      	ldr	r3, [r3, #40]	; 0x28
 8004096:	f10d 0006 	add.w	r0, sp, #6
 800409a:	4798      	blx	r3
 800409c:	2302      	movs	r3, #2
 800409e:	7043      	strb	r3, [r0, #1]
 80040a0:	e7e3      	b.n	800406a <USBD_StdDevReq+0x76>
 80040a2:	6adb      	ldr	r3, [r3, #44]	; 0x2c
 80040a4:	e7f7      	b.n	8004096 <USBD_StdDevReq+0xa2>
 80040a6:	b2c9      	uxtb	r1, r1
 80040a8:	2905      	cmp	r1, #5
 80040aa:	d823      	bhi.n	80040f4 <USBD_StdDevReq+0x100>
 80040ac:	e8df f001 	tbb	[pc, r1]
 80040b0:	16120e03 	.word	0x16120e03
 80040b4:	1e1a      	.short	0x1e1a
 80040b6:	f8d0 32b4 	ldr.w	r3, [r0, #692]	; 0x2b4
 80040ba:	685b      	ldr	r3, [r3, #4]
 80040bc:	2b00      	cmp	r3, #0
 80040be:	d1d0      	bne.n	8004062 <USBD_StdDevReq+0x6e>
 80040c0:	4620      	mov	r0, r4
 80040c2:	f7ff ff8b 	bl	8003fdc <USBD_CtlError.constprop.0>
 80040c6:	4628      	mov	r0, r5
 80040c8:	b003      	add	sp, #12
 80040ca:	bdf0      	pop	{r4, r5, r6, r7, pc}
 80040cc:	f8d0 32b4 	ldr.w	r3, [r0, #692]	; 0x2b4
 80040d0:	689b      	ldr	r3, [r3, #8]
 80040d2:	e7f3      	b.n	80040bc <USBD_StdDevReq+0xc8>
 80040d4:	f8d0 32b4 	ldr.w	r3, [r0, #692]	; 0x2b4
 80040d8:	68db      	ldr	r3, [r3, #12]
 80040da:	e7ef      	b.n	80040bc <USBD_StdDevReq+0xc8>
 80040dc:	f8d0 32b4 	ldr.w	r3, [r0, #692]	; 0x2b4
 80040e0:	691b      	ldr	r3, [r3, #16]
 80040e2:	e7eb      	b.n	80040bc <USBD_StdDevReq+0xc8>
 80040e4:	f8d0 32b4 	ldr.w	r3, [r0, #692]	; 0x2b4
 80040e8:	695b      	ldr	r3, [r3, #20]
 80040ea:	e7e7      	b.n	80040bc <USBD_StdDevReq+0xc8>
 80040ec:	f8d0 32b4 	ldr.w	r3, [r0, #692]	; 0x2b4
 80040f0:	699b      	ldr	r3, [r3, #24]
 80040f2:	e7e3      	b.n	80040bc <USBD_StdDevReq+0xc8>
 80040f4:	f8d0 32b8 	ldr.w	r3, [r0, #696]	; 0x2b8
 80040f8:	6b9b      	ldr	r3, [r3, #56]	; 0x38
 80040fa:	2b00      	cmp	r3, #0
 80040fc:	d0e0      	beq.n	80040c0 <USBD_StdDevReq+0xcc>
 80040fe:	f10d 0206 	add.w	r2, sp, #6
 8004102:	4798      	blx	r3
 8004104:	e7b1      	b.n	800406a <USBD_StdDevReq+0x76>
 8004106:	7c03      	ldrb	r3, [r0, #16]
 8004108:	2b00      	cmp	r3, #0
 800410a:	d1d9      	bne.n	80040c0 <USBD_StdDevReq+0xcc>
 800410c:	f8d0 32b8 	ldr.w	r3, [r0, #696]	; 0x2b8
 8004110:	f10d 0006 	add.w	r0, sp, #6
 8004114:	6b5b      	ldr	r3, [r3, #52]	; 0x34
 8004116:	4798      	blx	r3
 8004118:	e7a7      	b.n	800406a <USBD_StdDevReq+0x76>
 800411a:	7c03      	ldrb	r3, [r0, #16]
 800411c:	2b00      	cmp	r3, #0
 800411e:	d1cf      	bne.n	80040c0 <USBD_StdDevReq+0xcc>
 8004120:	f8d0 32b8 	ldr.w	r3, [r0, #696]	; 0x2b8
 8004124:	f10d 0006 	add.w	r0, sp, #6
 8004128:	6b1b      	ldr	r3, [r3, #48]	; 0x30
 800412a:	4798      	blx	r3
 800412c:	2307      	movs	r3, #7
 800412e:	e7b6      	b.n	800409e <USBD_StdDevReq+0xaa>
 8004130:	888b      	ldrh	r3, [r1, #4]
 8004132:	2b00      	cmp	r3, #0
 8004134:	d1c4      	bne.n	80040c0 <USBD_StdDevReq+0xcc>
 8004136:	88cb      	ldrh	r3, [r1, #6]
 8004138:	2b00      	cmp	r3, #0
 800413a:	d1c1      	bne.n	80040c0 <USBD_StdDevReq+0xcc>
 800413c:	884e      	ldrh	r6, [r1, #2]
 800413e:	2e7f      	cmp	r6, #127	; 0x7f
 8004140:	d8be      	bhi.n	80040c0 <USBD_StdDevReq+0xcc>
 8004142:	f890 329c 	ldrb.w	r3, [r0, #668]	; 0x29c
 8004146:	2b03      	cmp	r3, #3
 8004148:	d0ba      	beq.n	80040c0 <USBD_StdDevReq+0xcc>
 800414a:	b2f1      	uxtb	r1, r6
 800414c:	f880 129e 	strb.w	r1, [r0, #670]	; 0x29e
 8004150:	f000 faa2 	bl	8004698 <USBD_LL_SetUSBAddress>
 8004154:	4620      	mov	r0, r4
 8004156:	f000 f9ab 	bl	80044b0 <USBD_CtlSendStatus>
 800415a:	b11e      	cbz	r6, 8004164 <USBD_StdDevReq+0x170>
 800415c:	2302      	movs	r3, #2
 800415e:	f884 329c 	strb.w	r3, [r4, #668]	; 0x29c
 8004162:	e7b0      	b.n	80040c6 <USBD_StdDevReq+0xd2>
 8004164:	2301      	movs	r3, #1
 8004166:	e7fa      	b.n	800415e <USBD_StdDevReq+0x16a>
 8004168:	788e      	ldrb	r6, [r1, #2]
 800416a:	4f47      	ldr	r7, [pc, #284]	; (8004288 <USBD_StdDevReq+0x294>)
 800416c:	2e01      	cmp	r6, #1
 800416e:	703e      	strb	r6, [r7, #0]
 8004170:	d903      	bls.n	800417a <USBD_StdDevReq+0x186>
 8004172:	f7ff ff33 	bl	8003fdc <USBD_CtlError.constprop.0>
 8004176:	2503      	movs	r5, #3
 8004178:	e7a5      	b.n	80040c6 <USBD_StdDevReq+0xd2>
 800417a:	f890 329c 	ldrb.w	r3, [r0, #668]	; 0x29c
 800417e:	2b02      	cmp	r3, #2
 8004180:	b2da      	uxtb	r2, r3
 8004182:	d008      	beq.n	8004196 <USBD_StdDevReq+0x1a2>
 8004184:	2a03      	cmp	r2, #3
 8004186:	d014      	beq.n	80041b2 <USBD_StdDevReq+0x1be>
 8004188:	f7ff ff28 	bl	8003fdc <USBD_CtlError.constprop.0>
 800418c:	7839      	ldrb	r1, [r7, #0]
 800418e:	4620      	mov	r0, r4
 8004190:	f7ff fde8 	bl	8003d64 <USBD_ClrClassConfig>
 8004194:	e7ef      	b.n	8004176 <USBD_StdDevReq+0x182>
 8004196:	2e00      	cmp	r6, #0
 8004198:	d067      	beq.n	800426a <USBD_StdDevReq+0x276>
 800419a:	2101      	movs	r1, #1
 800419c:	6041      	str	r1, [r0, #4]
 800419e:	f7ff fdda 	bl	8003d56 <USBD_SetClassConfig>
 80041a2:	4605      	mov	r5, r0
 80041a4:	4620      	mov	r0, r4
 80041a6:	2d00      	cmp	r5, #0
 80041a8:	d18b      	bne.n	80040c2 <USBD_StdDevReq+0xce>
 80041aa:	f000 f981 	bl	80044b0 <USBD_CtlSendStatus>
 80041ae:	2303      	movs	r3, #3
 80041b0:	e7d5      	b.n	800415e <USBD_StdDevReq+0x16a>
 80041b2:	b95e      	cbnz	r6, 80041cc <USBD_StdDevReq+0x1d8>
 80041b4:	2302      	movs	r3, #2
 80041b6:	f880 329c 	strb.w	r3, [r0, #668]	; 0x29c
 80041ba:	6046      	str	r6, [r0, #4]
 80041bc:	4631      	mov	r1, r6
 80041be:	f7ff fdd1 	bl	8003d64 <USBD_ClrClassConfig>
 80041c2:	4620      	mov	r0, r4
 80041c4:	f000 f974 	bl	80044b0 <USBD_CtlSendStatus>
 80041c8:	4635      	mov	r5, r6
 80041ca:	e77c      	b.n	80040c6 <USBD_StdDevReq+0xd2>
 80041cc:	6841      	ldr	r1, [r0, #4]
 80041ce:	2901      	cmp	r1, #1
 80041d0:	d04b      	beq.n	800426a <USBD_StdDevReq+0x276>
 80041d2:	b2c9      	uxtb	r1, r1
 80041d4:	f7ff fdc6 	bl	8003d64 <USBD_ClrClassConfig>
 80041d8:	7839      	ldrb	r1, [r7, #0]
 80041da:	6061      	str	r1, [r4, #4]
 80041dc:	4620      	mov	r0, r4
 80041de:	f7ff fdba 	bl	8003d56 <USBD_SetClassConfig>
 80041e2:	4606      	mov	r6, r0
 80041e4:	2800      	cmp	r0, #0
 80041e6:	d040      	beq.n	800426a <USBD_StdDevReq+0x276>
 80041e8:	4620      	mov	r0, r4
 80041ea:	f7ff fef7 	bl	8003fdc <USBD_CtlError.constprop.0>
 80041ee:	7921      	ldrb	r1, [r4, #4]
 80041f0:	4620      	mov	r0, r4
 80041f2:	f7ff fdb7 	bl	8003d64 <USBD_ClrClassConfig>
 80041f6:	2302      	movs	r3, #2
 80041f8:	f884 329c 	strb.w	r3, [r4, #668]	; 0x29c
 80041fc:	e7e4      	b.n	80041c8 <USBD_StdDevReq+0x1d4>
 80041fe:	88ca      	ldrh	r2, [r1, #6]
 8004200:	2a01      	cmp	r2, #1
 8004202:	f47f af5d 	bne.w	80040c0 <USBD_StdDevReq+0xcc>
 8004206:	f890 129c 	ldrb.w	r1, [r0, #668]	; 0x29c
 800420a:	2902      	cmp	r1, #2
 800420c:	b2cb      	uxtb	r3, r1
 800420e:	d805      	bhi.n	800421c <USBD_StdDevReq+0x228>
 8004210:	b133      	cbz	r3, 8004220 <USBD_StdDevReq+0x22c>
 8004212:	4601      	mov	r1, r0
 8004214:	2300      	movs	r3, #0
 8004216:	f841 3f08 	str.w	r3, [r1, #8]!
 800421a:	e733      	b.n	8004084 <USBD_StdDevReq+0x90>
 800421c:	2b03      	cmp	r3, #3
 800421e:	d004      	beq.n	800422a <USBD_StdDevReq+0x236>
 8004220:	4620      	mov	r0, r4
 8004222:	f7ff fedb 	bl	8003fdc <USBD_CtlError.constprop.0>
 8004226:	2500      	movs	r5, #0
 8004228:	e74d      	b.n	80040c6 <USBD_StdDevReq+0xd2>
 800422a:	1d01      	adds	r1, r0, #4
 800422c:	e72a      	b.n	8004084 <USBD_StdDevReq+0x90>
 800422e:	f890 329c 	ldrb.w	r3, [r0, #668]	; 0x29c
 8004232:	3b01      	subs	r3, #1
 8004234:	2b02      	cmp	r3, #2
 8004236:	d8f3      	bhi.n	8004220 <USBD_StdDevReq+0x22c>
 8004238:	88cb      	ldrh	r3, [r1, #6]
 800423a:	2b02      	cmp	r3, #2
 800423c:	f47f af40 	bne.w	80040c0 <USBD_StdDevReq+0xcc>
 8004240:	2301      	movs	r3, #1
 8004242:	60c3      	str	r3, [r0, #12]
 8004244:	f8d0 32a4 	ldr.w	r3, [r0, #676]	; 0x2a4
 8004248:	b10b      	cbz	r3, 800424e <USBD_StdDevReq+0x25a>
 800424a:	2303      	movs	r3, #3
 800424c:	60c3      	str	r3, [r0, #12]
 800424e:	2202      	movs	r2, #2
 8004250:	f104 010c 	add.w	r1, r4, #12
 8004254:	4620      	mov	r0, r4
 8004256:	f000 f901 	bl	800445c <USBD_CtlSendData>
 800425a:	463d      	mov	r5, r7
 800425c:	e733      	b.n	80040c6 <USBD_StdDevReq+0xd2>
 800425e:	884b      	ldrh	r3, [r1, #2]
 8004260:	2b01      	cmp	r3, #1
 8004262:	f47f af30 	bne.w	80040c6 <USBD_StdDevReq+0xd2>
 8004266:	f8c4 32a4 	str.w	r3, [r4, #676]	; 0x2a4
 800426a:	4620      	mov	r0, r4
 800426c:	f000 f920 	bl	80044b0 <USBD_CtlSendStatus>
 8004270:	e729      	b.n	80040c6 <USBD_StdDevReq+0xd2>
 8004272:	f890 329c 	ldrb.w	r3, [r0, #668]	; 0x29c
 8004276:	3b01      	subs	r3, #1
 8004278:	2b02      	cmp	r3, #2
 800427a:	d8d1      	bhi.n	8004220 <USBD_StdDevReq+0x22c>
 800427c:	884b      	ldrh	r3, [r1, #2]
 800427e:	2b01      	cmp	r3, #1
 8004280:	f47f af21 	bne.w	80040c6 <USBD_StdDevReq+0xd2>
 8004284:	2300      	movs	r3, #0
 8004286:	e7ee      	b.n	8004266 <USBD_StdDevReq+0x272>
 8004288:	200010df 	.word	0x200010df

0800428c <USBD_StdItfReq>:
 800428c:	b570      	push	{r4, r5, r6, lr}
 800428e:	780b      	ldrb	r3, [r1, #0]
 8004290:	f003 0260 	and.w	r2, r3, #96	; 0x60
 8004294:	2a40      	cmp	r2, #64	; 0x40
 8004296:	4604      	mov	r4, r0
 8004298:	460e      	mov	r6, r1
 800429a:	d001      	beq.n	80042a0 <USBD_StdItfReq+0x14>
 800429c:	065b      	lsls	r3, r3, #25
 800429e:	d416      	bmi.n	80042ce <USBD_StdItfReq+0x42>
 80042a0:	f894 329c 	ldrb.w	r3, [r4, #668]	; 0x29c
 80042a4:	3b01      	subs	r3, #1
 80042a6:	2b02      	cmp	r3, #2
 80042a8:	d811      	bhi.n	80042ce <USBD_StdItfReq+0x42>
 80042aa:	7933      	ldrb	r3, [r6, #4]
 80042ac:	2b0f      	cmp	r3, #15
 80042ae:	d80e      	bhi.n	80042ce <USBD_StdItfReq+0x42>
 80042b0:	f8d4 32b8 	ldr.w	r3, [r4, #696]	; 0x2b8
 80042b4:	4631      	mov	r1, r6
 80042b6:	689b      	ldr	r3, [r3, #8]
 80042b8:	4620      	mov	r0, r4
 80042ba:	4798      	blx	r3
 80042bc:	88f3      	ldrh	r3, [r6, #6]
 80042be:	4605      	mov	r5, r0
 80042c0:	b91b      	cbnz	r3, 80042ca <USBD_StdItfReq+0x3e>
 80042c2:	b910      	cbnz	r0, 80042ca <USBD_StdItfReq+0x3e>
 80042c4:	4620      	mov	r0, r4
 80042c6:	f000 f8f3 	bl	80044b0 <USBD_CtlSendStatus>
 80042ca:	4628      	mov	r0, r5
 80042cc:	bd70      	pop	{r4, r5, r6, pc}
 80042ce:	4620      	mov	r0, r4
 80042d0:	f7ff fe84 	bl	8003fdc <USBD_CtlError.constprop.0>
 80042d4:	2500      	movs	r5, #0
 80042d6:	e7f8      	b.n	80042ca <USBD_StdItfReq+0x3e>

080042d8 <USBD_StdEPReq>:
 80042d8:	b570      	push	{r4, r5, r6, lr}
 80042da:	780b      	ldrb	r3, [r1, #0]
 80042dc:	f003 0360 	and.w	r3, r3, #96	; 0x60
 80042e0:	2b20      	cmp	r3, #32
 80042e2:	4604      	mov	r4, r0
 80042e4:	460d      	mov	r5, r1
 80042e6:	d053      	beq.n	8004390 <USBD_StdEPReq+0xb8>
 80042e8:	2b40      	cmp	r3, #64	; 0x40
 80042ea:	d051      	beq.n	8004390 <USBD_StdEPReq+0xb8>
 80042ec:	bb73      	cbnz	r3, 800434c <USBD_StdEPReq+0x74>
 80042ee:	786b      	ldrb	r3, [r5, #1]
 80042f0:	888a      	ldrh	r2, [r1, #4]
 80042f2:	7909      	ldrb	r1, [r1, #4]
 80042f4:	2b01      	cmp	r3, #1
 80042f6:	d03a      	beq.n	800436e <USBD_StdEPReq+0x96>
 80042f8:	2b03      	cmp	r3, #3
 80042fa:	d020      	beq.n	800433e <USBD_StdEPReq+0x66>
 80042fc:	bb33      	cbnz	r3, 800434c <USBD_StdEPReq+0x74>
 80042fe:	f890 329c 	ldrb.w	r3, [r0, #668]	; 0x29c
 8004302:	2b02      	cmp	r3, #2
 8004304:	b2d8      	uxtb	r0, r3
 8004306:	d054      	beq.n	80043b2 <USBD_StdEPReq+0xda>
 8004308:	2803      	cmp	r0, #3
 800430a:	d11f      	bne.n	800434c <USBD_StdEPReq+0x74>
 800430c:	f001 030f 	and.w	r3, r1, #15
 8004310:	f012 0f80 	tst.w	r2, #128	; 0x80
 8004314:	f04f 0214 	mov.w	r2, #20
 8004318:	fb02 4303 	mla	r3, r2, r3, r4
 800431c:	d058      	beq.n	80043d0 <USBD_StdEPReq+0xf8>
 800431e:	8c9b      	ldrh	r3, [r3, #36]	; 0x24
 8004320:	b1a3      	cbz	r3, 800434c <USBD_StdEPReq+0x74>
 8004322:	f001 057f 	and.w	r5, r1, #127	; 0x7f
 8004326:	3501      	adds	r5, #1
 8004328:	eb05 0585 	add.w	r5, r5, r5, lsl #2
 800432c:	eb04 0585 	add.w	r5, r4, r5, lsl #2
 8004330:	f011 037f 	ands.w	r3, r1, #127	; 0x7f
 8004334:	d158      	bne.n	80043e8 <USBD_StdEPReq+0x110>
 8004336:	602b      	str	r3, [r5, #0]
 8004338:	2202      	movs	r2, #2
 800433a:	4629      	mov	r1, r5
 800433c:	e044      	b.n	80043c8 <USBD_StdEPReq+0xf0>
 800433e:	f890 329c 	ldrb.w	r3, [r0, #668]	; 0x29c
 8004342:	2b02      	cmp	r3, #2
 8004344:	b2da      	uxtb	r2, r3
 8004346:	d02b      	beq.n	80043a0 <USBD_StdEPReq+0xc8>
 8004348:	2a03      	cmp	r2, #3
 800434a:	d003      	beq.n	8004354 <USBD_StdEPReq+0x7c>
 800434c:	4620      	mov	r0, r4
 800434e:	f7ff fe45 	bl	8003fdc <USBD_CtlError.constprop.0>
 8004352:	e00a      	b.n	800436a <USBD_StdEPReq+0x92>
 8004354:	886b      	ldrh	r3, [r5, #2]
 8004356:	b92b      	cbnz	r3, 8004364 <USBD_StdEPReq+0x8c>
 8004358:	064a      	lsls	r2, r1, #25
 800435a:	d003      	beq.n	8004364 <USBD_StdEPReq+0x8c>
 800435c:	88eb      	ldrh	r3, [r5, #6]
 800435e:	b90b      	cbnz	r3, 8004364 <USBD_StdEPReq+0x8c>
 8004360:	f000 f988 	bl	8004674 <USBD_LL_StallEP>
 8004364:	4620      	mov	r0, r4
 8004366:	f000 f8a3 	bl	80044b0 <USBD_CtlSendStatus>
 800436a:	2000      	movs	r0, #0
 800436c:	bd70      	pop	{r4, r5, r6, pc}
 800436e:	f890 329c 	ldrb.w	r3, [r0, #668]	; 0x29c
 8004372:	2b02      	cmp	r3, #2
 8004374:	b2da      	uxtb	r2, r3
 8004376:	d013      	beq.n	80043a0 <USBD_StdEPReq+0xc8>
 8004378:	2a03      	cmp	r2, #3
 800437a:	d1e7      	bne.n	800434c <USBD_StdEPReq+0x74>
 800437c:	886b      	ldrh	r3, [r5, #2]
 800437e:	2b00      	cmp	r3, #0
 8004380:	d1f3      	bne.n	800436a <USBD_StdEPReq+0x92>
 8004382:	064e      	lsls	r6, r1, #25
 8004384:	d001      	beq.n	800438a <USBD_StdEPReq+0xb2>
 8004386:	f000 f97e 	bl	8004686 <USBD_LL_ClearStallEP>
 800438a:	4620      	mov	r0, r4
 800438c:	f000 f890 	bl	80044b0 <USBD_CtlSendStatus>
 8004390:	f8d4 32b8 	ldr.w	r3, [r4, #696]	; 0x2b8
 8004394:	4629      	mov	r1, r5
 8004396:	4620      	mov	r0, r4
 8004398:	689b      	ldr	r3, [r3, #8]
 800439a:	e8bd 4070 	ldmia.w	sp!, {r4, r5, r6, lr}
 800439e:	4718      	bx	r3
 80043a0:	064b      	lsls	r3, r1, #25
 80043a2:	d0d3      	beq.n	800434c <USBD_StdEPReq+0x74>
 80043a4:	f000 f966 	bl	8004674 <USBD_LL_StallEP>
 80043a8:	2180      	movs	r1, #128	; 0x80
 80043aa:	4620      	mov	r0, r4
 80043ac:	f000 f962 	bl	8004674 <USBD_LL_StallEP>
 80043b0:	e7db      	b.n	800436a <USBD_StdEPReq+0x92>
 80043b2:	0649      	lsls	r1, r1, #25
 80043b4:	d1ca      	bne.n	800434c <USBD_StdEPReq+0x74>
 80043b6:	0613      	lsls	r3, r2, #24
 80043b8:	bf4c      	ite	mi
 80043ba:	f104 0114 	addmi.w	r1, r4, #20
 80043be:	f504 71aa 	addpl.w	r1, r4, #340	; 0x154
 80043c2:	2300      	movs	r3, #0
 80043c4:	600b      	str	r3, [r1, #0]
 80043c6:	2202      	movs	r2, #2
 80043c8:	4620      	mov	r0, r4
 80043ca:	f000 f847 	bl	800445c <USBD_CtlSendData>
 80043ce:	e7cc      	b.n	800436a <USBD_StdEPReq+0x92>
 80043d0:	f8b3 3164 	ldrh.w	r3, [r3, #356]	; 0x164
 80043d4:	2b00      	cmp	r3, #0
 80043d6:	d0b9      	beq.n	800434c <USBD_StdEPReq+0x74>
 80043d8:	f001 057f 	and.w	r5, r1, #127	; 0x7f
 80043dc:	2314      	movs	r3, #20
 80043de:	fb03 4505 	mla	r5, r3, r5, r4
 80043e2:	f505 75aa 	add.w	r5, r5, #340	; 0x154
 80043e6:	e7a3      	b.n	8004330 <USBD_StdEPReq+0x58>
 80043e8:	4620      	mov	r0, r4
 80043ea:	f000 f905 	bl	80045f8 <USBD_LL_IsStallEP>
 80043ee:	b108      	cbz	r0, 80043f4 <USBD_StdEPReq+0x11c>
 80043f0:	2301      	movs	r3, #1
 80043f2:	e7a0      	b.n	8004336 <USBD_StdEPReq+0x5e>
 80043f4:	6028      	str	r0, [r5, #0]
 80043f6:	e79f      	b.n	8004338 <USBD_StdEPReq+0x60>

080043f8 <USBD_ParseSetupRequest>:
 80043f8:	780b      	ldrb	r3, [r1, #0]
 80043fa:	7003      	strb	r3, [r0, #0]
 80043fc:	784b      	ldrb	r3, [r1, #1]
 80043fe:	7043      	strb	r3, [r0, #1]
 8004400:	884b      	ldrh	r3, [r1, #2]
 8004402:	8043      	strh	r3, [r0, #2]
 8004404:	888b      	ldrh	r3, [r1, #4]
 8004406:	8083      	strh	r3, [r0, #4]
 8004408:	88cb      	ldrh	r3, [r1, #6]
 800440a:	80c3      	strh	r3, [r0, #6]
 800440c:	4770      	bx	lr

0800440e <USBD_CtlError>:
 800440e:	b510      	push	{r4, lr}
 8004410:	2180      	movs	r1, #128	; 0x80
 8004412:	4604      	mov	r4, r0
 8004414:	f000 f92e 	bl	8004674 <USBD_LL_StallEP>
 8004418:	4620      	mov	r0, r4
 800441a:	2100      	movs	r1, #0
 800441c:	e8bd 4010 	ldmia.w	sp!, {r4, lr}
 8004420:	f000 b928 	b.w	8004674 <USBD_LL_StallEP>

08004424 <USBD_GetString>:
 8004424:	b530      	push	{r4, r5, lr}
 8004426:	b188      	cbz	r0, 800444c <USBD_GetString+0x28>
 8004428:	2400      	movs	r4, #0
 800442a:	3801      	subs	r0, #1
 800442c:	4623      	mov	r3, r4
 800442e:	3401      	adds	r4, #1
 8004430:	5d05      	ldrb	r5, [r0, r4]
 8004432:	2d00      	cmp	r5, #0
 8004434:	d1fa      	bne.n	800442c <USBD_GetString+0x8>
 8004436:	b2db      	uxtb	r3, r3
 8004438:	3301      	adds	r3, #1
 800443a:	005b      	lsls	r3, r3, #1
 800443c:	8013      	strh	r3, [r2, #0]
 800443e:	700b      	strb	r3, [r1, #0]
 8004440:	2303      	movs	r3, #3
 8004442:	704b      	strb	r3, [r1, #1]
 8004444:	2302      	movs	r3, #2
 8004446:	f810 2f01 	ldrb.w	r2, [r0, #1]!
 800444a:	b902      	cbnz	r2, 800444e <USBD_GetString+0x2a>
 800444c:	bd30      	pop	{r4, r5, pc}
 800444e:	54ca      	strb	r2, [r1, r3]
 8004450:	1c5a      	adds	r2, r3, #1
 8004452:	b2d2      	uxtb	r2, r2
 8004454:	3302      	adds	r3, #2
 8004456:	548d      	strb	r5, [r1, r2]
 8004458:	b2db      	uxtb	r3, r3
 800445a:	e7f4      	b.n	8004446 <USBD_GetString+0x22>

0800445c <USBD_CtlSendData>:
 800445c:	b510      	push	{r4, lr}
 800445e:	2402      	movs	r4, #2
 8004460:	4613      	mov	r3, r2
 8004462:	e9c0 2206 	strd	r2, r2, [r0, #24]
 8004466:	f8c0 4294 	str.w	r4, [r0, #660]	; 0x294
 800446a:	460a      	mov	r2, r1
 800446c:	2100      	movs	r1, #0
 800446e:	f000 f91c 	bl	80046aa <USBD_LL_Transmit>
 8004472:	2000      	movs	r0, #0
 8004474:	bd10      	pop	{r4, pc}

08004476 <USBD_CtlContinueSendData>:
 8004476:	b508      	push	{r3, lr}
 8004478:	4613      	mov	r3, r2
 800447a:	460a      	mov	r2, r1
 800447c:	2100      	movs	r1, #0
 800447e:	f000 f914 	bl	80046aa <USBD_LL_Transmit>
 8004482:	2000      	movs	r0, #0
 8004484:	bd08      	pop	{r3, pc}

08004486 <USBD_CtlPrepareRx>:
 8004486:	b510      	push	{r4, lr}
 8004488:	2403      	movs	r4, #3
 800448a:	4613      	mov	r3, r2
 800448c:	e9c0 2256 	strd	r2, r2, [r0, #344]	; 0x158
 8004490:	f8c0 4294 	str.w	r4, [r0, #660]	; 0x294
 8004494:	460a      	mov	r2, r1
 8004496:	2100      	movs	r1, #0
 8004498:	f000 f910 	bl	80046bc <USBD_LL_PrepareReceive>
 800449c:	2000      	movs	r0, #0
 800449e:	bd10      	pop	{r4, pc}

080044a0 <USBD_CtlContinueRx>:
 80044a0:	b508      	push	{r3, lr}
 80044a2:	4613      	mov	r3, r2
 80044a4:	460a      	mov	r2, r1
 80044a6:	2100      	movs	r1, #0
 80044a8:	f000 f908 	bl	80046bc <USBD_LL_PrepareReceive>
 80044ac:	2000      	movs	r0, #0
 80044ae:	bd08      	pop	{r3, pc}

080044b0 <USBD_CtlSendStatus>:
 80044b0:	b508      	push	{r3, lr}
 80044b2:	2204      	movs	r2, #4
 80044b4:	2300      	movs	r3, #0
 80044b6:	f8c0 2294 	str.w	r2, [r0, #660]	; 0x294
 80044ba:	4619      	mov	r1, r3
 80044bc:	461a      	mov	r2, r3
 80044be:	f000 f8f4 	bl	80046aa <USBD_LL_Transmit>
 80044c2:	2000      	movs	r0, #0
 80044c4:	bd08      	pop	{r3, pc}

080044c6 <USBD_CtlReceiveStatus>:
 80044c6:	b508      	push	{r3, lr}
 80044c8:	2205      	movs	r2, #5
 80044ca:	2300      	movs	r3, #0
 80044cc:	f8c0 2294 	str.w	r2, [r0, #660]	; 0x294
 80044d0:	4619      	mov	r1, r3
 80044d2:	461a      	mov	r2, r3
 80044d4:	f000 f8f2 	bl	80046bc <USBD_LL_PrepareReceive>
 80044d8:	2000      	movs	r0, #0
 80044da:	bd08      	pop	{r3, pc}

080044dc <HAL_PCDEx_SetTxFiFoInBytes>:
 80044dc:	0892      	lsrs	r2, r2, #2
 80044de:	f7fd bf75 	b.w	80023cc <HAL_PCDEx_SetTxFiFo>

080044e2 <HAL_PCDEx_SetRxFiFoInBytes>:
 80044e2:	0889      	lsrs	r1, r1, #2
 80044e4:	f7fd bf92 	b.w	800240c <HAL_PCDEx_SetRxFiFo>

080044e8 <HAL_PCD_SetupStageCallback>:
 80044e8:	f200 41c4 	addw	r1, r0, #1220	; 0x4c4
 80044ec:	f8d0 0508 	ldr.w	r0, [r0, #1288]	; 0x508
 80044f0:	f7ff bc40 	b.w	8003d74 <USBD_LL_SetupStage>

080044f4 <HAL_PCD_DataOutStageCallback>:
 80044f4:	2324      	movs	r3, #36	; 0x24
 80044f6:	fb03 0301 	mla	r3, r3, r1, r0
 80044fa:	f8d0 0508 	ldr.w	r0, [r0, #1288]	; 0x508
 80044fe:	f8d3 228c 	ldr.w	r2, [r3, #652]	; 0x28c
 8004502:	f7ff bc67 	b.w	8003dd4 <USBD_LL_DataOutStage>

08004506 <HAL_PCD_DataInStageCallback>:
 8004506:	2324      	movs	r3, #36	; 0x24
 8004508:	fb03 0301 	mla	r3, r3, r1, r0
 800450c:	f8d0 0508 	ldr.w	r0, [r0, #1288]	; 0x508
 8004510:	6cda      	ldr	r2, [r3, #76]	; 0x4c
 8004512:	f7ff bc8f 	b.w	8003e34 <USBD_LL_DataInStage>

08004516 <HAL_PCD_SOFCallback>:
 8004516:	f8d0 0508 	ldr.w	r0, [r0, #1288]	; 0x508
 800451a:	f7ff bd1e 	b.w	8003f5a <USBD_LL_SOF>

0800451e <HAL_PCD_ResetCallback>:
 800451e:	68c1      	ldr	r1, [r0, #12]
 8004520:	2902      	cmp	r1, #2
 8004522:	b510      	push	{r4, lr}
 8004524:	4604      	mov	r4, r0
 8004526:	d002      	beq.n	800452e <HAL_PCD_ResetCallback+0x10>
 8004528:	b111      	cbz	r1, 8004530 <HAL_PCD_ResetCallback+0x12>
 800452a:	f7fc fb55 	bl	8000bd8 <Error_Handler>
 800452e:	2101      	movs	r1, #1
 8004530:	f8d4 0508 	ldr.w	r0, [r4, #1288]	; 0x508
 8004534:	f7ff fcf9 	bl	8003f2a <USBD_LL_SetSpeed>
 8004538:	f8d4 0508 	ldr.w	r0, [r4, #1288]	; 0x508
 800453c:	e8bd 4010 	ldmia.w	sp!, {r4, lr}
 8004540:	f7ff bcca 	b.w	8003ed8 <USBD_LL_Reset>

08004544 <HAL_PCD_SuspendCallback>:
 8004544:	b510      	push	{r4, lr}
 8004546:	4604      	mov	r4, r0
 8004548:	f8d0 0508 	ldr.w	r0, [r0, #1288]	; 0x508
 800454c:	f7ff fcf0 	bl	8003f30 <USBD_LL_Suspend>
 8004550:	6822      	ldr	r2, [r4, #0]
 8004552:	f8d2 3e00 	ldr.w	r3, [r2, #3584]	; 0xe00
 8004556:	f043 0301 	orr.w	r3, r3, #1
 800455a:	f8c2 3e00 	str.w	r3, [r2, #3584]	; 0xe00
 800455e:	6a23      	ldr	r3, [r4, #32]
 8004560:	b123      	cbz	r3, 800456c <HAL_PCD_SuspendCallback+0x28>
 8004562:	4a03      	ldr	r2, [pc, #12]	; (8004570 <HAL_PCD_SuspendCallback+0x2c>)
 8004564:	6913      	ldr	r3, [r2, #16]
 8004566:	f043 0306 	orr.w	r3, r3, #6
 800456a:	6113      	str	r3, [r2, #16]
 800456c:	bd10      	pop	{r4, pc}
 800456e:	bf00      	nop
 8004570:	e000ed00 	.word	0xe000ed00

08004574 <HAL_PCD_ResumeCallback>:
 8004574:	f8d0 0508 	ldr.w	r0, [r0, #1288]	; 0x508
 8004578:	f7ff bce4 	b.w	8003f44 <USBD_LL_Resume>

0800457c <HAL_PCD_ISOOUTIncompleteCallback>:
 800457c:	f8d0 0508 	ldr.w	r0, [r0, #1288]	; 0x508
 8004580:	f7ff bd0d 	b.w	8003f9e <USBD_LL_IsoOUTIncomplete>

08004584 <HAL_PCD_ISOINIncompleteCallback>:
 8004584:	f8d0 0508 	ldr.w	r0, [r0, #1288]	; 0x508
 8004588:	f7ff bcf8 	b.w	8003f7c <USBD_LL_IsoINIncomplete>

0800458c <HAL_PCD_ConnectCallback>:
 800458c:	f8d0 0508 	ldr.w	r0, [r0, #1288]	; 0x508
 8004590:	f7ff bd16 	b.w	8003fc0 <USBD_LL_DevConnected>

08004594 <HAL_PCD_DisconnectCallback>:
 8004594:	f8d0 0508 	ldr.w	r0, [r0, #1288]	; 0x508
 8004598:	f7ff bd14 	b.w	8003fc4 <USBD_LL_DevDisconnected>

0800459c <USBD_LL_Init>:
 800459c:	b538      	push	{r3, r4, r5, lr}
 800459e:	4c12      	ldr	r4, [pc, #72]	; (80045e8 <USBD_LL_Init+0x4c>)
 80045a0:	4b12      	ldr	r3, [pc, #72]	; (80045ec <USBD_LL_Init+0x50>)
 80045a2:	6023      	str	r3, [r4, #0]
 80045a4:	7805      	ldrb	r5, [r0, #0]
 80045a6:	b9ed      	cbnz	r5, 80045e4 <USBD_LL_Init+0x48>
 80045a8:	f8c3 0508 	str.w	r0, [r3, #1288]	; 0x508
 80045ac:	f44f 7100 	mov.w	r1, #512	; 0x200
 80045b0:	f8c0 3310 	str.w	r3, [r0, #784]	; 0x310
 80045b4:	4618      	mov	r0, r3
 80045b6:	f7ff ff94 	bl	80044e2 <HAL_PCDEx_SetRxFiFoInBytes>
 80045ba:	2240      	movs	r2, #64	; 0x40
 80045bc:	4629      	mov	r1, r5
 80045be:	6820      	ldr	r0, [r4, #0]
 80045c0:	f7ff ff8c 	bl	80044dc <HAL_PCDEx_SetTxFiFoInBytes>
 80045c4:	4b0a      	ldr	r3, [pc, #40]	; (80045f0 <USBD_LL_Init+0x54>)
 80045c6:	6820      	ldr	r0, [r4, #0]
 80045c8:	7819      	ldrb	r1, [r3, #0]
 80045ca:	2280      	movs	r2, #128	; 0x80
 80045cc:	f001 017f 	and.w	r1, r1, #127	; 0x7f
 80045d0:	f7ff ff84 	bl	80044dc <HAL_PCDEx_SetTxFiFoInBytes>
 80045d4:	4b07      	ldr	r3, [pc, #28]	; (80045f4 <USBD_LL_Init+0x58>)
 80045d6:	6820      	ldr	r0, [r4, #0]
 80045d8:	7819      	ldrb	r1, [r3, #0]
 80045da:	2240      	movs	r2, #64	; 0x40
 80045dc:	f001 017f 	and.w	r1, r1, #127	; 0x7f
 80045e0:	f7ff ff7c 	bl	80044dc <HAL_PCDEx_SetTxFiFoInBytes>
 80045e4:	2000      	movs	r0, #0
 80045e6:	bd38      	pop	{r3, r4, r5, pc}
 80045e8:	200010e0 	.word	0x200010e0
 80045ec:	20000330 	.word	0x20000330
 80045f0:	20001003 	.word	0x20001003
 80045f4:	20001000 	.word	0x20001000

080045f8 <USBD_LL_IsStallEP>:
 80045f8:	f011 0f80 	tst.w	r1, #128	; 0x80
 80045fc:	f8d0 3310 	ldr.w	r3, [r0, #784]	; 0x310
 8004600:	f04f 0224 	mov.w	r2, #36	; 0x24
 8004604:	bf1b      	ittet	ne
 8004606:	f001 017f 	andne.w	r1, r1, #127	; 0x7f
 800460a:	fb02 3101 	mlane	r1, r2, r1, r3
 800460e:	fb02 3101 	mlaeq	r1, r2, r1, r3
 8004612:	f891 003e 	ldrbne.w	r0, [r1, #62]	; 0x3e
 8004616:	bf08      	it	eq
 8004618:	f891 027e 	ldrbeq.w	r0, [r1, #638]	; 0x27e
 800461c:	4770      	bx	lr

0800461e <USBD_LL_GetRxDataSize>:
 800461e:	f8d0 0310 	ldr.w	r0, [r0, #784]	; 0x310
 8004622:	f7fd bae6 	b.w	8001bf2 <HAL_PCD_EP_GetRxCount>
	...

08004628 <USBD_Get_USB_Status>:
 8004628:	2803      	cmp	r0, #3
 800462a:	bf9a      	itte	ls
 800462c:	4b01      	ldrls	r3, [pc, #4]	; (8004634 <USBD_Get_USB_Status+0xc>)
 800462e:	5c18      	ldrbls	r0, [r3, r0]
 8004630:	2003      	movhi	r0, #3
 8004632:	4770      	bx	lr
 8004634:	08006c16 	.word	0x08006c16

08004638 <USBD_LL_Start>:
 8004638:	b508      	push	{r3, lr}
 800463a:	f8d0 0310 	ldr.w	r0, [r0, #784]	; 0x310
 800463e:	f7fd fa1a 	bl	8001a76 <HAL_PCD_Start>
 8004642:	e8bd 4008 	ldmia.w	sp!, {r3, lr}
 8004646:	f7ff bfef 	b.w	8004628 <USBD_Get_USB_Status>

0800464a <USBD_LL_OpenEP>:
 800464a:	b510      	push	{r4, lr}
 800464c:	4614      	mov	r4, r2
 800464e:	f8d0 0310 	ldr.w	r0, [r0, #784]	; 0x310
 8004652:	461a      	mov	r2, r3
 8004654:	4623      	mov	r3, r4
 8004656:	f7fd fa41 	bl	8001adc <HAL_PCD_EP_Open>
 800465a:	e8bd 4010 	ldmia.w	sp!, {r4, lr}
 800465e:	f7ff bfe3 	b.w	8004628 <USBD_Get_USB_Status>

08004662 <USBD_LL_CloseEP>:
 8004662:	b508      	push	{r3, lr}
 8004664:	f8d0 0310 	ldr.w	r0, [r0, #784]	; 0x310
 8004668:	f7fd fa70 	bl	8001b4c <HAL_PCD_EP_Close>
 800466c:	e8bd 4008 	ldmia.w	sp!, {r3, lr}
 8004670:	f7ff bfda 	b.w	8004628 <USBD_Get_USB_Status>

08004674 <USBD_LL_StallEP>:
 8004674:	b508      	push	{r3, lr}
 8004676:	f8d0 0310 	ldr.w	r0, [r0, #784]	; 0x310
 800467a:	f7fd fae2 	bl	8001c42 <HAL_PCD_EP_SetStall>
 800467e:	e8bd 4008 	ldmia.w	sp!, {r3, lr}
 8004682:	f7ff bfd1 	b.w	8004628 <USBD_Get_USB_Status>

08004686 <USBD_LL_ClearStallEP>:
 8004686:	b508      	push	{r3, lr}
 8004688:	f8d0 0310 	ldr.w	r0, [r0, #784]	; 0x310
 800468c:	f7fd fb11 	bl	8001cb2 <HAL_PCD_EP_ClrStall>
 8004690:	e8bd 4008 	ldmia.w	sp!, {r3, lr}
 8004694:	f7ff bfc8 	b.w	8004628 <USBD_Get_USB_Status>

08004698 <USBD_LL_SetUSBAddress>:
 8004698:	b508      	push	{r3, lr}
 800469a:	f8d0 0310 	ldr.w	r0, [r0, #784]	; 0x310
 800469e:	f7fd fa09 	bl	8001ab4 <HAL_PCD_SetAddress>
 80046a2:	e8bd 4008 	ldmia.w	sp!, {r3, lr}
 80046a6:	f7ff bfbf 	b.w	8004628 <USBD_Get_USB_Status>

080046aa <USBD_LL_Transmit>:
 80046aa:	b508      	push	{r3, lr}
 80046ac:	f8d0 0310 	ldr.w	r0, [r0, #784]	; 0x310
 80046b0:	f7fd faa7 	bl	8001c02 <HAL_PCD_EP_Transmit>
 80046b4:	e8bd 4008 	ldmia.w	sp!, {r3, lr}
 80046b8:	f7ff bfb6 	b.w	8004628 <USBD_Get_USB_Status>

080046bc <USBD_LL_PrepareReceive>:
 80046bc:	b508      	push	{r3, lr}
 80046be:	f8d0 0310 	ldr.w	r0, [r0, #784]	; 0x310
 80046c2:	f7fd fa72 	bl	8001baa <HAL_PCD_EP_Receive>
 80046c6:	e8bd 4008 	ldmia.w	sp!, {r3, lr}
 80046ca:	f7ff bfad 	b.w	8004628 <USBD_Get_USB_Status>
	...

080046d0 <osKernelInitialize>:
 80046d0:	f3ef 8305 	mrs	r3, IPSR
 80046d4:	b92b      	cbnz	r3, 80046e2 <osKernelInitialize+0x12>
 80046d6:	4b06      	ldr	r3, [pc, #24]	; (80046f0 <osKernelInitialize+0x20>)
 80046d8:	6818      	ldr	r0, [r3, #0]
 80046da:	b928      	cbnz	r0, 80046e8 <osKernelInitialize+0x18>
 80046dc:	2201      	movs	r2, #1
 80046de:	601a      	str	r2, [r3, #0]
 80046e0:	4770      	bx	lr
 80046e2:	f06f 0005 	mvn.w	r0, #5
 80046e6:	4770      	bx	lr
 80046e8:	f04f 30ff 	mov.w	r0, #4294967295
 80046ec:	4770      	bx	lr
 80046ee:	bf00      	nop
 80046f0:	20001340 	.word	0x20001340

080046f4 <osKernelStart>:
 80046f4:	b510      	push	{r4, lr}
 80046f6:	f3ef 8405 	mrs	r4, IPSR
 80046fa:	b95c      	cbnz	r4, 8004714 <osKernelStart+0x20>
 80046fc:	4b08      	ldr	r3, [pc, #32]	; (8004720 <osKernelStart+0x2c>)
 80046fe:	681a      	ldr	r2, [r3, #0]
 8004700:	2a01      	cmp	r2, #1
 8004702:	d10a      	bne.n	800471a <osKernelStart+0x26>
 8004704:	4a07      	ldr	r2, [pc, #28]	; (8004724 <osKernelStart+0x30>)
 8004706:	77d4      	strb	r4, [r2, #31]
 8004708:	2202      	movs	r2, #2
 800470a:	601a      	str	r2, [r3, #0]
 800470c:	f000 fd88 	bl	8005220 <vTaskStartScheduler>
 8004710:	4620      	mov	r0, r4
 8004712:	bd10      	pop	{r4, pc}
 8004714:	f06f 0005 	mvn.w	r0, #5
 8004718:	e7fb      	b.n	8004712 <osKernelStart+0x1e>
 800471a:	f04f 30ff 	mov.w	r0, #4294967295
 800471e:	e7f8      	b.n	8004712 <osKernelStart+0x1e>
 8004720:	20001340 	.word	0x20001340
 8004724:	e000ed00 	.word	0xe000ed00

08004728 <osThreadNew>:
 8004728:	b5f0      	push	{r4, r5, r6, r7, lr}
 800472a:	b087      	sub	sp, #28
 800472c:	4614      	mov	r4, r2
 800472e:	2200      	movs	r2, #0
 8004730:	460b      	mov	r3, r1
 8004732:	9205      	str	r2, [sp, #20]
 8004734:	f3ef 8205 	mrs	r2, IPSR
 8004738:	b9d2      	cbnz	r2, 8004770 <osThreadNew+0x48>
 800473a:	b1c8      	cbz	r0, 8004770 <osThreadNew+0x48>
 800473c:	2c00      	cmp	r4, #0
 800473e:	d02f      	beq.n	80047a0 <osThreadNew+0x78>
 8004740:	69a5      	ldr	r5, [r4, #24]
 8004742:	2d00      	cmp	r5, #0
 8004744:	bf08      	it	eq
 8004746:	2518      	moveq	r5, #24
 8004748:	1e69      	subs	r1, r5, #1
 800474a:	2937      	cmp	r1, #55	; 0x37
 800474c:	46ac      	mov	ip, r5
 800474e:	d82b      	bhi.n	80047a8 <osThreadNew+0x80>
 8004750:	6861      	ldr	r1, [r4, #4]
 8004752:	07c9      	lsls	r1, r1, #31
 8004754:	d428      	bmi.n	80047a8 <osThreadNew+0x80>
 8004756:	6966      	ldr	r6, [r4, #20]
 8004758:	b16e      	cbz	r6, 8004776 <osThreadNew+0x4e>
 800475a:	08b2      	lsrs	r2, r6, #2
 800475c:	e9d4 7e02 	ldrd	r7, lr, [r4, #8]
 8004760:	6821      	ldr	r1, [r4, #0]
 8004762:	b157      	cbz	r7, 800477a <osThreadNew+0x52>
 8004764:	f1be 0f5b 	cmp.w	lr, #91	; 0x5b
 8004768:	d902      	bls.n	8004770 <osThreadNew+0x48>
 800476a:	6924      	ldr	r4, [r4, #16]
 800476c:	b104      	cbz	r4, 8004770 <osThreadNew+0x48>
 800476e:	b9ee      	cbnz	r6, 80047ac <osThreadNew+0x84>
 8004770:	9805      	ldr	r0, [sp, #20]
 8004772:	b007      	add	sp, #28
 8004774:	bdf0      	pop	{r4, r5, r6, r7, pc}
 8004776:	2280      	movs	r2, #128	; 0x80
 8004778:	e7f0      	b.n	800475c <osThreadNew+0x34>
 800477a:	f1be 0f00 	cmp.w	lr, #0
 800477e:	d1f7      	bne.n	8004770 <osThreadNew+0x48>
 8004780:	6924      	ldr	r4, [r4, #16]
 8004782:	2c00      	cmp	r4, #0
 8004784:	d1f4      	bne.n	8004770 <osThreadNew+0x48>
 8004786:	460c      	mov	r4, r1
 8004788:	a905      	add	r1, sp, #20
 800478a:	e9cd c100 	strd	ip, r1, [sp]
 800478e:	b292      	uxth	r2, r2
 8004790:	4621      	mov	r1, r4
 8004792:	f000 fd18 	bl	80051c6 <xTaskCreate>
 8004796:	2801      	cmp	r0, #1
 8004798:	bf1c      	itt	ne
 800479a:	2300      	movne	r3, #0
 800479c:	9305      	strne	r3, [sp, #20]
 800479e:	e7e7      	b.n	8004770 <osThreadNew+0x48>
 80047a0:	f04f 0c18 	mov.w	ip, #24
 80047a4:	2280      	movs	r2, #128	; 0x80
 80047a6:	e7ef      	b.n	8004788 <osThreadNew+0x60>
 80047a8:	4610      	mov	r0, r2
 80047aa:	e7e2      	b.n	8004772 <osThreadNew+0x4a>
 80047ac:	e9cd 4701 	strd	r4, r7, [sp, #4]
 80047b0:	9500      	str	r5, [sp, #0]
 80047b2:	f000 fcd0 	bl	8005156 <xTaskCreateStatic>
 80047b6:	9005      	str	r0, [sp, #20]
 80047b8:	e7da      	b.n	8004770 <osThreadNew+0x48>

080047ba <osDelay>:
 80047ba:	b510      	push	{r4, lr}
 80047bc:	f3ef 8405 	mrs	r4, IPSR
 80047c0:	b924      	cbnz	r4, 80047cc <osDelay+0x12>
 80047c2:	b110      	cbz	r0, 80047ca <osDelay+0x10>
 80047c4:	f000 fe8a 	bl	80054dc <vTaskDelay>
 80047c8:	4620      	mov	r0, r4
 80047ca:	bd10      	pop	{r4, pc}
 80047cc:	f06f 0005 	mvn.w	r0, #5
 80047d0:	e7fb      	b.n	80047ca <osDelay+0x10>
	...

080047d4 <vApplicationGetIdleTaskMemory>:
 80047d4:	4b03      	ldr	r3, [pc, #12]	; (80047e4 <vApplicationGetIdleTaskMemory+0x10>)
 80047d6:	6003      	str	r3, [r0, #0]
 80047d8:	4b03      	ldr	r3, [pc, #12]	; (80047e8 <vApplicationGetIdleTaskMemory+0x14>)
 80047da:	600b      	str	r3, [r1, #0]
 80047dc:	2380      	movs	r3, #128	; 0x80
 80047de:	6013      	str	r3, [r2, #0]
 80047e0:	4770      	bx	lr
 80047e2:	bf00      	nop
 80047e4:	200012e4 	.word	0x200012e4
 80047e8:	200010e4 	.word	0x200010e4

080047ec <vApplicationGetTimerTaskMemory>:
 80047ec:	4b03      	ldr	r3, [pc, #12]	; (80047fc <vApplicationGetTimerTaskMemory+0x10>)
 80047ee:	6003      	str	r3, [r0, #0]
 80047f0:	4b03      	ldr	r3, [pc, #12]	; (8004800 <vApplicationGetTimerTaskMemory+0x14>)
 80047f2:	600b      	str	r3, [r1, #0]
 80047f4:	f44f 7380 	mov.w	r3, #256	; 0x100
 80047f8:	6013      	str	r3, [r2, #0]
 80047fa:	4770      	bx	lr
 80047fc:	20001744 	.word	0x20001744
 8004800:	20001344 	.word	0x20001344

08004804 <vListInitialise>:
 8004804:	f100 0308 	add.w	r3, r0, #8
 8004808:	f04f 32ff 	mov.w	r2, #4294967295
 800480c:	e9c0 2302 	strd	r2, r3, [r0, #8]
 8004810:	6043      	str	r3, [r0, #4]
 8004812:	6103      	str	r3, [r0, #16]
 8004814:	2300      	movs	r3, #0
 8004816:	6003      	str	r3, [r0, #0]
 8004818:	4770      	bx	lr

0800481a <vListInitialiseItem>:
 800481a:	2300      	movs	r3, #0
 800481c:	6103      	str	r3, [r0, #16]
 800481e:	4770      	bx	lr

08004820 <vListInsertEnd>:
 8004820:	6843      	ldr	r3, [r0, #4]
 8004822:	604b      	str	r3, [r1, #4]
 8004824:	689a      	ldr	r2, [r3, #8]
 8004826:	608a      	str	r2, [r1, #8]
 8004828:	689a      	ldr	r2, [r3, #8]
 800482a:	6051      	str	r1, [r2, #4]
 800482c:	6099      	str	r1, [r3, #8]
 800482e:	6803      	ldr	r3, [r0, #0]
 8004830:	6108      	str	r0, [r1, #16]
 8004832:	3301      	adds	r3, #1
 8004834:	6003      	str	r3, [r0, #0]
 8004836:	4770      	bx	lr

08004838 <vListInsert>:
 8004838:	b530      	push	{r4, r5, lr}
 800483a:	680c      	ldr	r4, [r1, #0]
 800483c:	1c63      	adds	r3, r4, #1
 800483e:	d10a      	bne.n	8004856 <vListInsert+0x1e>
 8004840:	6903      	ldr	r3, [r0, #16]
 8004842:	685a      	ldr	r2, [r3, #4]
 8004844:	604a      	str	r2, [r1, #4]
 8004846:	6091      	str	r1, [r2, #8]
 8004848:	608b      	str	r3, [r1, #8]
 800484a:	6059      	str	r1, [r3, #4]
 800484c:	6803      	ldr	r3, [r0, #0]
 800484e:	6108      	str	r0, [r1, #16]
 8004850:	3301      	adds	r3, #1
 8004852:	6003      	str	r3, [r0, #0]
 8004854:	bd30      	pop	{r4, r5, pc}
 8004856:	f100 0208 	add.w	r2, r0, #8
 800485a:	4613      	mov	r3, r2
 800485c:	6852      	ldr	r2, [r2, #4]
 800485e:	6815      	ldr	r5, [r2, #0]
 8004860:	42a5      	cmp	r5, r4
 8004862:	d9fa      	bls.n	800485a <vListInsert+0x22>
 8004864:	e7ed      	b.n	8004842 <vListInsert+0xa>

08004866 <uxListRemove>:
 8004866:	e9d0 1201 	ldrd	r1, r2, [r0, #4]
 800486a:	6903      	ldr	r3, [r0, #16]
 800486c:	608a      	str	r2, [r1, #8]
 800486e:	6051      	str	r1, [r2, #4]
 8004870:	6859      	ldr	r1, [r3, #4]
 8004872:	4281      	cmp	r1, r0
 8004874:	bf08      	it	eq
 8004876:	605a      	streq	r2, [r3, #4]
 8004878:	2200      	movs	r2, #0
 800487a:	6102      	str	r2, [r0, #16]
 800487c:	681a      	ldr	r2, [r3, #0]
 800487e:	3a01      	subs	r2, #1
 8004880:	601a      	str	r2, [r3, #0]
 8004882:	6818      	ldr	r0, [r3, #0]
 8004884:	4770      	bx	lr

08004886 <prvIsQueueEmpty>:
 8004886:	b510      	push	{r4, lr}
 8004888:	4604      	mov	r4, r0
 800488a:	f001 f9fb 	bl	8005c84 <vPortEnterCritical>
 800488e:	6ba4      	ldr	r4, [r4, #56]	; 0x38
 8004890:	f001 fa18 	bl	8005cc4 <vPortExitCritical>
 8004894:	fab4 f084 	clz	r0, r4
 8004898:	0940      	lsrs	r0, r0, #5
 800489a:	bd10      	pop	{r4, pc}

0800489c <prvCopyDataToQueue>:
 800489c:	b5f8      	push	{r3, r4, r5, r6, r7, lr}
 800489e:	4615      	mov	r5, r2
 80048a0:	6c02      	ldr	r2, [r0, #64]	; 0x40
 80048a2:	6b86      	ldr	r6, [r0, #56]	; 0x38
 80048a4:	4604      	mov	r4, r0
 80048a6:	b952      	cbnz	r2, 80048be <prvCopyDataToQueue+0x22>
 80048a8:	6807      	ldr	r7, [r0, #0]
 80048aa:	bb47      	cbnz	r7, 80048fe <prvCopyDataToQueue+0x62>
 80048ac:	6880      	ldr	r0, [r0, #8]
 80048ae:	f000 ff4d 	bl	800574c <xTaskPriorityDisinherit>
 80048b2:	60a7      	str	r7, [r4, #8]
 80048b4:	4605      	mov	r5, r0
 80048b6:	3601      	adds	r6, #1
 80048b8:	63a6      	str	r6, [r4, #56]	; 0x38
 80048ba:	4628      	mov	r0, r5
 80048bc:	bdf8      	pop	{r3, r4, r5, r6, r7, pc}
 80048be:	b965      	cbnz	r5, 80048da <prvCopyDataToQueue+0x3e>
 80048c0:	6840      	ldr	r0, [r0, #4]
 80048c2:	f001 fc47 	bl	8006154 <memcpy>
 80048c6:	6863      	ldr	r3, [r4, #4]
 80048c8:	6c22      	ldr	r2, [r4, #64]	; 0x40
 80048ca:	4413      	add	r3, r2
 80048cc:	68a2      	ldr	r2, [r4, #8]
 80048ce:	6063      	str	r3, [r4, #4]
 80048d0:	4293      	cmp	r3, r2
 80048d2:	d3f0      	bcc.n	80048b6 <prvCopyDataToQueue+0x1a>
 80048d4:	6823      	ldr	r3, [r4, #0]
 80048d6:	6063      	str	r3, [r4, #4]
 80048d8:	e7ed      	b.n	80048b6 <prvCopyDataToQueue+0x1a>
 80048da:	68c0      	ldr	r0, [r0, #12]
 80048dc:	f001 fc3a 	bl	8006154 <memcpy>
 80048e0:	6c22      	ldr	r2, [r4, #64]	; 0x40
 80048e2:	68e3      	ldr	r3, [r4, #12]
 80048e4:	4251      	negs	r1, r2
 80048e6:	1a9b      	subs	r3, r3, r2
 80048e8:	6822      	ldr	r2, [r4, #0]
 80048ea:	60e3      	str	r3, [r4, #12]
 80048ec:	4293      	cmp	r3, r2
 80048ee:	bf3e      	ittt	cc
 80048f0:	68a3      	ldrcc	r3, [r4, #8]
 80048f2:	185b      	addcc	r3, r3, r1
 80048f4:	60e3      	strcc	r3, [r4, #12]
 80048f6:	2d02      	cmp	r5, #2
 80048f8:	d101      	bne.n	80048fe <prvCopyDataToQueue+0x62>
 80048fa:	b116      	cbz	r6, 8004902 <prvCopyDataToQueue+0x66>
 80048fc:	3e01      	subs	r6, #1
 80048fe:	2500      	movs	r5, #0
 8004900:	e7d9      	b.n	80048b6 <prvCopyDataToQueue+0x1a>
 8004902:	4635      	mov	r5, r6
 8004904:	e7d7      	b.n	80048b6 <prvCopyDataToQueue+0x1a>

08004906 <prvCopyDataFromQueue>:
 8004906:	4603      	mov	r3, r0
 8004908:	b410      	push	{r4}
 800490a:	6c1a      	ldr	r2, [r3, #64]	; 0x40
 800490c:	4608      	mov	r0, r1
 800490e:	b16a      	cbz	r2, 800492c <prvCopyDataFromQueue+0x26>
 8004910:	68dc      	ldr	r4, [r3, #12]
 8004912:	6899      	ldr	r1, [r3, #8]
 8004914:	4414      	add	r4, r2
 8004916:	428c      	cmp	r4, r1
 8004918:	bf28      	it	cs
 800491a:	6819      	ldrcs	r1, [r3, #0]
 800491c:	60dc      	str	r4, [r3, #12]
 800491e:	bf28      	it	cs
 8004920:	60d9      	strcs	r1, [r3, #12]
 8004922:	68d9      	ldr	r1, [r3, #12]
 8004924:	f85d 4b04 	ldr.w	r4, [sp], #4
 8004928:	f001 bc14 	b.w	8006154 <memcpy>
 800492c:	f85d 4b04 	ldr.w	r4, [sp], #4
 8004930:	4770      	bx	lr

08004932 <prvUnlockQueue>:
 8004932:	b570      	push	{r4, r5, r6, lr}
 8004934:	4604      	mov	r4, r0
 8004936:	f001 f9a5 	bl	8005c84 <vPortEnterCritical>
 800493a:	f894 5045 	ldrb.w	r5, [r4, #69]	; 0x45
 800493e:	f104 0624 	add.w	r6, r4, #36	; 0x24
 8004942:	b26d      	sxtb	r5, r5
 8004944:	2d00      	cmp	r5, #0
 8004946:	dc14      	bgt.n	8004972 <prvUnlockQueue+0x40>
 8004948:	23ff      	movs	r3, #255	; 0xff
 800494a:	f884 3045 	strb.w	r3, [r4, #69]	; 0x45
 800494e:	f001 f9b9 	bl	8005cc4 <vPortExitCritical>
 8004952:	f001 f997 	bl	8005c84 <vPortEnterCritical>
 8004956:	f894 5044 	ldrb.w	r5, [r4, #68]	; 0x44
 800495a:	f104 0610 	add.w	r6, r4, #16
 800495e:	b26d      	sxtb	r5, r5
 8004960:	2d00      	cmp	r5, #0
 8004962:	dc12      	bgt.n	800498a <prvUnlockQueue+0x58>
 8004964:	23ff      	movs	r3, #255	; 0xff
 8004966:	f884 3044 	strb.w	r3, [r4, #68]	; 0x44
 800496a:	e8bd 4070 	ldmia.w	sp!, {r4, r5, r6, lr}
 800496e:	f001 b9a9 	b.w	8005cc4 <vPortExitCritical>
 8004972:	6a63      	ldr	r3, [r4, #36]	; 0x24
 8004974:	2b00      	cmp	r3, #0
 8004976:	d0e7      	beq.n	8004948 <prvUnlockQueue+0x16>
 8004978:	4630      	mov	r0, r6
 800497a:	f000 fe45 	bl	8005608 <xTaskRemoveFromEventList>
 800497e:	b108      	cbz	r0, 8004984 <prvUnlockQueue+0x52>
 8004980:	f000 fece 	bl	8005720 <vTaskMissedYield>
 8004984:	3d01      	subs	r5, #1
 8004986:	b26d      	sxtb	r5, r5
 8004988:	e7dc      	b.n	8004944 <prvUnlockQueue+0x12>
 800498a:	6923      	ldr	r3, [r4, #16]
 800498c:	2b00      	cmp	r3, #0
 800498e:	d0e9      	beq.n	8004964 <prvUnlockQueue+0x32>
 8004990:	4630      	mov	r0, r6
 8004992:	f000 fe39 	bl	8005608 <xTaskRemoveFromEventList>
 8004996:	b108      	cbz	r0, 800499c <prvUnlockQueue+0x6a>
 8004998:	f000 fec2 	bl	8005720 <vTaskMissedYield>
 800499c:	3d01      	subs	r5, #1
 800499e:	b26d      	sxtb	r5, r5
 80049a0:	e7de      	b.n	8004960 <prvUnlockQueue+0x2e>

080049a2 <xQueueGenericReset>:
 80049a2:	b538      	push	{r3, r4, r5, lr}
 80049a4:	460d      	mov	r5, r1
 80049a6:	4604      	mov	r4, r0
 80049a8:	b940      	cbnz	r0, 80049bc <xQueueGenericReset+0x1a>
 80049aa:	f04f 0350 	mov.w	r3, #80	; 0x50
 80049ae:	f383 8811 	msr	BASEPRI, r3
 80049b2:	f3bf 8f6f 	isb	sy
 80049b6:	f3bf 8f4f 	dsb	sy
 80049ba:	e7fe      	b.n	80049ba <xQueueGenericReset+0x18>
 80049bc:	f001 f962 	bl	8005c84 <vPortEnterCritical>
 80049c0:	e9d4 310f 	ldrd	r3, r1, [r4, #60]	; 0x3c
 80049c4:	6822      	ldr	r2, [r4, #0]
 80049c6:	6062      	str	r2, [r4, #4]
 80049c8:	434b      	muls	r3, r1
 80049ca:	18d0      	adds	r0, r2, r3
 80049cc:	1a5b      	subs	r3, r3, r1
 80049ce:	4413      	add	r3, r2
 80049d0:	60a0      	str	r0, [r4, #8]
 80049d2:	60e3      	str	r3, [r4, #12]
 80049d4:	2000      	movs	r0, #0
 80049d6:	23ff      	movs	r3, #255	; 0xff
 80049d8:	63a0      	str	r0, [r4, #56]	; 0x38
 80049da:	f884 3044 	strb.w	r3, [r4, #68]	; 0x44
 80049de:	f884 3045 	strb.w	r3, [r4, #69]	; 0x45
 80049e2:	b9a5      	cbnz	r5, 8004a0e <xQueueGenericReset+0x6c>
 80049e4:	6923      	ldr	r3, [r4, #16]
 80049e6:	b173      	cbz	r3, 8004a06 <xQueueGenericReset+0x64>
 80049e8:	f104 0010 	add.w	r0, r4, #16
 80049ec:	f000 fe0c 	bl	8005608 <xTaskRemoveFromEventList>
 80049f0:	b148      	cbz	r0, 8004a06 <xQueueGenericReset+0x64>
 80049f2:	f04f 23e0 	mov.w	r3, #3758153728	; 0xe000e000
 80049f6:	f04f 5280 	mov.w	r2, #268435456	; 0x10000000
 80049fa:	f8c3 2d04 	str.w	r2, [r3, #3332]	; 0xd04
 80049fe:	f3bf 8f4f 	dsb	sy
 8004a02:	f3bf 8f6f 	isb	sy
 8004a06:	f001 f95d 	bl	8005cc4 <vPortExitCritical>
 8004a0a:	2001      	movs	r0, #1
 8004a0c:	bd38      	pop	{r3, r4, r5, pc}
 8004a0e:	f104 0010 	add.w	r0, r4, #16
 8004a12:	f7ff fef7 	bl	8004804 <vListInitialise>
 8004a16:	f104 0024 	add.w	r0, r4, #36	; 0x24
 8004a1a:	f7ff fef3 	bl	8004804 <vListInitialise>
 8004a1e:	e7f2      	b.n	8004a06 <xQueueGenericReset+0x64>

08004a20 <xQueueGenericCreateStatic>:
 8004a20:	b513      	push	{r0, r1, r4, lr}
 8004a22:	461c      	mov	r4, r3
 8004a24:	b940      	cbnz	r0, 8004a38 <xQueueGenericCreateStatic+0x18>
 8004a26:	f04f 0350 	mov.w	r3, #80	; 0x50
 8004a2a:	f383 8811 	msr	BASEPRI, r3
 8004a2e:	f3bf 8f6f 	isb	sy
 8004a32:	f3bf 8f4f 	dsb	sy
 8004a36:	e7fe      	b.n	8004a36 <xQueueGenericCreateStatic+0x16>
 8004a38:	b943      	cbnz	r3, 8004a4c <xQueueGenericCreateStatic+0x2c>
 8004a3a:	f04f 0350 	mov.w	r3, #80	; 0x50
 8004a3e:	f383 8811 	msr	BASEPRI, r3
 8004a42:	f3bf 8f6f 	isb	sy
 8004a46:	f3bf 8f4f 	dsb	sy
 8004a4a:	e7fe      	b.n	8004a4a <xQueueGenericCreateStatic+0x2a>
 8004a4c:	b14a      	cbz	r2, 8004a62 <xQueueGenericCreateStatic+0x42>
 8004a4e:	b991      	cbnz	r1, 8004a76 <xQueueGenericCreateStatic+0x56>
 8004a50:	f04f 0350 	mov.w	r3, #80	; 0x50
 8004a54:	f383 8811 	msr	BASEPRI, r3
 8004a58:	f3bf 8f6f 	isb	sy
 8004a5c:	f3bf 8f4f 	dsb	sy
 8004a60:	e7fe      	b.n	8004a60 <xQueueGenericCreateStatic+0x40>
 8004a62:	b141      	cbz	r1, 8004a76 <xQueueGenericCreateStatic+0x56>
 8004a64:	f04f 0350 	mov.w	r3, #80	; 0x50
 8004a68:	f383 8811 	msr	BASEPRI, r3
 8004a6c:	f3bf 8f6f 	isb	sy
 8004a70:	f3bf 8f4f 	dsb	sy
 8004a74:	e7fe      	b.n	8004a74 <xQueueGenericCreateStatic+0x54>
 8004a76:	2350      	movs	r3, #80	; 0x50
 8004a78:	9301      	str	r3, [sp, #4]
 8004a7a:	9b01      	ldr	r3, [sp, #4]
 8004a7c:	2b50      	cmp	r3, #80	; 0x50
 8004a7e:	d008      	beq.n	8004a92 <xQueueGenericCreateStatic+0x72>
 8004a80:	f04f 0350 	mov.w	r3, #80	; 0x50
 8004a84:	f383 8811 	msr	BASEPRI, r3
 8004a88:	f3bf 8f6f 	isb	sy
 8004a8c:	f3bf 8f4f 	dsb	sy
 8004a90:	e7fe      	b.n	8004a90 <xQueueGenericCreateStatic+0x70>
 8004a92:	2900      	cmp	r1, #0
 8004a94:	bf08      	it	eq
 8004a96:	4622      	moveq	r2, r4
 8004a98:	9b01      	ldr	r3, [sp, #4]
 8004a9a:	6022      	str	r2, [r4, #0]
 8004a9c:	2301      	movs	r3, #1
 8004a9e:	e9c4 010f 	strd	r0, r1, [r4, #60]	; 0x3c
 8004aa2:	f884 3046 	strb.w	r3, [r4, #70]	; 0x46
 8004aa6:	4619      	mov	r1, r3
 8004aa8:	4620      	mov	r0, r4
 8004aaa:	f7ff ff7a 	bl	80049a2 <xQueueGenericReset>
 8004aae:	f89d 3010 	ldrb.w	r3, [sp, #16]
 8004ab2:	f884 304c 	strb.w	r3, [r4, #76]	; 0x4c
 8004ab6:	4620      	mov	r0, r4
 8004ab8:	b002      	add	sp, #8
 8004aba:	bd10      	pop	{r4, pc}

08004abc <xQueueGenericSend>:
 8004abc:	e92d 43f0 	stmdb	sp!, {r4, r5, r6, r7, r8, r9, lr}
 8004ac0:	b085      	sub	sp, #20
 8004ac2:	4688      	mov	r8, r1
 8004ac4:	9201      	str	r2, [sp, #4]
 8004ac6:	461f      	mov	r7, r3
 8004ac8:	4604      	mov	r4, r0
 8004aca:	b940      	cbnz	r0, 8004ade <xQueueGenericSend+0x22>
 8004acc:	f04f 0350 	mov.w	r3, #80	; 0x50
 8004ad0:	f383 8811 	msr	BASEPRI, r3
 8004ad4:	f3bf 8f6f 	isb	sy
 8004ad8:	f3bf 8f4f 	dsb	sy
 8004adc:	e7fe      	b.n	8004adc <xQueueGenericSend+0x20>
 8004ade:	b951      	cbnz	r1, 8004af6 <xQueueGenericSend+0x3a>
 8004ae0:	6c03      	ldr	r3, [r0, #64]	; 0x40
 8004ae2:	b143      	cbz	r3, 8004af6 <xQueueGenericSend+0x3a>
 8004ae4:	f04f 0350 	mov.w	r3, #80	; 0x50
 8004ae8:	f383 8811 	msr	BASEPRI, r3
 8004aec:	f3bf 8f6f 	isb	sy
 8004af0:	f3bf 8f4f 	dsb	sy
 8004af4:	e7fe      	b.n	8004af4 <xQueueGenericSend+0x38>
 8004af6:	2f02      	cmp	r7, #2
 8004af8:	d10b      	bne.n	8004b12 <xQueueGenericSend+0x56>
 8004afa:	6be3      	ldr	r3, [r4, #60]	; 0x3c
 8004afc:	2b01      	cmp	r3, #1
 8004afe:	d008      	beq.n	8004b12 <xQueueGenericSend+0x56>
 8004b00:	f04f 0350 	mov.w	r3, #80	; 0x50
 8004b04:	f383 8811 	msr	BASEPRI, r3
 8004b08:	f3bf 8f6f 	isb	sy
 8004b0c:	f3bf 8f4f 	dsb	sy
 8004b10:	e7fe      	b.n	8004b10 <xQueueGenericSend+0x54>
 8004b12:	f000 fe0b 	bl	800572c <xTaskGetSchedulerState>
 8004b16:	4606      	mov	r6, r0
 8004b18:	b950      	cbnz	r0, 8004b30 <xQueueGenericSend+0x74>
 8004b1a:	9b01      	ldr	r3, [sp, #4]
 8004b1c:	b14b      	cbz	r3, 8004b32 <xQueueGenericSend+0x76>
 8004b1e:	f04f 0350 	mov.w	r3, #80	; 0x50
 8004b22:	f383 8811 	msr	BASEPRI, r3
 8004b26:	f3bf 8f6f 	isb	sy
 8004b2a:	f3bf 8f4f 	dsb	sy
 8004b2e:	e7fe      	b.n	8004b2e <xQueueGenericSend+0x72>
 8004b30:	2600      	movs	r6, #0
 8004b32:	f04f 0900 	mov.w	r9, #0
 8004b36:	e037      	b.n	8004ba8 <xQueueGenericSend+0xec>
 8004b38:	9d01      	ldr	r5, [sp, #4]
 8004b3a:	b91d      	cbnz	r5, 8004b44 <xQueueGenericSend+0x88>
 8004b3c:	f001 f8c2 	bl	8005cc4 <vPortExitCritical>
 8004b40:	2000      	movs	r0, #0
 8004b42:	e052      	b.n	8004bea <xQueueGenericSend+0x12e>
 8004b44:	b916      	cbnz	r6, 8004b4c <xQueueGenericSend+0x90>
 8004b46:	a802      	add	r0, sp, #8
 8004b48:	f000 fda2 	bl	8005690 <vTaskInternalSetTimeOutState>
 8004b4c:	f001 f8ba 	bl	8005cc4 <vPortExitCritical>
 8004b50:	f000 fbac 	bl	80052ac <vTaskSuspendAll>
 8004b54:	f001 f896 	bl	8005c84 <vPortEnterCritical>
 8004b58:	f894 3044 	ldrb.w	r3, [r4, #68]	; 0x44
 8004b5c:	2bff      	cmp	r3, #255	; 0xff
 8004b5e:	bf08      	it	eq
 8004b60:	f884 9044 	strbeq.w	r9, [r4, #68]	; 0x44
 8004b64:	f894 3045 	ldrb.w	r3, [r4, #69]	; 0x45
 8004b68:	2bff      	cmp	r3, #255	; 0xff
 8004b6a:	bf08      	it	eq
 8004b6c:	f884 9045 	strbeq.w	r9, [r4, #69]	; 0x45
 8004b70:	f001 f8a8 	bl	8005cc4 <vPortExitCritical>
 8004b74:	a901      	add	r1, sp, #4
 8004b76:	a802      	add	r0, sp, #8
 8004b78:	f000 fd96 	bl	80056a8 <xTaskCheckForTimeOut>
 8004b7c:	2800      	cmp	r0, #0
 8004b7e:	d14a      	bne.n	8004c16 <xQueueGenericSend+0x15a>
 8004b80:	f001 f880 	bl	8005c84 <vPortEnterCritical>
 8004b84:	6ba2      	ldr	r2, [r4, #56]	; 0x38
 8004b86:	6be3      	ldr	r3, [r4, #60]	; 0x3c
 8004b88:	429a      	cmp	r2, r3
 8004b8a:	d131      	bne.n	8004bf0 <xQueueGenericSend+0x134>
 8004b8c:	f001 f89a 	bl	8005cc4 <vPortExitCritical>
 8004b90:	9901      	ldr	r1, [sp, #4]
 8004b92:	f104 0010 	add.w	r0, r4, #16
 8004b96:	f000 fcff 	bl	8005598 <vTaskPlaceOnEventList>
 8004b9a:	4620      	mov	r0, r4
 8004b9c:	f7ff fec9 	bl	8004932 <prvUnlockQueue>
 8004ba0:	f000 fc28 	bl	80053f4 <xTaskResumeAll>
 8004ba4:	b360      	cbz	r0, 8004c00 <xQueueGenericSend+0x144>
 8004ba6:	2601      	movs	r6, #1
 8004ba8:	f001 f86c 	bl	8005c84 <vPortEnterCritical>
 8004bac:	6ba2      	ldr	r2, [r4, #56]	; 0x38
 8004bae:	6be3      	ldr	r3, [r4, #60]	; 0x3c
 8004bb0:	429a      	cmp	r2, r3
 8004bb2:	d301      	bcc.n	8004bb8 <xQueueGenericSend+0xfc>
 8004bb4:	2f02      	cmp	r7, #2
 8004bb6:	d1bf      	bne.n	8004b38 <xQueueGenericSend+0x7c>
 8004bb8:	463a      	mov	r2, r7
 8004bba:	4641      	mov	r1, r8
 8004bbc:	4620      	mov	r0, r4
 8004bbe:	f7ff fe6d 	bl	800489c <prvCopyDataToQueue>
 8004bc2:	6a63      	ldr	r3, [r4, #36]	; 0x24
 8004bc4:	b11b      	cbz	r3, 8004bce <xQueueGenericSend+0x112>
 8004bc6:	f104 0024 	add.w	r0, r4, #36	; 0x24
 8004bca:	f000 fd1d 	bl	8005608 <xTaskRemoveFromEventList>
 8004bce:	b148      	cbz	r0, 8004be4 <xQueueGenericSend+0x128>
 8004bd0:	f04f 23e0 	mov.w	r3, #3758153728	; 0xe000e000
 8004bd4:	f04f 5280 	mov.w	r2, #268435456	; 0x10000000
 8004bd8:	f8c3 2d04 	str.w	r2, [r3, #3332]	; 0xd04
 8004bdc:	f3bf 8f4f 	dsb	sy
 8004be0:	f3bf 8f6f 	isb	sy
 8004be4:	f001 f86e 	bl	8005cc4 <vPortExitCritical>
 8004be8:	2001      	movs	r0, #1
 8004bea:	b005      	add	sp, #20
 8004bec:	e8bd 83f0 	ldmia.w	sp!, {r4, r5, r6, r7, r8, r9, pc}
 8004bf0:	f001 f868 	bl	8005cc4 <vPortExitCritical>
 8004bf4:	4620      	mov	r0, r4
 8004bf6:	f7ff fe9c 	bl	8004932 <prvUnlockQueue>
 8004bfa:	f000 fbfb 	bl	80053f4 <xTaskResumeAll>
 8004bfe:	e7d2      	b.n	8004ba6 <xQueueGenericSend+0xea>
 8004c00:	f04f 23e0 	mov.w	r3, #3758153728	; 0xe000e000
 8004c04:	f04f 5280 	mov.w	r2, #268435456	; 0x10000000
 8004c08:	f8c3 2d04 	str.w	r2, [r3, #3332]	; 0xd04
 8004c0c:	f3bf 8f4f 	dsb	sy
 8004c10:	f3bf 8f6f 	isb	sy
 8004c14:	e7c7      	b.n	8004ba6 <xQueueGenericSend+0xea>
 8004c16:	4620      	mov	r0, r4
 8004c18:	f7ff fe8b 	bl	8004932 <prvUnlockQueue>
 8004c1c:	f000 fbea 	bl	80053f4 <xTaskResumeAll>
 8004c20:	e78e      	b.n	8004b40 <xQueueGenericSend+0x84>

08004c22 <xQueueGenericSendFromISR>:
 8004c22:	e92d 43f8 	stmdb	sp!, {r3, r4, r5, r6, r7, r8, r9, lr}
 8004c26:	4689      	mov	r9, r1
 8004c28:	4690      	mov	r8, r2
 8004c2a:	461f      	mov	r7, r3
 8004c2c:	4604      	mov	r4, r0
 8004c2e:	b940      	cbnz	r0, 8004c42 <xQueueGenericSendFromISR+0x20>
 8004c30:	f04f 0350 	mov.w	r3, #80	; 0x50
 8004c34:	f383 8811 	msr	BASEPRI, r3
 8004c38:	f3bf 8f6f 	isb	sy
 8004c3c:	f3bf 8f4f 	dsb	sy
 8004c40:	e7fe      	b.n	8004c40 <xQueueGenericSendFromISR+0x1e>
 8004c42:	b951      	cbnz	r1, 8004c5a <xQueueGenericSendFromISR+0x38>
 8004c44:	6c03      	ldr	r3, [r0, #64]	; 0x40
 8004c46:	b143      	cbz	r3, 8004c5a <xQueueGenericSendFromISR+0x38>
 8004c48:	f04f 0350 	mov.w	r3, #80	; 0x50
 8004c4c:	f383 8811 	msr	BASEPRI, r3
 8004c50:	f3bf 8f6f 	isb	sy
 8004c54:	f3bf 8f4f 	dsb	sy
 8004c58:	e7fe      	b.n	8004c58 <xQueueGenericSendFromISR+0x36>
 8004c5a:	2f02      	cmp	r7, #2
 8004c5c:	d10b      	bne.n	8004c76 <xQueueGenericSendFromISR+0x54>
 8004c5e:	6be3      	ldr	r3, [r4, #60]	; 0x3c
 8004c60:	2b01      	cmp	r3, #1
 8004c62:	d008      	beq.n	8004c76 <xQueueGenericSendFromISR+0x54>
 8004c64:	f04f 0350 	mov.w	r3, #80	; 0x50
 8004c68:	f383 8811 	msr	BASEPRI, r3
 8004c6c:	f3bf 8f6f 	isb	sy
 8004c70:	f3bf 8f4f 	dsb	sy
 8004c74:	e7fe      	b.n	8004c74 <xQueueGenericSendFromISR+0x52>
 8004c76:	f001 f91b 	bl	8005eb0 <vPortValidateInterruptPriority>
 8004c7a:	f3ef 8611 	mrs	r6, BASEPRI
 8004c7e:	f04f 0350 	mov.w	r3, #80	; 0x50
 8004c82:	f383 8811 	msr	BASEPRI, r3
 8004c86:	f3bf 8f6f 	isb	sy
 8004c8a:	f3bf 8f4f 	dsb	sy
 8004c8e:	6ba2      	ldr	r2, [r4, #56]	; 0x38
 8004c90:	6be3      	ldr	r3, [r4, #60]	; 0x3c
 8004c92:	429a      	cmp	r2, r3
 8004c94:	d301      	bcc.n	8004c9a <xQueueGenericSendFromISR+0x78>
 8004c96:	2f02      	cmp	r7, #2
 8004c98:	d123      	bne.n	8004ce2 <xQueueGenericSendFromISR+0xc0>
 8004c9a:	f894 5045 	ldrb.w	r5, [r4, #69]	; 0x45
 8004c9e:	6ba3      	ldr	r3, [r4, #56]	; 0x38
 8004ca0:	b26d      	sxtb	r5, r5
 8004ca2:	463a      	mov	r2, r7
 8004ca4:	4649      	mov	r1, r9
 8004ca6:	4620      	mov	r0, r4
 8004ca8:	f7ff fdf8 	bl	800489c <prvCopyDataToQueue>
 8004cac:	1c6b      	adds	r3, r5, #1
 8004cae:	d113      	bne.n	8004cd8 <xQueueGenericSendFromISR+0xb6>
 8004cb0:	6a63      	ldr	r3, [r4, #36]	; 0x24
 8004cb2:	b90b      	cbnz	r3, 8004cb8 <xQueueGenericSendFromISR+0x96>
 8004cb4:	2001      	movs	r0, #1
 8004cb6:	e00b      	b.n	8004cd0 <xQueueGenericSendFromISR+0xae>
 8004cb8:	f104 0024 	add.w	r0, r4, #36	; 0x24
 8004cbc:	f000 fca4 	bl	8005608 <xTaskRemoveFromEventList>
 8004cc0:	2800      	cmp	r0, #0
 8004cc2:	d0f7      	beq.n	8004cb4 <xQueueGenericSendFromISR+0x92>
 8004cc4:	f1b8 0f00 	cmp.w	r8, #0
 8004cc8:	d0f4      	beq.n	8004cb4 <xQueueGenericSendFromISR+0x92>
 8004cca:	2001      	movs	r0, #1
 8004ccc:	f8c8 0000 	str.w	r0, [r8]
 8004cd0:	f386 8811 	msr	BASEPRI, r6
 8004cd4:	e8bd 83f8 	ldmia.w	sp!, {r3, r4, r5, r6, r7, r8, r9, pc}
 8004cd8:	3501      	adds	r5, #1
 8004cda:	b26d      	sxtb	r5, r5
 8004cdc:	f884 5045 	strb.w	r5, [r4, #69]	; 0x45
 8004ce0:	e7e8      	b.n	8004cb4 <xQueueGenericSendFromISR+0x92>
 8004ce2:	2000      	movs	r0, #0
 8004ce4:	e7f4      	b.n	8004cd0 <xQueueGenericSendFromISR+0xae>

08004ce6 <xQueueReceive>:
 8004ce6:	e92d 41ff 	stmdb	sp!, {r0, r1, r2, r3, r4, r5, r6, r7, r8, lr}
 8004cea:	460f      	mov	r7, r1
 8004cec:	9201      	str	r2, [sp, #4]
 8004cee:	4604      	mov	r4, r0
 8004cf0:	b940      	cbnz	r0, 8004d04 <xQueueReceive+0x1e>
 8004cf2:	f04f 0350 	mov.w	r3, #80	; 0x50
 8004cf6:	f383 8811 	msr	BASEPRI, r3
 8004cfa:	f3bf 8f6f 	isb	sy
 8004cfe:	f3bf 8f4f 	dsb	sy
 8004d02:	e7fe      	b.n	8004d02 <xQueueReceive+0x1c>
 8004d04:	b951      	cbnz	r1, 8004d1c <xQueueReceive+0x36>
 8004d06:	6c03      	ldr	r3, [r0, #64]	; 0x40
 8004d08:	b143      	cbz	r3, 8004d1c <xQueueReceive+0x36>
 8004d0a:	f04f 0350 	mov.w	r3, #80	; 0x50
 8004d0e:	f383 8811 	msr	BASEPRI, r3
 8004d12:	f3bf 8f6f 	isb	sy
 8004d16:	f3bf 8f4f 	dsb	sy
 8004d1a:	e7fe      	b.n	8004d1a <xQueueReceive+0x34>
 8004d1c:	f000 fd06 	bl	800572c <xTaskGetSchedulerState>
 8004d20:	4606      	mov	r6, r0
 8004d22:	b950      	cbnz	r0, 8004d3a <xQueueReceive+0x54>
 8004d24:	9b01      	ldr	r3, [sp, #4]
 8004d26:	b14b      	cbz	r3, 8004d3c <xQueueReceive+0x56>
 8004d28:	f04f 0350 	mov.w	r3, #80	; 0x50
 8004d2c:	f383 8811 	msr	BASEPRI, r3
 8004d30:	f3bf 8f6f 	isb	sy
 8004d34:	f3bf 8f4f 	dsb	sy
 8004d38:	e7fe      	b.n	8004d38 <xQueueReceive+0x52>
 8004d3a:	2600      	movs	r6, #0
 8004d3c:	f04f 0800 	mov.w	r8, #0
 8004d40:	e03d      	b.n	8004dbe <xQueueReceive+0xd8>
 8004d42:	9d01      	ldr	r5, [sp, #4]
 8004d44:	b91d      	cbnz	r5, 8004d4e <xQueueReceive+0x68>
 8004d46:	f000 ffbd 	bl	8005cc4 <vPortExitCritical>
 8004d4a:	2000      	movs	r0, #0
 8004d4c:	e056      	b.n	8004dfc <xQueueReceive+0x116>
 8004d4e:	b916      	cbnz	r6, 8004d56 <xQueueReceive+0x70>
 8004d50:	a802      	add	r0, sp, #8
 8004d52:	f000 fc9d 	bl	8005690 <vTaskInternalSetTimeOutState>
 8004d56:	f000 ffb5 	bl	8005cc4 <vPortExitCritical>
 8004d5a:	f000 faa7 	bl	80052ac <vTaskSuspendAll>
 8004d5e:	f000 ff91 	bl	8005c84 <vPortEnterCritical>
 8004d62:	f894 3044 	ldrb.w	r3, [r4, #68]	; 0x44
 8004d66:	2bff      	cmp	r3, #255	; 0xff
 8004d68:	bf08      	it	eq
 8004d6a:	f884 8044 	strbeq.w	r8, [r4, #68]	; 0x44
 8004d6e:	f894 3045 	ldrb.w	r3, [r4, #69]	; 0x45
 8004d72:	2bff      	cmp	r3, #255	; 0xff
 8004d74:	bf08      	it	eq
 8004d76:	f884 8045 	strbeq.w	r8, [r4, #69]	; 0x45
 8004d7a:	f000 ffa3 	bl	8005cc4 <vPortExitCritical>
 8004d7e:	a901      	add	r1, sp, #4
 8004d80:	a802      	add	r0, sp, #8
 8004d82:	f000 fc91 	bl	80056a8 <xTaskCheckForTimeOut>
 8004d86:	2800      	cmp	r0, #0
 8004d88:	d141      	bne.n	8004e0e <xQueueReceive+0x128>
 8004d8a:	4620      	mov	r0, r4
 8004d8c:	f7ff fd7b 	bl	8004886 <prvIsQueueEmpty>
 8004d90:	b3b8      	cbz	r0, 8004e02 <xQueueReceive+0x11c>
 8004d92:	9901      	ldr	r1, [sp, #4]
 8004d94:	f104 0024 	add.w	r0, r4, #36	; 0x24
 8004d98:	f000 fbfe 	bl	8005598 <vTaskPlaceOnEventList>
 8004d9c:	4620      	mov	r0, r4
 8004d9e:	f7ff fdc8 	bl	8004932 <prvUnlockQueue>
 8004da2:	f000 fb27 	bl	80053f4 <xTaskResumeAll>
 8004da6:	b948      	cbnz	r0, 8004dbc <xQueueReceive+0xd6>
 8004da8:	f04f 23e0 	mov.w	r3, #3758153728	; 0xe000e000
 8004dac:	f04f 5280 	mov.w	r2, #268435456	; 0x10000000
 8004db0:	f8c3 2d04 	str.w	r2, [r3, #3332]	; 0xd04
 8004db4:	f3bf 8f4f 	dsb	sy
 8004db8:	f3bf 8f6f 	isb	sy
 8004dbc:	2601      	movs	r6, #1
 8004dbe:	f000 ff61 	bl	8005c84 <vPortEnterCritical>
 8004dc2:	6ba5      	ldr	r5, [r4, #56]	; 0x38
 8004dc4:	2d00      	cmp	r5, #0
 8004dc6:	d0bc      	beq.n	8004d42 <xQueueReceive+0x5c>
 8004dc8:	4639      	mov	r1, r7
 8004dca:	4620      	mov	r0, r4
 8004dcc:	3d01      	subs	r5, #1
 8004dce:	f7ff fd9a 	bl	8004906 <prvCopyDataFromQueue>
 8004dd2:	63a5      	str	r5, [r4, #56]	; 0x38
 8004dd4:	6923      	ldr	r3, [r4, #16]
 8004dd6:	b173      	cbz	r3, 8004df6 <xQueueReceive+0x110>
 8004dd8:	f104 0010 	add.w	r0, r4, #16
 8004ddc:	f000 fc14 	bl	8005608 <xTaskRemoveFromEventList>
 8004de0:	b148      	cbz	r0, 8004df6 <xQueueReceive+0x110>
 8004de2:	f04f 23e0 	mov.w	r3, #3758153728	; 0xe000e000
 8004de6:	f04f 5280 	mov.w	r2, #268435456	; 0x10000000
 8004dea:	f8c3 2d04 	str.w	r2, [r3, #3332]	; 0xd04
 8004dee:	f3bf 8f4f 	dsb	sy
 8004df2:	f3bf 8f6f 	isb	sy
 8004df6:	f000 ff65 	bl	8005cc4 <vPortExitCritical>
 8004dfa:	2001      	movs	r0, #1
 8004dfc:	b004      	add	sp, #16
 8004dfe:	e8bd 81f0 	ldmia.w	sp!, {r4, r5, r6, r7, r8, pc}
 8004e02:	4620      	mov	r0, r4
 8004e04:	f7ff fd95 	bl	8004932 <prvUnlockQueue>
 8004e08:	f000 faf4 	bl	80053f4 <xTaskResumeAll>
 8004e0c:	e7d6      	b.n	8004dbc <xQueueReceive+0xd6>
 8004e0e:	4620      	mov	r0, r4
 8004e10:	f7ff fd8f 	bl	8004932 <prvUnlockQueue>
 8004e14:	f000 faee 	bl	80053f4 <xTaskResumeAll>
 8004e18:	4620      	mov	r0, r4
 8004e1a:	f7ff fd34 	bl	8004886 <prvIsQueueEmpty>
 8004e1e:	2800      	cmp	r0, #0
 8004e20:	d0cc      	beq.n	8004dbc <xQueueReceive+0xd6>
 8004e22:	e792      	b.n	8004d4a <xQueueReceive+0x64>

08004e24 <vQueueAddToRegistry>:
 8004e24:	b510      	push	{r4, lr}
 8004e26:	4a07      	ldr	r2, [pc, #28]	; (8004e44 <vQueueAddToRegistry+0x20>)
 8004e28:	2300      	movs	r3, #0
 8004e2a:	f852 4033 	ldr.w	r4, [r2, r3, lsl #3]
 8004e2e:	b92c      	cbnz	r4, 8004e3c <vQueueAddToRegistry+0x18>
 8004e30:	f842 1033 	str.w	r1, [r2, r3, lsl #3]
 8004e34:	eb02 03c3 	add.w	r3, r2, r3, lsl #3
 8004e38:	6058      	str	r0, [r3, #4]
 8004e3a:	bd10      	pop	{r4, pc}
 8004e3c:	3301      	adds	r3, #1
 8004e3e:	2b08      	cmp	r3, #8
 8004e40:	d1f3      	bne.n	8004e2a <vQueueAddToRegistry+0x6>
 8004e42:	e7fa      	b.n	8004e3a <vQueueAddToRegistry+0x16>
 8004e44:	200017a0 	.word	0x200017a0

08004e48 <vQueueWaitForMessageRestricted>:
 8004e48:	b570      	push	{r4, r5, r6, lr}
 8004e4a:	4604      	mov	r4, r0
 8004e4c:	460d      	mov	r5, r1
 8004e4e:	4616      	mov	r6, r2
 8004e50:	f000 ff18 	bl	8005c84 <vPortEnterCritical>
 8004e54:	f894 3044 	ldrb.w	r3, [r4, #68]	; 0x44
 8004e58:	2bff      	cmp	r3, #255	; 0xff
 8004e5a:	bf04      	itt	eq
 8004e5c:	2300      	moveq	r3, #0
 8004e5e:	f884 3044 	strbeq.w	r3, [r4, #68]	; 0x44
 8004e62:	f894 3045 	ldrb.w	r3, [r4, #69]	; 0x45
 8004e66:	2bff      	cmp	r3, #255	; 0xff
 8004e68:	bf04      	itt	eq
 8004e6a:	2300      	moveq	r3, #0
 8004e6c:	f884 3045 	strbeq.w	r3, [r4, #69]	; 0x45
 8004e70:	f000 ff28 	bl	8005cc4 <vPortExitCritical>
 8004e74:	6ba3      	ldr	r3, [r4, #56]	; 0x38
 8004e76:	b92b      	cbnz	r3, 8004e84 <vQueueWaitForMessageRestricted+0x3c>
 8004e78:	4632      	mov	r2, r6
 8004e7a:	4629      	mov	r1, r5
 8004e7c:	f104 0024 	add.w	r0, r4, #36	; 0x24
 8004e80:	f000 fba4 	bl	80055cc <vTaskPlaceOnEventListRestricted>
 8004e84:	4620      	mov	r0, r4
 8004e86:	e8bd 4070 	ldmia.w	sp!, {r4, r5, r6, lr}
 8004e8a:	f7ff bd52 	b.w	8004932 <prvUnlockQueue>
	...

08004e90 <prvAddNewTaskToReadyList>:
 8004e90:	e92d 41f0 	stmdb	sp!, {r4, r5, r6, r7, r8, lr}
 8004e94:	4604      	mov	r4, r0
 8004e96:	f000 fef5 	bl	8005c84 <vPortEnterCritical>
 8004e9a:	4b30      	ldr	r3, [pc, #192]	; (8004f5c <prvAddNewTaskToReadyList+0xcc>)
 8004e9c:	4e30      	ldr	r6, [pc, #192]	; (8004f60 <prvAddNewTaskToReadyList+0xd0>)
 8004e9e:	681a      	ldr	r2, [r3, #0]
 8004ea0:	4f30      	ldr	r7, [pc, #192]	; (8004f64 <prvAddNewTaskToReadyList+0xd4>)
 8004ea2:	3201      	adds	r2, #1
 8004ea4:	601a      	str	r2, [r3, #0]
 8004ea6:	6835      	ldr	r5, [r6, #0]
 8004ea8:	2d00      	cmp	r5, #0
 8004eaa:	d14b      	bne.n	8004f44 <prvAddNewTaskToReadyList+0xb4>
 8004eac:	6034      	str	r4, [r6, #0]
 8004eae:	681b      	ldr	r3, [r3, #0]
 8004eb0:	2b01      	cmp	r3, #1
 8004eb2:	d11f      	bne.n	8004ef4 <prvAddNewTaskToReadyList+0x64>
 8004eb4:	46b8      	mov	r8, r7
 8004eb6:	4640      	mov	r0, r8
 8004eb8:	3501      	adds	r5, #1
 8004eba:	f7ff fca3 	bl	8004804 <vListInitialise>
 8004ebe:	2d38      	cmp	r5, #56	; 0x38
 8004ec0:	f108 0814 	add.w	r8, r8, #20
 8004ec4:	d1f7      	bne.n	8004eb6 <prvAddNewTaskToReadyList+0x26>
 8004ec6:	f8df 80c4 	ldr.w	r8, [pc, #196]	; 8004f8c <prvAddNewTaskToReadyList+0xfc>
 8004eca:	4d27      	ldr	r5, [pc, #156]	; (8004f68 <prvAddNewTaskToReadyList+0xd8>)
 8004ecc:	4640      	mov	r0, r8
 8004ece:	f7ff fc99 	bl	8004804 <vListInitialise>
 8004ed2:	4628      	mov	r0, r5
 8004ed4:	f7ff fc96 	bl	8004804 <vListInitialise>
 8004ed8:	4824      	ldr	r0, [pc, #144]	; (8004f6c <prvAddNewTaskToReadyList+0xdc>)
 8004eda:	f7ff fc93 	bl	8004804 <vListInitialise>
 8004ede:	4824      	ldr	r0, [pc, #144]	; (8004f70 <prvAddNewTaskToReadyList+0xe0>)
 8004ee0:	f7ff fc90 	bl	8004804 <vListInitialise>
 8004ee4:	4823      	ldr	r0, [pc, #140]	; (8004f74 <prvAddNewTaskToReadyList+0xe4>)
 8004ee6:	f7ff fc8d 	bl	8004804 <vListInitialise>
 8004eea:	4b23      	ldr	r3, [pc, #140]	; (8004f78 <prvAddNewTaskToReadyList+0xe8>)
 8004eec:	f8c3 8000 	str.w	r8, [r3]
 8004ef0:	4b22      	ldr	r3, [pc, #136]	; (8004f7c <prvAddNewTaskToReadyList+0xec>)
 8004ef2:	601d      	str	r5, [r3, #0]
 8004ef4:	4a22      	ldr	r2, [pc, #136]	; (8004f80 <prvAddNewTaskToReadyList+0xf0>)
 8004ef6:	6813      	ldr	r3, [r2, #0]
 8004ef8:	3301      	adds	r3, #1
 8004efa:	6013      	str	r3, [r2, #0]
 8004efc:	4a21      	ldr	r2, [pc, #132]	; (8004f84 <prvAddNewTaskToReadyList+0xf4>)
 8004efe:	6463      	str	r3, [r4, #68]	; 0x44
 8004f00:	6811      	ldr	r1, [r2, #0]
 8004f02:	6ae3      	ldr	r3, [r4, #44]	; 0x2c
 8004f04:	2014      	movs	r0, #20
 8004f06:	428b      	cmp	r3, r1
 8004f08:	fb00 7003 	mla	r0, r0, r3, r7
 8004f0c:	f104 0104 	add.w	r1, r4, #4
 8004f10:	bf88      	it	hi
 8004f12:	6013      	strhi	r3, [r2, #0]
 8004f14:	f7ff fc84 	bl	8004820 <vListInsertEnd>
 8004f18:	f000 fed4 	bl	8005cc4 <vPortExitCritical>
 8004f1c:	4b1a      	ldr	r3, [pc, #104]	; (8004f88 <prvAddNewTaskToReadyList+0xf8>)
 8004f1e:	681b      	ldr	r3, [r3, #0]
 8004f20:	b173      	cbz	r3, 8004f40 <prvAddNewTaskToReadyList+0xb0>
 8004f22:	6833      	ldr	r3, [r6, #0]
 8004f24:	6ada      	ldr	r2, [r3, #44]	; 0x2c
 8004f26:	6ae3      	ldr	r3, [r4, #44]	; 0x2c
 8004f28:	429a      	cmp	r2, r3
 8004f2a:	d209      	bcs.n	8004f40 <prvAddNewTaskToReadyList+0xb0>
 8004f2c:	f04f 23e0 	mov.w	r3, #3758153728	; 0xe000e000
 8004f30:	f04f 5280 	mov.w	r2, #268435456	; 0x10000000
 8004f34:	f8c3 2d04 	str.w	r2, [r3, #3332]	; 0xd04
 8004f38:	f3bf 8f4f 	dsb	sy
 8004f3c:	f3bf 8f6f 	isb	sy
 8004f40:	e8bd 81f0 	ldmia.w	sp!, {r4, r5, r6, r7, r8, pc}
 8004f44:	4b10      	ldr	r3, [pc, #64]	; (8004f88 <prvAddNewTaskToReadyList+0xf8>)
 8004f46:	681b      	ldr	r3, [r3, #0]
 8004f48:	2b00      	cmp	r3, #0
 8004f4a:	d1d3      	bne.n	8004ef4 <prvAddNewTaskToReadyList+0x64>
 8004f4c:	6833      	ldr	r3, [r6, #0]
 8004f4e:	6ada      	ldr	r2, [r3, #44]	; 0x2c
 8004f50:	6ae3      	ldr	r3, [r4, #44]	; 0x2c
 8004f52:	429a      	cmp	r2, r3
 8004f54:	bf98      	it	ls
 8004f56:	6034      	strls	r4, [r6, #0]
 8004f58:	e7cc      	b.n	8004ef4 <prvAddNewTaskToReadyList+0x64>
 8004f5a:	bf00      	nop
 8004f5c:	20001c4c 	.word	0x20001c4c
 8004f60:	200017e0 	.word	0x200017e0
 8004f64:	200017ec 	.word	0x200017ec
 8004f68:	20001c74 	.word	0x20001c74
 8004f6c:	20001c94 	.word	0x20001c94
 8004f70:	20001cc0 	.word	0x20001cc0
 8004f74:	20001cac 	.word	0x20001cac
 8004f78:	200017e4 	.word	0x200017e4
 8004f7c:	200017e8 	.word	0x200017e8
 8004f80:	20001c58 	.word	0x20001c58
 8004f84:	20001c5c 	.word	0x20001c5c
 8004f88:	20001ca8 	.word	0x20001ca8
 8004f8c:	20001c60 	.word	0x20001c60

08004f90 <prvAddCurrentTaskToDelayedList>:
 8004f90:	b5f8      	push	{r3, r4, r5, r6, r7, lr}
 8004f92:	4b15      	ldr	r3, [pc, #84]	; (8004fe8 <prvAddCurrentTaskToDelayedList+0x58>)
 8004f94:	4e15      	ldr	r6, [pc, #84]	; (8004fec <prvAddCurrentTaskToDelayedList+0x5c>)
 8004f96:	681d      	ldr	r5, [r3, #0]
 8004f98:	4604      	mov	r4, r0
 8004f9a:	6830      	ldr	r0, [r6, #0]
 8004f9c:	3004      	adds	r0, #4
 8004f9e:	460f      	mov	r7, r1
 8004fa0:	f7ff fc61 	bl	8004866 <uxListRemove>
 8004fa4:	1c63      	adds	r3, r4, #1
 8004fa6:	d107      	bne.n	8004fb8 <prvAddCurrentTaskToDelayedList+0x28>
 8004fa8:	b137      	cbz	r7, 8004fb8 <prvAddCurrentTaskToDelayedList+0x28>
 8004faa:	6831      	ldr	r1, [r6, #0]
 8004fac:	4810      	ldr	r0, [pc, #64]	; (8004ff0 <prvAddCurrentTaskToDelayedList+0x60>)
 8004fae:	e8bd 40f8 	ldmia.w	sp!, {r3, r4, r5, r6, r7, lr}
 8004fb2:	3104      	adds	r1, #4
 8004fb4:	f7ff bc34 	b.w	8004820 <vListInsertEnd>
 8004fb8:	6833      	ldr	r3, [r6, #0]
 8004fba:	192c      	adds	r4, r5, r4
 8004fbc:	605c      	str	r4, [r3, #4]
 8004fbe:	d307      	bcc.n	8004fd0 <prvAddCurrentTaskToDelayedList+0x40>
 8004fc0:	4b0c      	ldr	r3, [pc, #48]	; (8004ff4 <prvAddCurrentTaskToDelayedList+0x64>)
 8004fc2:	6818      	ldr	r0, [r3, #0]
 8004fc4:	6831      	ldr	r1, [r6, #0]
 8004fc6:	e8bd 40f8 	ldmia.w	sp!, {r3, r4, r5, r6, r7, lr}
 8004fca:	3104      	adds	r1, #4
 8004fcc:	f7ff bc34 	b.w	8004838 <vListInsert>
 8004fd0:	4b09      	ldr	r3, [pc, #36]	; (8004ff8 <prvAddCurrentTaskToDelayedList+0x68>)
 8004fd2:	6818      	ldr	r0, [r3, #0]
 8004fd4:	6831      	ldr	r1, [r6, #0]
 8004fd6:	3104      	adds	r1, #4
 8004fd8:	f7ff fc2e 	bl	8004838 <vListInsert>
 8004fdc:	4b07      	ldr	r3, [pc, #28]	; (8004ffc <prvAddCurrentTaskToDelayedList+0x6c>)
 8004fde:	681a      	ldr	r2, [r3, #0]
 8004fe0:	42a2      	cmp	r2, r4
 8004fe2:	bf88      	it	hi
 8004fe4:	601c      	strhi	r4, [r3, #0]
 8004fe6:	bdf8      	pop	{r3, r4, r5, r6, r7, pc}
 8004fe8:	20001cd4 	.word	0x20001cd4
 8004fec:	200017e0 	.word	0x200017e0
 8004ff0:	20001cac 	.word	0x20001cac
 8004ff4:	200017e8 	.word	0x200017e8
 8004ff8:	200017e4 	.word	0x200017e4
 8004ffc:	20001c88 	.word	0x20001c88

08005000 <prvResetNextTaskUnblockTime>:
 8005000:	4a06      	ldr	r2, [pc, #24]	; (800501c <prvResetNextTaskUnblockTime+0x1c>)
 8005002:	6813      	ldr	r3, [r2, #0]
 8005004:	6819      	ldr	r1, [r3, #0]
 8005006:	4b06      	ldr	r3, [pc, #24]	; (8005020 <prvResetNextTaskUnblockTime+0x20>)
 8005008:	b919      	cbnz	r1, 8005012 <prvResetNextTaskUnblockTime+0x12>
 800500a:	f04f 32ff 	mov.w	r2, #4294967295
 800500e:	601a      	str	r2, [r3, #0]
 8005010:	4770      	bx	lr
 8005012:	6812      	ldr	r2, [r2, #0]
 8005014:	68d2      	ldr	r2, [r2, #12]
 8005016:	68d2      	ldr	r2, [r2, #12]
 8005018:	6852      	ldr	r2, [r2, #4]
 800501a:	e7f8      	b.n	800500e <prvResetNextTaskUnblockTime+0xe>
 800501c:	200017e4 	.word	0x200017e4
 8005020:	20001c88 	.word	0x20001c88

08005024 <prvDeleteTCB>:
 8005024:	b510      	push	{r4, lr}
 8005026:	f890 3059 	ldrb.w	r3, [r0, #89]	; 0x59
 800502a:	4604      	mov	r4, r0
 800502c:	b93b      	cbnz	r3, 800503e <prvDeleteTCB+0x1a>
 800502e:	6b00      	ldr	r0, [r0, #48]	; 0x30
 8005030:	f001 f828 	bl	8006084 <vPortFree>
 8005034:	4620      	mov	r0, r4
 8005036:	e8bd 4010 	ldmia.w	sp!, {r4, lr}
 800503a:	f001 b823 	b.w	8006084 <vPortFree>
 800503e:	2b01      	cmp	r3, #1
 8005040:	d0f9      	beq.n	8005036 <prvDeleteTCB+0x12>
 8005042:	2b02      	cmp	r3, #2
 8005044:	d008      	beq.n	8005058 <prvDeleteTCB+0x34>
 8005046:	f04f 0350 	mov.w	r3, #80	; 0x50
 800504a:	f383 8811 	msr	BASEPRI, r3
 800504e:	f3bf 8f6f 	isb	sy
 8005052:	f3bf 8f4f 	dsb	sy
 8005056:	e7fe      	b.n	8005056 <prvDeleteTCB+0x32>
 8005058:	bd10      	pop	{r4, pc}
	...

0800505c <prvIdleTask>:
 800505c:	b580      	push	{r7, lr}
 800505e:	4c13      	ldr	r4, [pc, #76]	; (80050ac <prvIdleTask+0x50>)
 8005060:	4f13      	ldr	r7, [pc, #76]	; (80050b0 <prvIdleTask+0x54>)
 8005062:	4d14      	ldr	r5, [pc, #80]	; (80050b4 <prvIdleTask+0x58>)
 8005064:	6823      	ldr	r3, [r4, #0]
 8005066:	b973      	cbnz	r3, 8005086 <prvIdleTask+0x2a>
 8005068:	4b13      	ldr	r3, [pc, #76]	; (80050b8 <prvIdleTask+0x5c>)
 800506a:	681b      	ldr	r3, [r3, #0]
 800506c:	2b01      	cmp	r3, #1
 800506e:	d9f8      	bls.n	8005062 <prvIdleTask+0x6>
 8005070:	f04f 23e0 	mov.w	r3, #3758153728	; 0xe000e000
 8005074:	f04f 5280 	mov.w	r2, #268435456	; 0x10000000
 8005078:	f8c3 2d04 	str.w	r2, [r3, #3332]	; 0xd04
 800507c:	f3bf 8f4f 	dsb	sy
 8005080:	f3bf 8f6f 	isb	sy
 8005084:	e7ed      	b.n	8005062 <prvIdleTask+0x6>
 8005086:	f000 fdfd 	bl	8005c84 <vPortEnterCritical>
 800508a:	68fb      	ldr	r3, [r7, #12]
 800508c:	68de      	ldr	r6, [r3, #12]
 800508e:	1d30      	adds	r0, r6, #4
 8005090:	f7ff fbe9 	bl	8004866 <uxListRemove>
 8005094:	682b      	ldr	r3, [r5, #0]
 8005096:	3b01      	subs	r3, #1
 8005098:	602b      	str	r3, [r5, #0]
 800509a:	6823      	ldr	r3, [r4, #0]
 800509c:	3b01      	subs	r3, #1
 800509e:	6023      	str	r3, [r4, #0]
 80050a0:	f000 fe10 	bl	8005cc4 <vPortExitCritical>
 80050a4:	4630      	mov	r0, r6
 80050a6:	f7ff ffbd 	bl	8005024 <prvDeleteTCB>
 80050aa:	e7db      	b.n	8005064 <prvIdleTask+0x8>
 80050ac:	20001c50 	.word	0x20001c50
 80050b0:	20001cc0 	.word	0x20001cc0
 80050b4:	20001c4c 	.word	0x20001c4c
 80050b8:	200017ec 	.word	0x200017ec

080050bc <prvInitialiseNewTask.constprop.0>:
 80050bc:	e92d 47f0 	stmdb	sp!, {r4, r5, r6, r7, r8, r9, sl, lr}
 80050c0:	e9dd 8409 	ldrd	r8, r4, [sp, #36]	; 0x24
 80050c4:	ea4f 0982 	mov.w	r9, r2, lsl #2
 80050c8:	464a      	mov	r2, r9
 80050ca:	4606      	mov	r6, r0
 80050cc:	460d      	mov	r5, r1
 80050ce:	6b20      	ldr	r0, [r4, #48]	; 0x30
 80050d0:	21a5      	movs	r1, #165	; 0xa5
 80050d2:	461f      	mov	r7, r3
 80050d4:	f001 f84c 	bl	8006170 <memset>
 80050d8:	6b22      	ldr	r2, [r4, #48]	; 0x30
 80050da:	f1a9 0904 	sub.w	r9, r9, #4
 80050de:	4491      	add	r9, r2
 80050e0:	f029 0907 	bic.w	r9, r9, #7
 80050e4:	b3a5      	cbz	r5, 8005150 <prvInitialiseNewTask.constprop.0+0x94>
 80050e6:	1e6b      	subs	r3, r5, #1
 80050e8:	f104 0234 	add.w	r2, r4, #52	; 0x34
 80050ec:	350f      	adds	r5, #15
 80050ee:	f813 0f01 	ldrb.w	r0, [r3, #1]!
 80050f2:	f802 0b01 	strb.w	r0, [r2], #1
 80050f6:	b108      	cbz	r0, 80050fc <prvInitialiseNewTask.constprop.0+0x40>
 80050f8:	42ab      	cmp	r3, r5
 80050fa:	d1f8      	bne.n	80050ee <prvInitialiseNewTask.constprop.0+0x32>
 80050fc:	2300      	movs	r3, #0
 80050fe:	f884 3043 	strb.w	r3, [r4, #67]	; 0x43
 8005102:	9d08      	ldr	r5, [sp, #32]
 8005104:	2d37      	cmp	r5, #55	; 0x37
 8005106:	bf28      	it	cs
 8005108:	2537      	movcs	r5, #55	; 0x37
 800510a:	f04f 0a00 	mov.w	sl, #0
 800510e:	62e5      	str	r5, [r4, #44]	; 0x2c
 8005110:	64e5      	str	r5, [r4, #76]	; 0x4c
 8005112:	1d20      	adds	r0, r4, #4
 8005114:	f8c4 a050 	str.w	sl, [r4, #80]	; 0x50
 8005118:	f7ff fb7f 	bl	800481a <vListInitialiseItem>
 800511c:	f1c5 0538 	rsb	r5, r5, #56	; 0x38
 8005120:	f104 0018 	add.w	r0, r4, #24
 8005124:	f7ff fb79 	bl	800481a <vListInitialiseItem>
 8005128:	f8c4 a054 	str.w	sl, [r4, #84]	; 0x54
 800512c:	6124      	str	r4, [r4, #16]
 800512e:	61a5      	str	r5, [r4, #24]
 8005130:	6264      	str	r4, [r4, #36]	; 0x24
 8005132:	f884 a058 	strb.w	sl, [r4, #88]	; 0x58
 8005136:	463a      	mov	r2, r7
 8005138:	4631      	mov	r1, r6
 800513a:	4648      	mov	r0, r9
 800513c:	f000 fd74 	bl	8005c28 <pxPortInitialiseStack>
 8005140:	6020      	str	r0, [r4, #0]
 8005142:	f1b8 0f00 	cmp.w	r8, #0
 8005146:	d001      	beq.n	800514c <prvInitialiseNewTask.constprop.0+0x90>
 8005148:	f8c8 4000 	str.w	r4, [r8]
 800514c:	e8bd 87f0 	ldmia.w	sp!, {r4, r5, r6, r7, r8, r9, sl, pc}
 8005150:	f884 5034 	strb.w	r5, [r4, #52]	; 0x34
 8005154:	e7d5      	b.n	8005102 <prvInitialiseNewTask.constprop.0+0x46>

08005156 <xTaskCreateStatic>:
 8005156:	b570      	push	{r4, r5, r6, lr}
 8005158:	b086      	sub	sp, #24
 800515a:	e9dd 540b 	ldrd	r5, r4, [sp, #44]	; 0x2c
 800515e:	b945      	cbnz	r5, 8005172 <xTaskCreateStatic+0x1c>
 8005160:	f04f 0350 	mov.w	r3, #80	; 0x50
 8005164:	f383 8811 	msr	BASEPRI, r3
 8005168:	f3bf 8f6f 	isb	sy
 800516c:	f3bf 8f4f 	dsb	sy
 8005170:	e7fe      	b.n	8005170 <xTaskCreateStatic+0x1a>
 8005172:	b944      	cbnz	r4, 8005186 <xTaskCreateStatic+0x30>
 8005174:	f04f 0350 	mov.w	r3, #80	; 0x50
 8005178:	f383 8811 	msr	BASEPRI, r3
 800517c:	f3bf 8f6f 	isb	sy
 8005180:	f3bf 8f4f 	dsb	sy
 8005184:	e7fe      	b.n	8005184 <xTaskCreateStatic+0x2e>
 8005186:	265c      	movs	r6, #92	; 0x5c
 8005188:	9605      	str	r6, [sp, #20]
 800518a:	9e05      	ldr	r6, [sp, #20]
 800518c:	2e5c      	cmp	r6, #92	; 0x5c
 800518e:	d008      	beq.n	80051a2 <xTaskCreateStatic+0x4c>
 8005190:	f04f 0350 	mov.w	r3, #80	; 0x50
 8005194:	f383 8811 	msr	BASEPRI, r3
 8005198:	f3bf 8f6f 	isb	sy
 800519c:	f3bf 8f4f 	dsb	sy
 80051a0:	e7fe      	b.n	80051a0 <xTaskCreateStatic+0x4a>
 80051a2:	6325      	str	r5, [r4, #48]	; 0x30
 80051a4:	2502      	movs	r5, #2
 80051a6:	f884 5059 	strb.w	r5, [r4, #89]	; 0x59
 80051aa:	ad04      	add	r5, sp, #16
 80051ac:	9501      	str	r5, [sp, #4]
 80051ae:	9d0a      	ldr	r5, [sp, #40]	; 0x28
 80051b0:	9402      	str	r4, [sp, #8]
 80051b2:	9500      	str	r5, [sp, #0]
 80051b4:	9e05      	ldr	r6, [sp, #20]
 80051b6:	f7ff ff81 	bl	80050bc <prvInitialiseNewTask.constprop.0>
 80051ba:	4620      	mov	r0, r4
 80051bc:	f7ff fe68 	bl	8004e90 <prvAddNewTaskToReadyList>
 80051c0:	9804      	ldr	r0, [sp, #16]
 80051c2:	b006      	add	sp, #24
 80051c4:	bd70      	pop	{r4, r5, r6, pc}

080051c6 <xTaskCreate>:
 80051c6:	e92d 43f0 	stmdb	sp!, {r4, r5, r6, r7, r8, r9, lr}
 80051ca:	4607      	mov	r7, r0
 80051cc:	b085      	sub	sp, #20
 80051ce:	0090      	lsls	r0, r2, #2
 80051d0:	4688      	mov	r8, r1
 80051d2:	4616      	mov	r6, r2
 80051d4:	4699      	mov	r9, r3
 80051d6:	f000 febd 	bl	8005f54 <pvPortMalloc>
 80051da:	4605      	mov	r5, r0
 80051dc:	b1e8      	cbz	r0, 800521a <xTaskCreate+0x54>
 80051de:	205c      	movs	r0, #92	; 0x5c
 80051e0:	f000 feb8 	bl	8005f54 <pvPortMalloc>
 80051e4:	4604      	mov	r4, r0
 80051e6:	b1a8      	cbz	r0, 8005214 <xTaskCreate+0x4e>
 80051e8:	2300      	movs	r3, #0
 80051ea:	f880 3059 	strb.w	r3, [r0, #89]	; 0x59
 80051ee:	9b0d      	ldr	r3, [sp, #52]	; 0x34
 80051f0:	6305      	str	r5, [r0, #48]	; 0x30
 80051f2:	9301      	str	r3, [sp, #4]
 80051f4:	9b0c      	ldr	r3, [sp, #48]	; 0x30
 80051f6:	9002      	str	r0, [sp, #8]
 80051f8:	9300      	str	r3, [sp, #0]
 80051fa:	4632      	mov	r2, r6
 80051fc:	464b      	mov	r3, r9
 80051fe:	4641      	mov	r1, r8
 8005200:	4638      	mov	r0, r7
 8005202:	f7ff ff5b 	bl	80050bc <prvInitialiseNewTask.constprop.0>
 8005206:	4620      	mov	r0, r4
 8005208:	f7ff fe42 	bl	8004e90 <prvAddNewTaskToReadyList>
 800520c:	2001      	movs	r0, #1
 800520e:	b005      	add	sp, #20
 8005210:	e8bd 83f0 	ldmia.w	sp!, {r4, r5, r6, r7, r8, r9, pc}
 8005214:	4628      	mov	r0, r5
 8005216:	f000 ff35 	bl	8006084 <vPortFree>
 800521a:	f04f 30ff 	mov.w	r0, #4294967295
 800521e:	e7f6      	b.n	800520e <xTaskCreate+0x48>

08005220 <vTaskStartScheduler>:
 8005220:	b510      	push	{r4, lr}
 8005222:	b088      	sub	sp, #32
 8005224:	2400      	movs	r4, #0
 8005226:	aa07      	add	r2, sp, #28
 8005228:	a906      	add	r1, sp, #24
 800522a:	a805      	add	r0, sp, #20
 800522c:	e9cd 4405 	strd	r4, r4, [sp, #20]
 8005230:	f7ff fad0 	bl	80047d4 <vApplicationGetIdleTaskMemory>
 8005234:	9b05      	ldr	r3, [sp, #20]
 8005236:	9302      	str	r3, [sp, #8]
 8005238:	9b06      	ldr	r3, [sp, #24]
 800523a:	9a07      	ldr	r2, [sp, #28]
 800523c:	4916      	ldr	r1, [pc, #88]	; (8005298 <vTaskStartScheduler+0x78>)
 800523e:	4817      	ldr	r0, [pc, #92]	; (800529c <vTaskStartScheduler+0x7c>)
 8005240:	e9cd 4300 	strd	r4, r3, [sp]
 8005244:	4623      	mov	r3, r4
 8005246:	f7ff ff86 	bl	8005156 <xTaskCreateStatic>
 800524a:	b318      	cbz	r0, 8005294 <vTaskStartScheduler+0x74>
 800524c:	f000 fb14 	bl	8005878 <xTimerCreateTimerTask>
 8005250:	2801      	cmp	r0, #1
 8005252:	d114      	bne.n	800527e <vTaskStartScheduler+0x5e>
 8005254:	f04f 0350 	mov.w	r3, #80	; 0x50
 8005258:	f383 8811 	msr	BASEPRI, r3
 800525c:	f3bf 8f6f 	isb	sy
 8005260:	f3bf 8f4f 	dsb	sy
 8005264:	4b0e      	ldr	r3, [pc, #56]	; (80052a0 <vTaskStartScheduler+0x80>)
 8005266:	f04f 32ff 	mov.w	r2, #4294967295
 800526a:	601a      	str	r2, [r3, #0]
 800526c:	4b0d      	ldr	r3, [pc, #52]	; (80052a4 <vTaskStartScheduler+0x84>)
 800526e:	6018      	str	r0, [r3, #0]
 8005270:	4b0d      	ldr	r3, [pc, #52]	; (80052a8 <vTaskStartScheduler+0x88>)
 8005272:	601c      	str	r4, [r3, #0]
 8005274:	b008      	add	sp, #32
 8005276:	e8bd 4010 	ldmia.w	sp!, {r4, lr}
 800527a:	f000 bd93 	b.w	8005da4 <xPortStartScheduler>
 800527e:	3001      	adds	r0, #1
 8005280:	d108      	bne.n	8005294 <vTaskStartScheduler+0x74>
 8005282:	f04f 0350 	mov.w	r3, #80	; 0x50
 8005286:	f383 8811 	msr	BASEPRI, r3
 800528a:	f3bf 8f6f 	isb	sy
 800528e:	f3bf 8f4f 	dsb	sy
 8005292:	e7fe      	b.n	8005292 <vTaskStartScheduler+0x72>
 8005294:	b008      	add	sp, #32
 8005296:	bd10      	pop	{r4, pc}
 8005298:	08006c1a 	.word	0x08006c1a
 800529c:	0800505d 	.word	0x0800505d
 80052a0:	20001c88 	.word	0x20001c88
 80052a4:	20001ca8 	.word	0x20001ca8
 80052a8:	20001cd4 	.word	0x20001cd4

080052ac <vTaskSuspendAll>:
 80052ac:	4a02      	ldr	r2, [pc, #8]	; (80052b8 <vTaskSuspendAll+0xc>)
 80052ae:	6813      	ldr	r3, [r2, #0]
 80052b0:	3301      	adds	r3, #1
 80052b2:	6013      	str	r3, [r2, #0]
 80052b4:	4770      	bx	lr
 80052b6:	bf00      	nop
 80052b8:	20001c54 	.word	0x20001c54

080052bc <xTaskGetTickCount>:
 80052bc:	4b01      	ldr	r3, [pc, #4]	; (80052c4 <xTaskGetTickCount+0x8>)
 80052be:	6818      	ldr	r0, [r3, #0]
 80052c0:	4770      	bx	lr
 80052c2:	bf00      	nop
 80052c4:	20001cd4 	.word	0x20001cd4

080052c8 <xTaskIncrementTick>:
 80052c8:	4b3f      	ldr	r3, [pc, #252]	; (80053c8 <xTaskIncrementTick+0x100>)
 80052ca:	681b      	ldr	r3, [r3, #0]
 80052cc:	e92d 4ff7 	stmdb	sp!, {r0, r1, r2, r4, r5, r6, r7, r8, r9, sl, fp, lr}
 80052d0:	2b00      	cmp	r3, #0
 80052d2:	d173      	bne.n	80053bc <xTaskIncrementTick+0xf4>
 80052d4:	4b3d      	ldr	r3, [pc, #244]	; (80053cc <xTaskIncrementTick+0x104>)
 80052d6:	681d      	ldr	r5, [r3, #0]
 80052d8:	3501      	adds	r5, #1
 80052da:	601d      	str	r5, [r3, #0]
 80052dc:	b9bd      	cbnz	r5, 800530e <xTaskIncrementTick+0x46>
 80052de:	4b3c      	ldr	r3, [pc, #240]	; (80053d0 <xTaskIncrementTick+0x108>)
 80052e0:	681a      	ldr	r2, [r3, #0]
 80052e2:	6812      	ldr	r2, [r2, #0]
 80052e4:	b142      	cbz	r2, 80052f8 <xTaskIncrementTick+0x30>
 80052e6:	f04f 0350 	mov.w	r3, #80	; 0x50
 80052ea:	f383 8811 	msr	BASEPRI, r3
 80052ee:	f3bf 8f6f 	isb	sy
 80052f2:	f3bf 8f4f 	dsb	sy
 80052f6:	e7fe      	b.n	80052f6 <xTaskIncrementTick+0x2e>
 80052f8:	4a36      	ldr	r2, [pc, #216]	; (80053d4 <xTaskIncrementTick+0x10c>)
 80052fa:	6819      	ldr	r1, [r3, #0]
 80052fc:	6810      	ldr	r0, [r2, #0]
 80052fe:	6018      	str	r0, [r3, #0]
 8005300:	6011      	str	r1, [r2, #0]
 8005302:	4a35      	ldr	r2, [pc, #212]	; (80053d8 <xTaskIncrementTick+0x110>)
 8005304:	6813      	ldr	r3, [r2, #0]
 8005306:	3301      	adds	r3, #1
 8005308:	6013      	str	r3, [r2, #0]
 800530a:	f7ff fe79 	bl	8005000 <prvResetNextTaskUnblockTime>
 800530e:	4e33      	ldr	r6, [pc, #204]	; (80053dc <xTaskIncrementTick+0x114>)
 8005310:	4f33      	ldr	r7, [pc, #204]	; (80053e0 <xTaskIncrementTick+0x118>)
 8005312:	6833      	ldr	r3, [r6, #0]
 8005314:	f8df 80d4 	ldr.w	r8, [pc, #212]	; 80053ec <xTaskIncrementTick+0x124>
 8005318:	429d      	cmp	r5, r3
 800531a:	f04f 0400 	mov.w	r4, #0
 800531e:	d211      	bcs.n	8005344 <xTaskIncrementTick+0x7c>
 8005320:	f8d8 3000 	ldr.w	r3, [r8]
 8005324:	6adb      	ldr	r3, [r3, #44]	; 0x2c
 8005326:	2214      	movs	r2, #20
 8005328:	4353      	muls	r3, r2
 800532a:	58fb      	ldr	r3, [r7, r3]
 800532c:	2b02      	cmp	r3, #2
 800532e:	4b2d      	ldr	r3, [pc, #180]	; (80053e4 <xTaskIncrementTick+0x11c>)
 8005330:	681b      	ldr	r3, [r3, #0]
 8005332:	bf28      	it	cs
 8005334:	2401      	movcs	r4, #1
 8005336:	2b00      	cmp	r3, #0
 8005338:	bf18      	it	ne
 800533a:	2401      	movne	r4, #1
 800533c:	4620      	mov	r0, r4
 800533e:	b003      	add	sp, #12
 8005340:	e8bd 8ff0 	ldmia.w	sp!, {r4, r5, r6, r7, r8, r9, sl, fp, pc}
 8005344:	f8df 9088 	ldr.w	r9, [pc, #136]	; 80053d0 <xTaskIncrementTick+0x108>
 8005348:	f8df a0a4 	ldr.w	sl, [pc, #164]	; 80053f0 <xTaskIncrementTick+0x128>
 800534c:	f8d9 3000 	ldr.w	r3, [r9]
 8005350:	681b      	ldr	r3, [r3, #0]
 8005352:	b91b      	cbnz	r3, 800535c <xTaskIncrementTick+0x94>
 8005354:	f04f 33ff 	mov.w	r3, #4294967295
 8005358:	6033      	str	r3, [r6, #0]
 800535a:	e7e1      	b.n	8005320 <xTaskIncrementTick+0x58>
 800535c:	f8d9 3000 	ldr.w	r3, [r9]
 8005360:	68db      	ldr	r3, [r3, #12]
 8005362:	f8d3 b00c 	ldr.w	fp, [r3, #12]
 8005366:	f8db 2004 	ldr.w	r2, [fp, #4]
 800536a:	4295      	cmp	r5, r2
 800536c:	d201      	bcs.n	8005372 <xTaskIncrementTick+0xaa>
 800536e:	6032      	str	r2, [r6, #0]
 8005370:	e7d6      	b.n	8005320 <xTaskIncrementTick+0x58>
 8005372:	f10b 0104 	add.w	r1, fp, #4
 8005376:	4608      	mov	r0, r1
 8005378:	9101      	str	r1, [sp, #4]
 800537a:	f7ff fa74 	bl	8004866 <uxListRemove>
 800537e:	f8db 2028 	ldr.w	r2, [fp, #40]	; 0x28
 8005382:	9901      	ldr	r1, [sp, #4]
 8005384:	b122      	cbz	r2, 8005390 <xTaskIncrementTick+0xc8>
 8005386:	f10b 0018 	add.w	r0, fp, #24
 800538a:	f7ff fa6c 	bl	8004866 <uxListRemove>
 800538e:	9901      	ldr	r1, [sp, #4]
 8005390:	f8db 002c 	ldr.w	r0, [fp, #44]	; 0x2c
 8005394:	f8da 2000 	ldr.w	r2, [sl]
 8005398:	2314      	movs	r3, #20
 800539a:	4290      	cmp	r0, r2
 800539c:	bf88      	it	hi
 800539e:	f8ca 0000 	strhi.w	r0, [sl]
 80053a2:	fb03 7000 	mla	r0, r3, r0, r7
 80053a6:	f7ff fa3b 	bl	8004820 <vListInsertEnd>
 80053aa:	f8d8 1000 	ldr.w	r1, [r8]
 80053ae:	f8db 202c 	ldr.w	r2, [fp, #44]	; 0x2c
 80053b2:	6acb      	ldr	r3, [r1, #44]	; 0x2c
 80053b4:	429a      	cmp	r2, r3
 80053b6:	bf28      	it	cs
 80053b8:	2401      	movcs	r4, #1
 80053ba:	e7c7      	b.n	800534c <xTaskIncrementTick+0x84>
 80053bc:	4a0a      	ldr	r2, [pc, #40]	; (80053e8 <xTaskIncrementTick+0x120>)
 80053be:	6813      	ldr	r3, [r2, #0]
 80053c0:	3301      	adds	r3, #1
 80053c2:	6013      	str	r3, [r2, #0]
 80053c4:	2400      	movs	r4, #0
 80053c6:	e7b9      	b.n	800533c <xTaskIncrementTick+0x74>
 80053c8:	20001c54 	.word	0x20001c54
 80053cc:	20001cd4 	.word	0x20001cd4
 80053d0:	200017e4 	.word	0x200017e4
 80053d4:	200017e8 	.word	0x200017e8
 80053d8:	20001c8c 	.word	0x20001c8c
 80053dc:	20001c88 	.word	0x20001c88
 80053e0:	200017ec 	.word	0x200017ec
 80053e4:	20001cd8 	.word	0x20001cd8
 80053e8:	20001c90 	.word	0x20001c90
 80053ec:	200017e0 	.word	0x200017e0
 80053f0:	20001c5c 	.word	0x20001c5c

080053f4 <xTaskResumeAll>:
 80053f4:	b5f7      	push	{r0, r1, r2, r4, r5, r6, r7, lr}
 80053f6:	4c31      	ldr	r4, [pc, #196]	; (80054bc <xTaskResumeAll+0xc8>)
 80053f8:	6823      	ldr	r3, [r4, #0]
 80053fa:	b943      	cbnz	r3, 800540e <xTaskResumeAll+0x1a>
 80053fc:	f04f 0350 	mov.w	r3, #80	; 0x50
 8005400:	f383 8811 	msr	BASEPRI, r3
 8005404:	f3bf 8f6f 	isb	sy
 8005408:	f3bf 8f4f 	dsb	sy
 800540c:	e7fe      	b.n	800540c <xTaskResumeAll+0x18>
 800540e:	f000 fc39 	bl	8005c84 <vPortEnterCritical>
 8005412:	6823      	ldr	r3, [r4, #0]
 8005414:	3b01      	subs	r3, #1
 8005416:	6023      	str	r3, [r4, #0]
 8005418:	6824      	ldr	r4, [r4, #0]
 800541a:	b12c      	cbz	r4, 8005428 <xTaskResumeAll+0x34>
 800541c:	2400      	movs	r4, #0
 800541e:	f000 fc51 	bl	8005cc4 <vPortExitCritical>
 8005422:	4620      	mov	r0, r4
 8005424:	b003      	add	sp, #12
 8005426:	bdf0      	pop	{r4, r5, r6, r7, pc}
 8005428:	4b25      	ldr	r3, [pc, #148]	; (80054c0 <xTaskResumeAll+0xcc>)
 800542a:	681b      	ldr	r3, [r3, #0]
 800542c:	2b00      	cmp	r3, #0
 800542e:	d0f5      	beq.n	800541c <xTaskResumeAll+0x28>
 8005430:	4d24      	ldr	r5, [pc, #144]	; (80054c4 <xTaskResumeAll+0xd0>)
 8005432:	4e25      	ldr	r6, [pc, #148]	; (80054c8 <xTaskResumeAll+0xd4>)
 8005434:	4f25      	ldr	r7, [pc, #148]	; (80054cc <xTaskResumeAll+0xd8>)
 8005436:	e01e      	b.n	8005476 <xTaskResumeAll+0x82>
 8005438:	68eb      	ldr	r3, [r5, #12]
 800543a:	68dc      	ldr	r4, [r3, #12]
 800543c:	f104 0018 	add.w	r0, r4, #24
 8005440:	f7ff fa11 	bl	8004866 <uxListRemove>
 8005444:	1d21      	adds	r1, r4, #4
 8005446:	4608      	mov	r0, r1
 8005448:	9101      	str	r1, [sp, #4]
 800544a:	f7ff fa0c 	bl	8004866 <uxListRemove>
 800544e:	6ae3      	ldr	r3, [r4, #44]	; 0x2c
 8005450:	6832      	ldr	r2, [r6, #0]
 8005452:	9901      	ldr	r1, [sp, #4]
 8005454:	2014      	movs	r0, #20
 8005456:	4293      	cmp	r3, r2
 8005458:	fb00 7003 	mla	r0, r0, r3, r7
 800545c:	bf88      	it	hi
 800545e:	6033      	strhi	r3, [r6, #0]
 8005460:	f7ff f9de 	bl	8004820 <vListInsertEnd>
 8005464:	4b1a      	ldr	r3, [pc, #104]	; (80054d0 <xTaskResumeAll+0xdc>)
 8005466:	6ae2      	ldr	r2, [r4, #44]	; 0x2c
 8005468:	681b      	ldr	r3, [r3, #0]
 800546a:	6adb      	ldr	r3, [r3, #44]	; 0x2c
 800546c:	429a      	cmp	r2, r3
 800546e:	d302      	bcc.n	8005476 <xTaskResumeAll+0x82>
 8005470:	4b18      	ldr	r3, [pc, #96]	; (80054d4 <xTaskResumeAll+0xe0>)
 8005472:	2201      	movs	r2, #1
 8005474:	601a      	str	r2, [r3, #0]
 8005476:	682b      	ldr	r3, [r5, #0]
 8005478:	2b00      	cmp	r3, #0
 800547a:	d1dd      	bne.n	8005438 <xTaskResumeAll+0x44>
 800547c:	b10c      	cbz	r4, 8005482 <xTaskResumeAll+0x8e>
 800547e:	f7ff fdbf 	bl	8005000 <prvResetNextTaskUnblockTime>
 8005482:	4d15      	ldr	r5, [pc, #84]	; (80054d8 <xTaskResumeAll+0xe4>)
 8005484:	682c      	ldr	r4, [r5, #0]
 8005486:	b144      	cbz	r4, 800549a <xTaskResumeAll+0xa6>
 8005488:	4e12      	ldr	r6, [pc, #72]	; (80054d4 <xTaskResumeAll+0xe0>)
 800548a:	2701      	movs	r7, #1
 800548c:	f7ff ff1c 	bl	80052c8 <xTaskIncrementTick>
 8005490:	b100      	cbz	r0, 8005494 <xTaskResumeAll+0xa0>
 8005492:	6037      	str	r7, [r6, #0]
 8005494:	3c01      	subs	r4, #1
 8005496:	d1f9      	bne.n	800548c <xTaskResumeAll+0x98>
 8005498:	602c      	str	r4, [r5, #0]
 800549a:	4b0e      	ldr	r3, [pc, #56]	; (80054d4 <xTaskResumeAll+0xe0>)
 800549c:	681b      	ldr	r3, [r3, #0]
 800549e:	2b00      	cmp	r3, #0
 80054a0:	d0bc      	beq.n	800541c <xTaskResumeAll+0x28>
 80054a2:	f04f 23e0 	mov.w	r3, #3758153728	; 0xe000e000
 80054a6:	f04f 5280 	mov.w	r2, #268435456	; 0x10000000
 80054aa:	f8c3 2d04 	str.w	r2, [r3, #3332]	; 0xd04
 80054ae:	f3bf 8f4f 	dsb	sy
 80054b2:	f3bf 8f6f 	isb	sy
 80054b6:	2401      	movs	r4, #1
 80054b8:	e7b1      	b.n	800541e <xTaskResumeAll+0x2a>
 80054ba:	bf00      	nop
 80054bc:	20001c54 	.word	0x20001c54
 80054c0:	20001c4c 	.word	0x20001c4c
 80054c4:	20001c94 	.word	0x20001c94
 80054c8:	20001c5c 	.word	0x20001c5c
 80054cc:	200017ec 	.word	0x200017ec
 80054d0:	200017e0 	.word	0x200017e0
 80054d4:	20001cd8 	.word	0x20001cd8
 80054d8:	20001c90 	.word	0x20001c90

080054dc <vTaskDelay>:
 80054dc:	b508      	push	{r3, lr}
 80054de:	b950      	cbnz	r0, 80054f6 <vTaskDelay+0x1a>
 80054e0:	f04f 23e0 	mov.w	r3, #3758153728	; 0xe000e000
 80054e4:	f04f 5280 	mov.w	r2, #268435456	; 0x10000000
 80054e8:	f8c3 2d04 	str.w	r2, [r3, #3332]	; 0xd04
 80054ec:	f3bf 8f4f 	dsb	sy
 80054f0:	f3bf 8f6f 	isb	sy
 80054f4:	bd08      	pop	{r3, pc}
 80054f6:	4b0a      	ldr	r3, [pc, #40]	; (8005520 <vTaskDelay+0x44>)
 80054f8:	6819      	ldr	r1, [r3, #0]
 80054fa:	b141      	cbz	r1, 800550e <vTaskDelay+0x32>
 80054fc:	f04f 0350 	mov.w	r3, #80	; 0x50
 8005500:	f383 8811 	msr	BASEPRI, r3
 8005504:	f3bf 8f6f 	isb	sy
 8005508:	f3bf 8f4f 	dsb	sy
 800550c:	e7fe      	b.n	800550c <vTaskDelay+0x30>
 800550e:	f7ff fecd 	bl	80052ac <vTaskSuspendAll>
 8005512:	f7ff fd3d 	bl	8004f90 <prvAddCurrentTaskToDelayedList>
 8005516:	f7ff ff6d 	bl	80053f4 <xTaskResumeAll>
 800551a:	2800      	cmp	r0, #0
 800551c:	d0e0      	beq.n	80054e0 <vTaskDelay+0x4>
 800551e:	e7e9      	b.n	80054f4 <vTaskDelay+0x18>
 8005520:	20001c54 	.word	0x20001c54

08005524 <vTaskSwitchContext>:
 8005524:	4b17      	ldr	r3, [pc, #92]	; (8005584 <vTaskSwitchContext+0x60>)
 8005526:	681a      	ldr	r2, [r3, #0]
 8005528:	4b17      	ldr	r3, [pc, #92]	; (8005588 <vTaskSwitchContext+0x64>)
 800552a:	b570      	push	{r4, r5, r6, lr}
 800552c:	b112      	cbz	r2, 8005534 <vTaskSwitchContext+0x10>
 800552e:	2201      	movs	r2, #1
 8005530:	601a      	str	r2, [r3, #0]
 8005532:	bd70      	pop	{r4, r5, r6, pc}
 8005534:	4d15      	ldr	r5, [pc, #84]	; (800558c <vTaskSwitchContext+0x68>)
 8005536:	601a      	str	r2, [r3, #0]
 8005538:	682a      	ldr	r2, [r5, #0]
 800553a:	4915      	ldr	r1, [pc, #84]	; (8005590 <vTaskSwitchContext+0x6c>)
 800553c:	2614      	movs	r6, #20
 800553e:	fb06 f302 	mul.w	r3, r6, r2
 8005542:	18c8      	adds	r0, r1, r3
 8005544:	58cc      	ldr	r4, [r1, r3]
 8005546:	b18c      	cbz	r4, 800556c <vTaskSwitchContext+0x48>
 8005548:	6844      	ldr	r4, [r0, #4]
 800554a:	3308      	adds	r3, #8
 800554c:	6864      	ldr	r4, [r4, #4]
 800554e:	6044      	str	r4, [r0, #4]
 8005550:	440b      	add	r3, r1
 8005552:	429c      	cmp	r4, r3
 8005554:	bf04      	itt	eq
 8005556:	6863      	ldreq	r3, [r4, #4]
 8005558:	6043      	streq	r3, [r0, #4]
 800555a:	2314      	movs	r3, #20
 800555c:	fb03 1102 	mla	r1, r3, r2, r1
 8005560:	684b      	ldr	r3, [r1, #4]
 8005562:	68d9      	ldr	r1, [r3, #12]
 8005564:	4b0b      	ldr	r3, [pc, #44]	; (8005594 <vTaskSwitchContext+0x70>)
 8005566:	6019      	str	r1, [r3, #0]
 8005568:	602a      	str	r2, [r5, #0]
 800556a:	e7e2      	b.n	8005532 <vTaskSwitchContext+0xe>
 800556c:	b942      	cbnz	r2, 8005580 <vTaskSwitchContext+0x5c>
 800556e:	f04f 0350 	mov.w	r3, #80	; 0x50
 8005572:	f383 8811 	msr	BASEPRI, r3
 8005576:	f3bf 8f6f 	isb	sy
 800557a:	f3bf 8f4f 	dsb	sy
 800557e:	e7fe      	b.n	800557e <vTaskSwitchContext+0x5a>
 8005580:	3a01      	subs	r2, #1
 8005582:	e7dc      	b.n	800553e <vTaskSwitchContext+0x1a>
 8005584:	20001c54 	.word	0x20001c54
 8005588:	20001cd8 	.word	0x20001cd8
 800558c:	20001c5c 	.word	0x20001c5c
 8005590:	200017ec 	.word	0x200017ec
 8005594:	200017e0 	.word	0x200017e0

08005598 <vTaskPlaceOnEventList>:
 8005598:	b510      	push	{r4, lr}
 800559a:	460c      	mov	r4, r1
 800559c:	b940      	cbnz	r0, 80055b0 <vTaskPlaceOnEventList+0x18>
 800559e:	f04f 0350 	mov.w	r3, #80	; 0x50
 80055a2:	f383 8811 	msr	BASEPRI, r3
 80055a6:	f3bf 8f6f 	isb	sy
 80055aa:	f3bf 8f4f 	dsb	sy
 80055ae:	e7fe      	b.n	80055ae <vTaskPlaceOnEventList+0x16>
 80055b0:	4b05      	ldr	r3, [pc, #20]	; (80055c8 <vTaskPlaceOnEventList+0x30>)
 80055b2:	6819      	ldr	r1, [r3, #0]
 80055b4:	3118      	adds	r1, #24
 80055b6:	f7ff f93f 	bl	8004838 <vListInsert>
 80055ba:	4620      	mov	r0, r4
 80055bc:	2101      	movs	r1, #1
 80055be:	e8bd 4010 	ldmia.w	sp!, {r4, lr}
 80055c2:	f7ff bce5 	b.w	8004f90 <prvAddCurrentTaskToDelayedList>
 80055c6:	bf00      	nop
 80055c8:	200017e0 	.word	0x200017e0

080055cc <vTaskPlaceOnEventListRestricted>:
 80055cc:	b538      	push	{r3, r4, r5, lr}
 80055ce:	460d      	mov	r5, r1
 80055d0:	4614      	mov	r4, r2
 80055d2:	b940      	cbnz	r0, 80055e6 <vTaskPlaceOnEventListRestricted+0x1a>
 80055d4:	f04f 0350 	mov.w	r3, #80	; 0x50
 80055d8:	f383 8811 	msr	BASEPRI, r3
 80055dc:	f3bf 8f6f 	isb	sy
 80055e0:	f3bf 8f4f 	dsb	sy
 80055e4:	e7fe      	b.n	80055e4 <vTaskPlaceOnEventListRestricted+0x18>
 80055e6:	4b07      	ldr	r3, [pc, #28]	; (8005604 <vTaskPlaceOnEventListRestricted+0x38>)
 80055e8:	6819      	ldr	r1, [r3, #0]
 80055ea:	3118      	adds	r1, #24
 80055ec:	f7ff f918 	bl	8004820 <vListInsertEnd>
 80055f0:	2c00      	cmp	r4, #0
 80055f2:	4621      	mov	r1, r4
 80055f4:	bf0c      	ite	eq
 80055f6:	4628      	moveq	r0, r5
 80055f8:	f04f 30ff 	movne.w	r0, #4294967295
 80055fc:	e8bd 4038 	ldmia.w	sp!, {r3, r4, r5, lr}
 8005600:	f7ff bcc6 	b.w	8004f90 <prvAddCurrentTaskToDelayedList>
 8005604:	200017e0 	.word	0x200017e0

08005608 <xTaskRemoveFromEventList>:
 8005608:	68c3      	ldr	r3, [r0, #12]
 800560a:	b513      	push	{r0, r1, r4, lr}
 800560c:	68dc      	ldr	r4, [r3, #12]
 800560e:	b944      	cbnz	r4, 8005622 <xTaskRemoveFromEventList+0x1a>
 8005610:	f04f 0350 	mov.w	r3, #80	; 0x50
 8005614:	f383 8811 	msr	BASEPRI, r3
 8005618:	f3bf 8f6f 	isb	sy
 800561c:	f3bf 8f4f 	dsb	sy
 8005620:	e7fe      	b.n	8005620 <xTaskRemoveFromEventList+0x18>
 8005622:	f104 0118 	add.w	r1, r4, #24
 8005626:	4608      	mov	r0, r1
 8005628:	9101      	str	r1, [sp, #4]
 800562a:	f7ff f91c 	bl	8004866 <uxListRemove>
 800562e:	4b12      	ldr	r3, [pc, #72]	; (8005678 <xTaskRemoveFromEventList+0x70>)
 8005630:	9901      	ldr	r1, [sp, #4]
 8005632:	681b      	ldr	r3, [r3, #0]
 8005634:	b9eb      	cbnz	r3, 8005672 <xTaskRemoveFromEventList+0x6a>
 8005636:	1d21      	adds	r1, r4, #4
 8005638:	4608      	mov	r0, r1
 800563a:	9101      	str	r1, [sp, #4]
 800563c:	f7ff f913 	bl	8004866 <uxListRemove>
 8005640:	4a0e      	ldr	r2, [pc, #56]	; (800567c <xTaskRemoveFromEventList+0x74>)
 8005642:	6ae3      	ldr	r3, [r4, #44]	; 0x2c
 8005644:	6810      	ldr	r0, [r2, #0]
 8005646:	9901      	ldr	r1, [sp, #4]
 8005648:	4283      	cmp	r3, r0
 800564a:	bf88      	it	hi
 800564c:	6013      	strhi	r3, [r2, #0]
 800564e:	4a0c      	ldr	r2, [pc, #48]	; (8005680 <xTaskRemoveFromEventList+0x78>)
 8005650:	2014      	movs	r0, #20
 8005652:	fb00 2003 	mla	r0, r0, r3, r2
 8005656:	f7ff f8e3 	bl	8004820 <vListInsertEnd>
 800565a:	4b0a      	ldr	r3, [pc, #40]	; (8005684 <xTaskRemoveFromEventList+0x7c>)
 800565c:	6ae2      	ldr	r2, [r4, #44]	; 0x2c
 800565e:	681b      	ldr	r3, [r3, #0]
 8005660:	6adb      	ldr	r3, [r3, #44]	; 0x2c
 8005662:	429a      	cmp	r2, r3
 8005664:	bf85      	ittet	hi
 8005666:	4b08      	ldrhi	r3, [pc, #32]	; (8005688 <xTaskRemoveFromEventList+0x80>)
 8005668:	2001      	movhi	r0, #1
 800566a:	2000      	movls	r0, #0
 800566c:	6018      	strhi	r0, [r3, #0]
 800566e:	b002      	add	sp, #8
 8005670:	bd10      	pop	{r4, pc}
 8005672:	4806      	ldr	r0, [pc, #24]	; (800568c <xTaskRemoveFromEventList+0x84>)
 8005674:	e7ef      	b.n	8005656 <xTaskRemoveFromEventList+0x4e>
 8005676:	bf00      	nop
 8005678:	20001c54 	.word	0x20001c54
 800567c:	20001c5c 	.word	0x20001c5c
 8005680:	200017ec 	.word	0x200017ec
 8005684:	200017e0 	.word	0x200017e0
 8005688:	20001cd8 	.word	0x20001cd8
 800568c:	20001c94 	.word	0x20001c94

08005690 <vTaskInternalSetTimeOutState>:
 8005690:	4b03      	ldr	r3, [pc, #12]	; (80056a0 <vTaskInternalSetTimeOutState+0x10>)
 8005692:	681b      	ldr	r3, [r3, #0]
 8005694:	6003      	str	r3, [r0, #0]
 8005696:	4b03      	ldr	r3, [pc, #12]	; (80056a4 <vTaskInternalSetTimeOutState+0x14>)
 8005698:	681b      	ldr	r3, [r3, #0]
 800569a:	6043      	str	r3, [r0, #4]
 800569c:	4770      	bx	lr
 800569e:	bf00      	nop
 80056a0:	20001c8c 	.word	0x20001c8c
 80056a4:	20001cd4 	.word	0x20001cd4

080056a8 <xTaskCheckForTimeOut>:
 80056a8:	b570      	push	{r4, r5, r6, lr}
 80056aa:	460c      	mov	r4, r1
 80056ac:	4605      	mov	r5, r0
 80056ae:	b940      	cbnz	r0, 80056c2 <xTaskCheckForTimeOut+0x1a>
 80056b0:	f04f 0350 	mov.w	r3, #80	; 0x50
 80056b4:	f383 8811 	msr	BASEPRI, r3
 80056b8:	f3bf 8f6f 	isb	sy
 80056bc:	f3bf 8f4f 	dsb	sy
 80056c0:	e7fe      	b.n	80056c0 <xTaskCheckForTimeOut+0x18>
 80056c2:	b941      	cbnz	r1, 80056d6 <xTaskCheckForTimeOut+0x2e>
 80056c4:	f04f 0350 	mov.w	r3, #80	; 0x50
 80056c8:	f383 8811 	msr	BASEPRI, r3
 80056cc:	f3bf 8f6f 	isb	sy
 80056d0:	f3bf 8f4f 	dsb	sy
 80056d4:	e7fe      	b.n	80056d4 <xTaskCheckForTimeOut+0x2c>
 80056d6:	f000 fad5 	bl	8005c84 <vPortEnterCritical>
 80056da:	4b0f      	ldr	r3, [pc, #60]	; (8005718 <xTaskCheckForTimeOut+0x70>)
 80056dc:	6819      	ldr	r1, [r3, #0]
 80056de:	6823      	ldr	r3, [r4, #0]
 80056e0:	1c5a      	adds	r2, r3, #1
 80056e2:	d010      	beq.n	8005706 <xTaskCheckForTimeOut+0x5e>
 80056e4:	480d      	ldr	r0, [pc, #52]	; (800571c <xTaskCheckForTimeOut+0x74>)
 80056e6:	682e      	ldr	r6, [r5, #0]
 80056e8:	6800      	ldr	r0, [r0, #0]
 80056ea:	686a      	ldr	r2, [r5, #4]
 80056ec:	4286      	cmp	r6, r0
 80056ee:	d001      	beq.n	80056f4 <xTaskCheckForTimeOut+0x4c>
 80056f0:	428a      	cmp	r2, r1
 80056f2:	d90f      	bls.n	8005714 <xTaskCheckForTimeOut+0x6c>
 80056f4:	1a88      	subs	r0, r1, r2
 80056f6:	4283      	cmp	r3, r0
 80056f8:	d90a      	bls.n	8005710 <xTaskCheckForTimeOut+0x68>
 80056fa:	1a5b      	subs	r3, r3, r1
 80056fc:	4413      	add	r3, r2
 80056fe:	6023      	str	r3, [r4, #0]
 8005700:	4628      	mov	r0, r5
 8005702:	f7ff ffc5 	bl	8005690 <vTaskInternalSetTimeOutState>
 8005706:	2400      	movs	r4, #0
 8005708:	f000 fadc 	bl	8005cc4 <vPortExitCritical>
 800570c:	4620      	mov	r0, r4
 800570e:	bd70      	pop	{r4, r5, r6, pc}
 8005710:	2300      	movs	r3, #0
 8005712:	6023      	str	r3, [r4, #0]
 8005714:	2401      	movs	r4, #1
 8005716:	e7f7      	b.n	8005708 <xTaskCheckForTimeOut+0x60>
 8005718:	20001cd4 	.word	0x20001cd4
 800571c:	20001c8c 	.word	0x20001c8c

08005720 <vTaskMissedYield>:
 8005720:	4b01      	ldr	r3, [pc, #4]	; (8005728 <vTaskMissedYield+0x8>)
 8005722:	2201      	movs	r2, #1
 8005724:	601a      	str	r2, [r3, #0]
 8005726:	4770      	bx	lr
 8005728:	20001cd8 	.word	0x20001cd8

0800572c <xTaskGetSchedulerState>:
 800572c:	4b05      	ldr	r3, [pc, #20]	; (8005744 <xTaskGetSchedulerState+0x18>)
 800572e:	681b      	ldr	r3, [r3, #0]
 8005730:	b133      	cbz	r3, 8005740 <xTaskGetSchedulerState+0x14>
 8005732:	4b05      	ldr	r3, [pc, #20]	; (8005748 <xTaskGetSchedulerState+0x1c>)
 8005734:	681b      	ldr	r3, [r3, #0]
 8005736:	2b00      	cmp	r3, #0
 8005738:	bf0c      	ite	eq
 800573a:	2002      	moveq	r0, #2
 800573c:	2000      	movne	r0, #0
 800573e:	4770      	bx	lr
 8005740:	2001      	movs	r0, #1
 8005742:	4770      	bx	lr
 8005744:	20001ca8 	.word	0x20001ca8
 8005748:	20001c54 	.word	0x20001c54

0800574c <xTaskPriorityDisinherit>:
 800574c:	b513      	push	{r0, r1, r4, lr}
 800574e:	b910      	cbnz	r0, 8005756 <xTaskPriorityDisinherit+0xa>
 8005750:	2000      	movs	r0, #0
 8005752:	b002      	add	sp, #8
 8005754:	bd10      	pop	{r4, pc}
 8005756:	4b1c      	ldr	r3, [pc, #112]	; (80057c8 <xTaskPriorityDisinherit+0x7c>)
 8005758:	681c      	ldr	r4, [r3, #0]
 800575a:	4284      	cmp	r4, r0
 800575c:	d008      	beq.n	8005770 <xTaskPriorityDisinherit+0x24>
 800575e:	f04f 0350 	mov.w	r3, #80	; 0x50
 8005762:	f383 8811 	msr	BASEPRI, r3
 8005766:	f3bf 8f6f 	isb	sy
 800576a:	f3bf 8f4f 	dsb	sy
 800576e:	e7fe      	b.n	800576e <xTaskPriorityDisinherit+0x22>
 8005770:	6d23      	ldr	r3, [r4, #80]	; 0x50
 8005772:	b943      	cbnz	r3, 8005786 <xTaskPriorityDisinherit+0x3a>
 8005774:	f04f 0350 	mov.w	r3, #80	; 0x50
 8005778:	f383 8811 	msr	BASEPRI, r3
 800577c:	f3bf 8f6f 	isb	sy
 8005780:	f3bf 8f4f 	dsb	sy
 8005784:	e7fe      	b.n	8005784 <xTaskPriorityDisinherit+0x38>
 8005786:	6ae1      	ldr	r1, [r4, #44]	; 0x2c
 8005788:	6ce2      	ldr	r2, [r4, #76]	; 0x4c
 800578a:	3b01      	subs	r3, #1
 800578c:	4291      	cmp	r1, r2
 800578e:	6523      	str	r3, [r4, #80]	; 0x50
 8005790:	d0de      	beq.n	8005750 <xTaskPriorityDisinherit+0x4>
 8005792:	2b00      	cmp	r3, #0
 8005794:	d1dc      	bne.n	8005750 <xTaskPriorityDisinherit+0x4>
 8005796:	1d21      	adds	r1, r4, #4
 8005798:	4608      	mov	r0, r1
 800579a:	9101      	str	r1, [sp, #4]
 800579c:	f7ff f863 	bl	8004866 <uxListRemove>
 80057a0:	6ce3      	ldr	r3, [r4, #76]	; 0x4c
 80057a2:	9901      	ldr	r1, [sp, #4]
 80057a4:	62e3      	str	r3, [r4, #44]	; 0x2c
 80057a6:	f1c3 0238 	rsb	r2, r3, #56	; 0x38
 80057aa:	61a2      	str	r2, [r4, #24]
 80057ac:	4a07      	ldr	r2, [pc, #28]	; (80057cc <xTaskPriorityDisinherit+0x80>)
 80057ae:	6810      	ldr	r0, [r2, #0]
 80057b0:	4283      	cmp	r3, r0
 80057b2:	bf88      	it	hi
 80057b4:	6013      	strhi	r3, [r2, #0]
 80057b6:	4a06      	ldr	r2, [pc, #24]	; (80057d0 <xTaskPriorityDisinherit+0x84>)
 80057b8:	2014      	movs	r0, #20
 80057ba:	fb00 2003 	mla	r0, r0, r3, r2
 80057be:	f7ff f82f 	bl	8004820 <vListInsertEnd>
 80057c2:	2001      	movs	r0, #1
 80057c4:	e7c5      	b.n	8005752 <xTaskPriorityDisinherit+0x6>
 80057c6:	bf00      	nop
 80057c8:	200017e0 	.word	0x200017e0
 80057cc:	20001c5c 	.word	0x20001c5c
 80057d0:	200017ec 	.word	0x200017ec

080057d4 <prvCheckForValidListAndQueue>:
 80057d4:	b5f7      	push	{r0, r1, r2, r4, r5, r6, r7, lr}
 80057d6:	4c11      	ldr	r4, [pc, #68]	; (800581c <prvCheckForValidListAndQueue+0x48>)
 80057d8:	f000 fa54 	bl	8005c84 <vPortEnterCritical>
 80057dc:	6825      	ldr	r5, [r4, #0]
 80057de:	b9bd      	cbnz	r5, 8005810 <prvCheckForValidListAndQueue+0x3c>
 80057e0:	4f0f      	ldr	r7, [pc, #60]	; (8005820 <prvCheckForValidListAndQueue+0x4c>)
 80057e2:	4e10      	ldr	r6, [pc, #64]	; (8005824 <prvCheckForValidListAndQueue+0x50>)
 80057e4:	4638      	mov	r0, r7
 80057e6:	f7ff f80d 	bl	8004804 <vListInitialise>
 80057ea:	4630      	mov	r0, r6
 80057ec:	f7ff f80a 	bl	8004804 <vListInitialise>
 80057f0:	4b0d      	ldr	r3, [pc, #52]	; (8005828 <prvCheckForValidListAndQueue+0x54>)
 80057f2:	4a0e      	ldr	r2, [pc, #56]	; (800582c <prvCheckForValidListAndQueue+0x58>)
 80057f4:	601f      	str	r7, [r3, #0]
 80057f6:	4b0e      	ldr	r3, [pc, #56]	; (8005830 <prvCheckForValidListAndQueue+0x5c>)
 80057f8:	2110      	movs	r1, #16
 80057fa:	601e      	str	r6, [r3, #0]
 80057fc:	200a      	movs	r0, #10
 80057fe:	4b0d      	ldr	r3, [pc, #52]	; (8005834 <prvCheckForValidListAndQueue+0x60>)
 8005800:	9500      	str	r5, [sp, #0]
 8005802:	f7ff f90d 	bl	8004a20 <xQueueGenericCreateStatic>
 8005806:	6020      	str	r0, [r4, #0]
 8005808:	b110      	cbz	r0, 8005810 <prvCheckForValidListAndQueue+0x3c>
 800580a:	490b      	ldr	r1, [pc, #44]	; (8005838 <prvCheckForValidListAndQueue+0x64>)
 800580c:	f7ff fb0a 	bl	8004e24 <vQueueAddToRegistry>
 8005810:	b003      	add	sp, #12
 8005812:	e8bd 40f0 	ldmia.w	sp!, {r4, r5, r6, r7, lr}
 8005816:	f000 ba55 	b.w	8005cc4 <vPortExitCritical>
 800581a:	bf00      	nop
 800581c:	20001e00 	.word	0x20001e00
 8005820:	20001d84 	.word	0x20001d84
 8005824:	20001d98 	.word	0x20001d98
 8005828:	20001cdc 	.word	0x20001cdc
 800582c:	20001ce4 	.word	0x20001ce4
 8005830:	20001ce0 	.word	0x20001ce0
 8005834:	20001db0 	.word	0x20001db0
 8005838:	08006c1f 	.word	0x08006c1f

0800583c <prvInsertTimerInActiveList>:
 800583c:	4291      	cmp	r1, r2
 800583e:	b508      	push	{r3, lr}
 8005840:	6041      	str	r1, [r0, #4]
 8005842:	6100      	str	r0, [r0, #16]
 8005844:	d80a      	bhi.n	800585c <prvInsertTimerInActiveList+0x20>
 8005846:	1ad2      	subs	r2, r2, r3
 8005848:	6983      	ldr	r3, [r0, #24]
 800584a:	429a      	cmp	r2, r3
 800584c:	d20d      	bcs.n	800586a <prvInsertTimerInActiveList+0x2e>
 800584e:	4b08      	ldr	r3, [pc, #32]	; (8005870 <prvInsertTimerInActiveList+0x34>)
 8005850:	1d01      	adds	r1, r0, #4
 8005852:	6818      	ldr	r0, [r3, #0]
 8005854:	f7fe fff0 	bl	8004838 <vListInsert>
 8005858:	2000      	movs	r0, #0
 800585a:	bd08      	pop	{r3, pc}
 800585c:	429a      	cmp	r2, r3
 800585e:	d201      	bcs.n	8005864 <prvInsertTimerInActiveList+0x28>
 8005860:	4299      	cmp	r1, r3
 8005862:	d202      	bcs.n	800586a <prvInsertTimerInActiveList+0x2e>
 8005864:	4b03      	ldr	r3, [pc, #12]	; (8005874 <prvInsertTimerInActiveList+0x38>)
 8005866:	1d01      	adds	r1, r0, #4
 8005868:	e7f3      	b.n	8005852 <prvInsertTimerInActiveList+0x16>
 800586a:	2001      	movs	r0, #1
 800586c:	e7f5      	b.n	800585a <prvInsertTimerInActiveList+0x1e>
 800586e:	bf00      	nop
 8005870:	20001ce0 	.word	0x20001ce0
 8005874:	20001cdc 	.word	0x20001cdc

08005878 <xTimerCreateTimerTask>:
 8005878:	b510      	push	{r4, lr}
 800587a:	b088      	sub	sp, #32
 800587c:	f7ff ffaa 	bl	80057d4 <prvCheckForValidListAndQueue>
 8005880:	4b12      	ldr	r3, [pc, #72]	; (80058cc <xTimerCreateTimerTask+0x54>)
 8005882:	681b      	ldr	r3, [r3, #0]
 8005884:	b1b3      	cbz	r3, 80058b4 <xTimerCreateTimerTask+0x3c>
 8005886:	2400      	movs	r4, #0
 8005888:	aa07      	add	r2, sp, #28
 800588a:	a906      	add	r1, sp, #24
 800588c:	a805      	add	r0, sp, #20
 800588e:	e9cd 4405 	strd	r4, r4, [sp, #20]
 8005892:	f7fe ffab 	bl	80047ec <vApplicationGetTimerTaskMemory>
 8005896:	9b05      	ldr	r3, [sp, #20]
 8005898:	9302      	str	r3, [sp, #8]
 800589a:	9b06      	ldr	r3, [sp, #24]
 800589c:	9301      	str	r3, [sp, #4]
 800589e:	2302      	movs	r3, #2
 80058a0:	9300      	str	r3, [sp, #0]
 80058a2:	9a07      	ldr	r2, [sp, #28]
 80058a4:	490a      	ldr	r1, [pc, #40]	; (80058d0 <xTimerCreateTimerTask+0x58>)
 80058a6:	480b      	ldr	r0, [pc, #44]	; (80058d4 <xTimerCreateTimerTask+0x5c>)
 80058a8:	4623      	mov	r3, r4
 80058aa:	f7ff fc54 	bl	8005156 <xTaskCreateStatic>
 80058ae:	4b0a      	ldr	r3, [pc, #40]	; (80058d8 <xTimerCreateTimerTask+0x60>)
 80058b0:	6018      	str	r0, [r3, #0]
 80058b2:	b940      	cbnz	r0, 80058c6 <xTimerCreateTimerTask+0x4e>
 80058b4:	f04f 0350 	mov.w	r3, #80	; 0x50
 80058b8:	f383 8811 	msr	BASEPRI, r3
 80058bc:	f3bf 8f6f 	isb	sy
 80058c0:	f3bf 8f4f 	dsb	sy
 80058c4:	e7fe      	b.n	80058c4 <xTimerCreateTimerTask+0x4c>
 80058c6:	2001      	movs	r0, #1
 80058c8:	b008      	add	sp, #32
 80058ca:	bd10      	pop	{r4, pc}
 80058cc:	20001e00 	.word	0x20001e00
 80058d0:	08006c24 	.word	0x08006c24
 80058d4:	080059e1 	.word	0x080059e1
 80058d8:	20001e04 	.word	0x20001e04

080058dc <xTimerGenericCommand>:
 80058dc:	b57f      	push	{r0, r1, r2, r3, r4, r5, r6, lr}
 80058de:	4616      	mov	r6, r2
 80058e0:	4604      	mov	r4, r0
 80058e2:	461a      	mov	r2, r3
 80058e4:	b940      	cbnz	r0, 80058f8 <xTimerGenericCommand+0x1c>
 80058e6:	f04f 0350 	mov.w	r3, #80	; 0x50
 80058ea:	f383 8811 	msr	BASEPRI, r3
 80058ee:	f3bf 8f6f 	isb	sy
 80058f2:	f3bf 8f4f 	dsb	sy
 80058f6:	e7fe      	b.n	80058f6 <xTimerGenericCommand+0x1a>
 80058f8:	4d0d      	ldr	r5, [pc, #52]	; (8005930 <xTimerGenericCommand+0x54>)
 80058fa:	6828      	ldr	r0, [r5, #0]
 80058fc:	b180      	cbz	r0, 8005920 <xTimerGenericCommand+0x44>
 80058fe:	2905      	cmp	r1, #5
 8005900:	e9cd 1600 	strd	r1, r6, [sp]
 8005904:	9402      	str	r4, [sp, #8]
 8005906:	dc0d      	bgt.n	8005924 <xTimerGenericCommand+0x48>
 8005908:	f7ff ff10 	bl	800572c <xTaskGetSchedulerState>
 800590c:	2300      	movs	r3, #0
 800590e:	2802      	cmp	r0, #2
 8005910:	bf08      	it	eq
 8005912:	9a08      	ldreq	r2, [sp, #32]
 8005914:	6828      	ldr	r0, [r5, #0]
 8005916:	bf18      	it	ne
 8005918:	461a      	movne	r2, r3
 800591a:	4669      	mov	r1, sp
 800591c:	f7ff f8ce 	bl	8004abc <xQueueGenericSend>
 8005920:	b004      	add	sp, #16
 8005922:	bd70      	pop	{r4, r5, r6, pc}
 8005924:	2300      	movs	r3, #0
 8005926:	4669      	mov	r1, sp
 8005928:	f7ff f97b 	bl	8004c22 <xQueueGenericSendFromISR>
 800592c:	e7f8      	b.n	8005920 <xTimerGenericCommand+0x44>
 800592e:	bf00      	nop
 8005930:	20001e00 	.word	0x20001e00

08005934 <prvSampleTimeNow>:
 8005934:	e92d 47ff 	stmdb	sp!, {r0, r1, r2, r3, r4, r5, r6, r7, r8, r9, sl, lr}
 8005938:	f8df 80a0 	ldr.w	r8, [pc, #160]	; 80059dc <prvSampleTimeNow+0xa8>
 800593c:	4606      	mov	r6, r0
 800593e:	f7ff fcbd 	bl	80052bc <xTaskGetTickCount>
 8005942:	f8d8 3000 	ldr.w	r3, [r8]
 8005946:	4283      	cmp	r3, r0
 8005948:	4605      	mov	r5, r0
 800594a:	d940      	bls.n	80059ce <prvSampleTimeNow+0x9a>
 800594c:	4f21      	ldr	r7, [pc, #132]	; (80059d4 <prvSampleTimeNow+0xa0>)
 800594e:	f04f 0900 	mov.w	r9, #0
 8005952:	683b      	ldr	r3, [r7, #0]
 8005954:	681a      	ldr	r2, [r3, #0]
 8005956:	b95a      	cbnz	r2, 8005970 <prvSampleTimeNow+0x3c>
 8005958:	4a1f      	ldr	r2, [pc, #124]	; (80059d8 <prvSampleTimeNow+0xa4>)
 800595a:	6811      	ldr	r1, [r2, #0]
 800595c:	6039      	str	r1, [r7, #0]
 800595e:	6013      	str	r3, [r2, #0]
 8005960:	2301      	movs	r3, #1
 8005962:	4628      	mov	r0, r5
 8005964:	6033      	str	r3, [r6, #0]
 8005966:	f8c8 5000 	str.w	r5, [r8]
 800596a:	b004      	add	sp, #16
 800596c:	e8bd 87f0 	ldmia.w	sp!, {r4, r5, r6, r7, r8, r9, sl, pc}
 8005970:	68db      	ldr	r3, [r3, #12]
 8005972:	68dc      	ldr	r4, [r3, #12]
 8005974:	f8d3 a000 	ldr.w	sl, [r3]
 8005978:	1d21      	adds	r1, r4, #4
 800597a:	4608      	mov	r0, r1
 800597c:	9103      	str	r1, [sp, #12]
 800597e:	f7fe ff72 	bl	8004866 <uxListRemove>
 8005982:	6a23      	ldr	r3, [r4, #32]
 8005984:	4620      	mov	r0, r4
 8005986:	4798      	blx	r3
 8005988:	f894 3028 	ldrb.w	r3, [r4, #40]	; 0x28
 800598c:	9903      	ldr	r1, [sp, #12]
 800598e:	f013 0f04 	tst.w	r3, #4
 8005992:	d0de      	beq.n	8005952 <prvSampleTimeNow+0x1e>
 8005994:	69a3      	ldr	r3, [r4, #24]
 8005996:	4453      	add	r3, sl
 8005998:	459a      	cmp	sl, r3
 800599a:	d205      	bcs.n	80059a8 <prvSampleTimeNow+0x74>
 800599c:	6838      	ldr	r0, [r7, #0]
 800599e:	6063      	str	r3, [r4, #4]
 80059a0:	6124      	str	r4, [r4, #16]
 80059a2:	f7fe ff49 	bl	8004838 <vListInsert>
 80059a6:	e7d4      	b.n	8005952 <prvSampleTimeNow+0x1e>
 80059a8:	2300      	movs	r3, #0
 80059aa:	f8cd 9000 	str.w	r9, [sp]
 80059ae:	4652      	mov	r2, sl
 80059b0:	4619      	mov	r1, r3
 80059b2:	4620      	mov	r0, r4
 80059b4:	f7ff ff92 	bl	80058dc <xTimerGenericCommand>
 80059b8:	2800      	cmp	r0, #0
 80059ba:	d1ca      	bne.n	8005952 <prvSampleTimeNow+0x1e>
 80059bc:	f04f 0350 	mov.w	r3, #80	; 0x50
 80059c0:	f383 8811 	msr	BASEPRI, r3
 80059c4:	f3bf 8f6f 	isb	sy
 80059c8:	f3bf 8f4f 	dsb	sy
 80059cc:	e7fe      	b.n	80059cc <prvSampleTimeNow+0x98>
 80059ce:	2300      	movs	r3, #0
 80059d0:	e7c7      	b.n	8005962 <prvSampleTimeNow+0x2e>
 80059d2:	bf00      	nop
 80059d4:	20001cdc 	.word	0x20001cdc
 80059d8:	20001ce0 	.word	0x20001ce0
 80059dc:	20001dac 	.word	0x20001dac

080059e0 <prvTimerTask>:
 80059e0:	e92d 43f0 	stmdb	sp!, {r4, r5, r6, r7, r8, r9, lr}
 80059e4:	4d6e      	ldr	r5, [pc, #440]	; (8005ba0 <prvTimerTask+0x1c0>)
 80059e6:	4e6f      	ldr	r6, [pc, #444]	; (8005ba4 <prvTimerTask+0x1c4>)
 80059e8:	b089      	sub	sp, #36	; 0x24
 80059ea:	682b      	ldr	r3, [r5, #0]
 80059ec:	f8d3 8000 	ldr.w	r8, [r3]
 80059f0:	f1b8 0f00 	cmp.w	r8, #0
 80059f4:	d035      	beq.n	8005a62 <prvTimerTask+0x82>
 80059f6:	68db      	ldr	r3, [r3, #12]
 80059f8:	f8d3 8000 	ldr.w	r8, [r3]
 80059fc:	2400      	movs	r4, #0
 80059fe:	f7ff fc55 	bl	80052ac <vTaskSuspendAll>
 8005a02:	a804      	add	r0, sp, #16
 8005a04:	f7ff ff96 	bl	8005934 <prvSampleTimeNow>
 8005a08:	9b04      	ldr	r3, [sp, #16]
 8005a0a:	4681      	mov	r9, r0
 8005a0c:	2b00      	cmp	r3, #0
 8005a0e:	d169      	bne.n	8005ae4 <prvTimerTask+0x104>
 8005a10:	2c00      	cmp	r4, #0
 8005a12:	d14c      	bne.n	8005aae <prvTimerTask+0xce>
 8005a14:	4540      	cmp	r0, r8
 8005a16:	d350      	bcc.n	8005aba <prvTimerTask+0xda>
 8005a18:	f7ff fcec 	bl	80053f4 <xTaskResumeAll>
 8005a1c:	682b      	ldr	r3, [r5, #0]
 8005a1e:	68db      	ldr	r3, [r3, #12]
 8005a20:	68df      	ldr	r7, [r3, #12]
 8005a22:	1d38      	adds	r0, r7, #4
 8005a24:	f7fe ff1f 	bl	8004866 <uxListRemove>
 8005a28:	f897 3028 	ldrb.w	r3, [r7, #40]	; 0x28
 8005a2c:	0758      	lsls	r0, r3, #29
 8005a2e:	d51a      	bpl.n	8005a66 <prvTimerTask+0x86>
 8005a30:	69b9      	ldr	r1, [r7, #24]
 8005a32:	4643      	mov	r3, r8
 8005a34:	464a      	mov	r2, r9
 8005a36:	4441      	add	r1, r8
 8005a38:	4638      	mov	r0, r7
 8005a3a:	f7ff feff 	bl	800583c <prvInsertTimerInActiveList>
 8005a3e:	b1b0      	cbz	r0, 8005a6e <prvTimerTask+0x8e>
 8005a40:	9400      	str	r4, [sp, #0]
 8005a42:	4623      	mov	r3, r4
 8005a44:	4642      	mov	r2, r8
 8005a46:	4621      	mov	r1, r4
 8005a48:	4638      	mov	r0, r7
 8005a4a:	f7ff ff47 	bl	80058dc <xTimerGenericCommand>
 8005a4e:	b970      	cbnz	r0, 8005a6e <prvTimerTask+0x8e>
 8005a50:	f04f 0350 	mov.w	r3, #80	; 0x50
 8005a54:	f383 8811 	msr	BASEPRI, r3
 8005a58:	f3bf 8f6f 	isb	sy
 8005a5c:	f3bf 8f4f 	dsb	sy
 8005a60:	e7fe      	b.n	8005a60 <prvTimerTask+0x80>
 8005a62:	2401      	movs	r4, #1
 8005a64:	e7cb      	b.n	80059fe <prvTimerTask+0x1e>
 8005a66:	f023 0301 	bic.w	r3, r3, #1
 8005a6a:	f887 3028 	strb.w	r3, [r7, #40]	; 0x28
 8005a6e:	6a3b      	ldr	r3, [r7, #32]
 8005a70:	4638      	mov	r0, r7
 8005a72:	4798      	blx	r3
 8005a74:	6830      	ldr	r0, [r6, #0]
 8005a76:	2200      	movs	r2, #0
 8005a78:	a904      	add	r1, sp, #16
 8005a7a:	f7ff f934 	bl	8004ce6 <xQueueReceive>
 8005a7e:	2800      	cmp	r0, #0
 8005a80:	d0b3      	beq.n	80059ea <prvTimerTask+0xa>
 8005a82:	9b04      	ldr	r3, [sp, #16]
 8005a84:	9806      	ldr	r0, [sp, #24]
 8005a86:	2b00      	cmp	r3, #0
 8005a88:	db2f      	blt.n	8005aea <prvTimerTask+0x10a>
 8005a8a:	9c06      	ldr	r4, [sp, #24]
 8005a8c:	6963      	ldr	r3, [r4, #20]
 8005a8e:	2b00      	cmp	r3, #0
 8005a90:	d132      	bne.n	8005af8 <prvTimerTask+0x118>
 8005a92:	a803      	add	r0, sp, #12
 8005a94:	f7ff ff4e 	bl	8005934 <prvSampleTimeNow>
 8005a98:	9b04      	ldr	r3, [sp, #16]
 8005a9a:	4602      	mov	r2, r0
 8005a9c:	2b09      	cmp	r3, #9
 8005a9e:	d8e9      	bhi.n	8005a74 <prvTimerTask+0x94>
 8005aa0:	e8df f003 	tbb	[pc, r3]
 8005aa4:	572e2e2e 	.word	0x572e2e2e
 8005aa8:	2e2e765e 	.word	0x2e2e765e
 8005aac:	5e57      	.short	0x5e57
 8005aae:	4b3e      	ldr	r3, [pc, #248]	; (8005ba8 <prvTimerTask+0x1c8>)
 8005ab0:	681b      	ldr	r3, [r3, #0]
 8005ab2:	681c      	ldr	r4, [r3, #0]
 8005ab4:	fab4 f484 	clz	r4, r4
 8005ab8:	0964      	lsrs	r4, r4, #5
 8005aba:	6830      	ldr	r0, [r6, #0]
 8005abc:	4622      	mov	r2, r4
 8005abe:	eba8 0109 	sub.w	r1, r8, r9
 8005ac2:	f7ff f9c1 	bl	8004e48 <vQueueWaitForMessageRestricted>
 8005ac6:	f7ff fc95 	bl	80053f4 <xTaskResumeAll>
 8005aca:	2800      	cmp	r0, #0
 8005acc:	d1d2      	bne.n	8005a74 <prvTimerTask+0x94>
 8005ace:	f04f 23e0 	mov.w	r3, #3758153728	; 0xe000e000
 8005ad2:	f04f 5280 	mov.w	r2, #268435456	; 0x10000000
 8005ad6:	f8c3 2d04 	str.w	r2, [r3, #3332]	; 0xd04
 8005ada:	f3bf 8f4f 	dsb	sy
 8005ade:	f3bf 8f6f 	isb	sy
 8005ae2:	e7c7      	b.n	8005a74 <prvTimerTask+0x94>
 8005ae4:	f7ff fc86 	bl	80053f4 <xTaskResumeAll>
 8005ae8:	e7c4      	b.n	8005a74 <prvTimerTask+0x94>
 8005aea:	9b05      	ldr	r3, [sp, #20]
 8005aec:	9907      	ldr	r1, [sp, #28]
 8005aee:	4798      	blx	r3
 8005af0:	9b04      	ldr	r3, [sp, #16]
 8005af2:	2b00      	cmp	r3, #0
 8005af4:	dbbe      	blt.n	8005a74 <prvTimerTask+0x94>
 8005af6:	e7c8      	b.n	8005a8a <prvTimerTask+0xaa>
 8005af8:	1d20      	adds	r0, r4, #4
 8005afa:	f7fe feb4 	bl	8004866 <uxListRemove>
 8005afe:	e7c8      	b.n	8005a92 <prvTimerTask+0xb2>
 8005b00:	f894 3028 	ldrb.w	r3, [r4, #40]	; 0x28
 8005b04:	69a1      	ldr	r1, [r4, #24]
 8005b06:	f043 0301 	orr.w	r3, r3, #1
 8005b0a:	f884 3028 	strb.w	r3, [r4, #40]	; 0x28
 8005b0e:	9b05      	ldr	r3, [sp, #20]
 8005b10:	4620      	mov	r0, r4
 8005b12:	4419      	add	r1, r3
 8005b14:	f7ff fe92 	bl	800583c <prvInsertTimerInActiveList>
 8005b18:	2800      	cmp	r0, #0
 8005b1a:	d0ab      	beq.n	8005a74 <prvTimerTask+0x94>
 8005b1c:	6a23      	ldr	r3, [r4, #32]
 8005b1e:	4620      	mov	r0, r4
 8005b20:	4798      	blx	r3
 8005b22:	f894 3028 	ldrb.w	r3, [r4, #40]	; 0x28
 8005b26:	0759      	lsls	r1, r3, #29
 8005b28:	d5a4      	bpl.n	8005a74 <prvTimerTask+0x94>
 8005b2a:	69a2      	ldr	r2, [r4, #24]
 8005b2c:	9905      	ldr	r1, [sp, #20]
 8005b2e:	2300      	movs	r3, #0
 8005b30:	440a      	add	r2, r1
 8005b32:	9300      	str	r3, [sp, #0]
 8005b34:	4619      	mov	r1, r3
 8005b36:	4620      	mov	r0, r4
 8005b38:	f7ff fed0 	bl	80058dc <xTimerGenericCommand>
 8005b3c:	2800      	cmp	r0, #0
 8005b3e:	d199      	bne.n	8005a74 <prvTimerTask+0x94>
 8005b40:	f04f 0350 	mov.w	r3, #80	; 0x50
 8005b44:	f383 8811 	msr	BASEPRI, r3
 8005b48:	f3bf 8f6f 	isb	sy
 8005b4c:	f3bf 8f4f 	dsb	sy
 8005b50:	e7fe      	b.n	8005b50 <prvTimerTask+0x170>
 8005b52:	f894 3028 	ldrb.w	r3, [r4, #40]	; 0x28
 8005b56:	f023 0301 	bic.w	r3, r3, #1
 8005b5a:	f884 3028 	strb.w	r3, [r4, #40]	; 0x28
 8005b5e:	e789      	b.n	8005a74 <prvTimerTask+0x94>
 8005b60:	f894 3028 	ldrb.w	r3, [r4, #40]	; 0x28
 8005b64:	f043 0301 	orr.w	r3, r3, #1
 8005b68:	f884 3028 	strb.w	r3, [r4, #40]	; 0x28
 8005b6c:	9905      	ldr	r1, [sp, #20]
 8005b6e:	61a1      	str	r1, [r4, #24]
 8005b70:	b941      	cbnz	r1, 8005b84 <prvTimerTask+0x1a4>
 8005b72:	f04f 0350 	mov.w	r3, #80	; 0x50
 8005b76:	f383 8811 	msr	BASEPRI, r3
 8005b7a:	f3bf 8f6f 	isb	sy
 8005b7e:	f3bf 8f4f 	dsb	sy
 8005b82:	e7fe      	b.n	8005b82 <prvTimerTask+0x1a2>
 8005b84:	4603      	mov	r3, r0
 8005b86:	4401      	add	r1, r0
 8005b88:	4620      	mov	r0, r4
 8005b8a:	f7ff fe57 	bl	800583c <prvInsertTimerInActiveList>
 8005b8e:	e771      	b.n	8005a74 <prvTimerTask+0x94>
 8005b90:	f894 3028 	ldrb.w	r3, [r4, #40]	; 0x28
 8005b94:	079a      	lsls	r2, r3, #30
 8005b96:	d4de      	bmi.n	8005b56 <prvTimerTask+0x176>
 8005b98:	4620      	mov	r0, r4
 8005b9a:	f000 fa73 	bl	8006084 <vPortFree>
 8005b9e:	e769      	b.n	8005a74 <prvTimerTask+0x94>
 8005ba0:	20001cdc 	.word	0x20001cdc
 8005ba4:	20001e00 	.word	0x20001e00
 8005ba8:	20001ce0 	.word	0x20001ce0

08005bac <prvPortStartFirstTask>:
 8005bac:	4808      	ldr	r0, [pc, #32]	; (8005bd0 <prvPortStartFirstTask+0x24>)
 8005bae:	6800      	ldr	r0, [r0, #0]
 8005bb0:	6800      	ldr	r0, [r0, #0]
 8005bb2:	f380 8808 	msr	MSP, r0
 8005bb6:	f04f 0000 	mov.w	r0, #0
 8005bba:	f380 8814 	msr	CONTROL, r0
 8005bbe:	b662      	cpsie	i
 8005bc0:	b661      	cpsie	f
 8005bc2:	f3bf 8f4f 	dsb	sy
 8005bc6:	f3bf 8f6f 	isb	sy
 8005bca:	df00      	svc	0
 8005bcc:	bf00      	nop
 8005bce:	0000      	.short	0x0000
 8005bd0:	e000ed08 	.word	0xe000ed08

08005bd4 <vPortEnableVFP>:
 8005bd4:	f8df 000c 	ldr.w	r0, [pc, #12]	; 8005be4 <vPortEnableVFP+0x10>
 8005bd8:	6801      	ldr	r1, [r0, #0]
 8005bda:	f441 0170 	orr.w	r1, r1, #15728640	; 0xf00000
 8005bde:	6001      	str	r1, [r0, #0]
 8005be0:	4770      	bx	lr
 8005be2:	0000      	.short	0x0000
 8005be4:	e000ed88 	.word	0xe000ed88

08005be8 <prvTaskExitError>:
 8005be8:	b082      	sub	sp, #8
 8005bea:	2300      	movs	r3, #0
 8005bec:	9301      	str	r3, [sp, #4]
 8005bee:	4b0d      	ldr	r3, [pc, #52]	; (8005c24 <prvTaskExitError+0x3c>)
 8005bf0:	681b      	ldr	r3, [r3, #0]
 8005bf2:	3301      	adds	r3, #1
 8005bf4:	d008      	beq.n	8005c08 <prvTaskExitError+0x20>
 8005bf6:	f04f 0350 	mov.w	r3, #80	; 0x50
 8005bfa:	f383 8811 	msr	BASEPRI, r3
 8005bfe:	f3bf 8f6f 	isb	sy
 8005c02:	f3bf 8f4f 	dsb	sy
 8005c06:	e7fe      	b.n	8005c06 <prvTaskExitError+0x1e>
 8005c08:	f04f 0350 	mov.w	r3, #80	; 0x50
 8005c0c:	f383 8811 	msr	BASEPRI, r3
 8005c10:	f3bf 8f6f 	isb	sy
 8005c14:	f3bf 8f4f 	dsb	sy
 8005c18:	9b01      	ldr	r3, [sp, #4]
 8005c1a:	2b00      	cmp	r3, #0
 8005c1c:	d0fc      	beq.n	8005c18 <prvTaskExitError+0x30>
 8005c1e:	b002      	add	sp, #8
 8005c20:	4770      	bx	lr
 8005c22:	bf00      	nop
 8005c24:	200001d0 	.word	0x200001d0

08005c28 <pxPortInitialiseStack>:
 8005c28:	f04f 7380 	mov.w	r3, #16777216	; 0x1000000
 8005c2c:	f840 3c04 	str.w	r3, [r0, #-4]
 8005c30:	4b07      	ldr	r3, [pc, #28]	; (8005c50 <pxPortInitialiseStack+0x28>)
 8005c32:	f840 3c0c 	str.w	r3, [r0, #-12]
 8005c36:	f021 0101 	bic.w	r1, r1, #1
 8005c3a:	f06f 0302 	mvn.w	r3, #2
 8005c3e:	f840 1c08 	str.w	r1, [r0, #-8]
 8005c42:	f840 2c20 	str.w	r2, [r0, #-32]
 8005c46:	f840 3c24 	str.w	r3, [r0, #-36]
 8005c4a:	3844      	subs	r0, #68	; 0x44
 8005c4c:	4770      	bx	lr
 8005c4e:	bf00      	nop
 8005c50:	08005be9 	.word	0x08005be9
	...

08005c60 <SVC_Handler>:
 8005c60:	4b07      	ldr	r3, [pc, #28]	; (8005c80 <pxCurrentTCBConst2>)
 8005c62:	6819      	ldr	r1, [r3, #0]
 8005c64:	6808      	ldr	r0, [r1, #0]
 8005c66:	e8b0 4ff0 	ldmia.w	r0!, {r4, r5, r6, r7, r8, r9, sl, fp, lr}
 8005c6a:	f380 8809 	msr	PSP, r0
 8005c6e:	f3bf 8f6f 	isb	sy
 8005c72:	f04f 0000 	mov.w	r0, #0
 8005c76:	f380 8811 	msr	BASEPRI, r0
 8005c7a:	4770      	bx	lr
 8005c7c:	f3af 8000 	nop.w

08005c80 <pxCurrentTCBConst2>:
 8005c80:	200017e0 	.word	0x200017e0

08005c84 <vPortEnterCritical>:
 8005c84:	f04f 0350 	mov.w	r3, #80	; 0x50
 8005c88:	f383 8811 	msr	BASEPRI, r3
 8005c8c:	f3bf 8f6f 	isb	sy
 8005c90:	f3bf 8f4f 	dsb	sy
 8005c94:	4a0a      	ldr	r2, [pc, #40]	; (8005cc0 <vPortEnterCritical+0x3c>)
 8005c96:	6813      	ldr	r3, [r2, #0]
 8005c98:	3301      	adds	r3, #1
 8005c9a:	2b01      	cmp	r3, #1
 8005c9c:	6013      	str	r3, [r2, #0]
 8005c9e:	d10e      	bne.n	8005cbe <vPortEnterCritical+0x3a>
 8005ca0:	f04f 23e0 	mov.w	r3, #3758153728	; 0xe000e000
 8005ca4:	f8d3 3d04 	ldr.w	r3, [r3, #3332]	; 0xd04
 8005ca8:	b2db      	uxtb	r3, r3
 8005caa:	b143      	cbz	r3, 8005cbe <vPortEnterCritical+0x3a>
 8005cac:	f04f 0350 	mov.w	r3, #80	; 0x50
 8005cb0:	f383 8811 	msr	BASEPRI, r3
 8005cb4:	f3bf 8f6f 	isb	sy
 8005cb8:	f3bf 8f4f 	dsb	sy
 8005cbc:	e7fe      	b.n	8005cbc <vPortEnterCritical+0x38>
 8005cbe:	4770      	bx	lr
 8005cc0:	200001d0 	.word	0x200001d0

08005cc4 <vPortExitCritical>:
 8005cc4:	4a08      	ldr	r2, [pc, #32]	; (8005ce8 <vPortExitCritical+0x24>)
 8005cc6:	6813      	ldr	r3, [r2, #0]
 8005cc8:	b943      	cbnz	r3, 8005cdc <vPortExitCritical+0x18>
 8005cca:	f04f 0350 	mov.w	r3, #80	; 0x50
 8005cce:	f383 8811 	msr	BASEPRI, r3
 8005cd2:	f3bf 8f6f 	isb	sy
 8005cd6:	f3bf 8f4f 	dsb	sy
 8005cda:	e7fe      	b.n	8005cda <vPortExitCritical+0x16>
 8005cdc:	3b01      	subs	r3, #1
 8005cde:	6013      	str	r3, [r2, #0]
 8005ce0:	b90b      	cbnz	r3, 8005ce6 <vPortExitCritical+0x22>
 8005ce2:	f383 8811 	msr	BASEPRI, r3
 8005ce6:	4770      	bx	lr
 8005ce8:	200001d0 	.word	0x200001d0
 8005cec:	00000000 	.word	0x00000000

08005cf0 <PendSV_Handler>:
 8005cf0:	f3ef 8009 	mrs	r0, PSP
 8005cf4:	f3bf 8f6f 	isb	sy
 8005cf8:	4b15      	ldr	r3, [pc, #84]	; (8005d50 <pxCurrentTCBConst>)
 8005cfa:	681a      	ldr	r2, [r3, #0]
 8005cfc:	f01e 0f10 	tst.w	lr, #16
 8005d00:	bf08      	it	eq
 8005d02:	ed20 8a10 	vstmdbeq	r0!, {s16-s31}
 8005d06:	e920 4ff0 	stmdb	r0!, {r4, r5, r6, r7, r8, r9, sl, fp, lr}
 8005d0a:	6010      	str	r0, [r2, #0]
 8005d0c:	e92d 0009 	stmdb	sp!, {r0, r3}
 8005d10:	f04f 0050 	mov.w	r0, #80	; 0x50
 8005d14:	f380 8811 	msr	BASEPRI, r0
 8005d18:	f3bf 8f4f 	dsb	sy
 8005d1c:	f3bf 8f6f 	isb	sy
 8005d20:	f7ff fc00 	bl	8005524 <vTaskSwitchContext>
 8005d24:	f04f 0000 	mov.w	r0, #0
 8005d28:	f380 8811 	msr	BASEPRI, r0
 8005d2c:	bc09      	pop	{r0, r3}
 8005d2e:	6819      	ldr	r1, [r3, #0]
 8005d30:	6808      	ldr	r0, [r1, #0]
 8005d32:	e8b0 4ff0 	ldmia.w	r0!, {r4, r5, r6, r7, r8, r9, sl, fp, lr}
 8005d36:	f01e 0f10 	tst.w	lr, #16
 8005d3a:	bf08      	it	eq
 8005d3c:	ecb0 8a10 	vldmiaeq	r0!, {s16-s31}
 8005d40:	f380 8809 	msr	PSP, r0
 8005d44:	f3bf 8f6f 	isb	sy
 8005d48:	4770      	bx	lr
 8005d4a:	bf00      	nop
 8005d4c:	f3af 8000 	nop.w

08005d50 <pxCurrentTCBConst>:
 8005d50:	200017e0 	.word	0x200017e0

08005d54 <xPortSysTickHandler>:
 8005d54:	b508      	push	{r3, lr}
 8005d56:	f04f 0350 	mov.w	r3, #80	; 0x50
 8005d5a:	f383 8811 	msr	BASEPRI, r3
 8005d5e:	f3bf 8f6f 	isb	sy
 8005d62:	f3bf 8f4f 	dsb	sy
 8005d66:	f7ff faaf 	bl	80052c8 <xTaskIncrementTick>
 8005d6a:	b128      	cbz	r0, 8005d78 <xPortSysTickHandler+0x24>
 8005d6c:	f04f 23e0 	mov.w	r3, #3758153728	; 0xe000e000
 8005d70:	f04f 5280 	mov.w	r2, #268435456	; 0x10000000
 8005d74:	f8c3 2d04 	str.w	r2, [r3, #3332]	; 0xd04
 8005d78:	2300      	movs	r3, #0
 8005d7a:	f383 8811 	msr	BASEPRI, r3
 8005d7e:	bd08      	pop	{r3, pc}

08005d80 <vPortSetupTimerInterrupt>:
 8005d80:	f04f 22e0 	mov.w	r2, #3758153728	; 0xe000e000
 8005d84:	2300      	movs	r3, #0
 8005d86:	6113      	str	r3, [r2, #16]
 8005d88:	6193      	str	r3, [r2, #24]
 8005d8a:	4b05      	ldr	r3, [pc, #20]	; (8005da0 <vPortSetupTimerInterrupt+0x20>)
 8005d8c:	f44f 717a 	mov.w	r1, #1000	; 0x3e8
 8005d90:	681b      	ldr	r3, [r3, #0]
 8005d92:	fbb3 f3f1 	udiv	r3, r3, r1
 8005d96:	3b01      	subs	r3, #1
 8005d98:	6153      	str	r3, [r2, #20]
 8005d9a:	2307      	movs	r3, #7
 8005d9c:	6113      	str	r3, [r2, #16]
 8005d9e:	4770      	bx	lr
 8005da0:	20000038 	.word	0x20000038

08005da4 <xPortStartScheduler>:
 8005da4:	f04f 23e0 	mov.w	r3, #3758153728	; 0xe000e000
 8005da8:	b537      	push	{r0, r1, r2, r4, r5, lr}
 8005daa:	f8d3 1d00 	ldr.w	r1, [r3, #3328]	; 0xd00
 8005dae:	4a3a      	ldr	r2, [pc, #232]	; (8005e98 <xPortStartScheduler+0xf4>)
 8005db0:	4291      	cmp	r1, r2
 8005db2:	d108      	bne.n	8005dc6 <xPortStartScheduler+0x22>
 8005db4:	f04f 0350 	mov.w	r3, #80	; 0x50
 8005db8:	f383 8811 	msr	BASEPRI, r3
 8005dbc:	f3bf 8f6f 	isb	sy
 8005dc0:	f3bf 8f4f 	dsb	sy
 8005dc4:	e7fe      	b.n	8005dc4 <xPortStartScheduler+0x20>
 8005dc6:	f8d3 2d00 	ldr.w	r2, [r3, #3328]	; 0xd00
 8005dca:	4b34      	ldr	r3, [pc, #208]	; (8005e9c <xPortStartScheduler+0xf8>)
 8005dcc:	429a      	cmp	r2, r3
 8005dce:	d108      	bne.n	8005de2 <xPortStartScheduler+0x3e>
 8005dd0:	f04f 0350 	mov.w	r3, #80	; 0x50
 8005dd4:	f383 8811 	msr	BASEPRI, r3
 8005dd8:	f3bf 8f6f 	isb	sy
 8005ddc:	f3bf 8f4f 	dsb	sy
 8005de0:	e7fe      	b.n	8005de0 <xPortStartScheduler+0x3c>
 8005de2:	4b2f      	ldr	r3, [pc, #188]	; (8005ea0 <xPortStartScheduler+0xfc>)
 8005de4:	781a      	ldrb	r2, [r3, #0]
 8005de6:	b2d2      	uxtb	r2, r2
 8005de8:	9201      	str	r2, [sp, #4]
 8005dea:	22ff      	movs	r2, #255	; 0xff
 8005dec:	701a      	strb	r2, [r3, #0]
 8005dee:	781b      	ldrb	r3, [r3, #0]
 8005df0:	4a2c      	ldr	r2, [pc, #176]	; (8005ea4 <xPortStartScheduler+0x100>)
 8005df2:	b2db      	uxtb	r3, r3
 8005df4:	f88d 3003 	strb.w	r3, [sp, #3]
 8005df8:	f89d 3003 	ldrb.w	r3, [sp, #3]
 8005dfc:	f003 0350 	and.w	r3, r3, #80	; 0x50
 8005e00:	7013      	strb	r3, [r2, #0]
 8005e02:	4a29      	ldr	r2, [pc, #164]	; (8005ea8 <xPortStartScheduler+0x104>)
 8005e04:	2307      	movs	r3, #7
 8005e06:	6013      	str	r3, [r2, #0]
 8005e08:	2100      	movs	r1, #0
 8005e0a:	f89d 0003 	ldrb.w	r0, [sp, #3]
 8005e0e:	0600      	lsls	r0, r0, #24
 8005e10:	f103 34ff 	add.w	r4, r3, #4294967295
 8005e14:	d40c      	bmi.n	8005e30 <xPortStartScheduler+0x8c>
 8005e16:	b111      	cbz	r1, 8005e1e <xPortStartScheduler+0x7a>
 8005e18:	2b03      	cmp	r3, #3
 8005e1a:	6013      	str	r3, [r2, #0]
 8005e1c:	d011      	beq.n	8005e42 <xPortStartScheduler+0x9e>
 8005e1e:	f04f 0350 	mov.w	r3, #80	; 0x50
 8005e22:	f383 8811 	msr	BASEPRI, r3
 8005e26:	f3bf 8f6f 	isb	sy
 8005e2a:	f3bf 8f4f 	dsb	sy
 8005e2e:	e7fe      	b.n	8005e2e <xPortStartScheduler+0x8a>
 8005e30:	f89d 3003 	ldrb.w	r3, [sp, #3]
 8005e34:	005b      	lsls	r3, r3, #1
 8005e36:	b2db      	uxtb	r3, r3
 8005e38:	f88d 3003 	strb.w	r3, [sp, #3]
 8005e3c:	2101      	movs	r1, #1
 8005e3e:	4623      	mov	r3, r4
 8005e40:	e7e3      	b.n	8005e0a <xPortStartScheduler+0x66>
 8005e42:	f44f 7340 	mov.w	r3, #768	; 0x300
 8005e46:	6013      	str	r3, [r2, #0]
 8005e48:	9b01      	ldr	r3, [sp, #4]
 8005e4a:	4a15      	ldr	r2, [pc, #84]	; (8005ea0 <xPortStartScheduler+0xfc>)
 8005e4c:	f04f 24e0 	mov.w	r4, #3758153728	; 0xe000e000
 8005e50:	b2db      	uxtb	r3, r3
 8005e52:	7013      	strb	r3, [r2, #0]
 8005e54:	f8d4 3d20 	ldr.w	r3, [r4, #3360]	; 0xd20
 8005e58:	f443 0370 	orr.w	r3, r3, #15728640	; 0xf00000
 8005e5c:	f8c4 3d20 	str.w	r3, [r4, #3360]	; 0xd20
 8005e60:	f8d4 3d20 	ldr.w	r3, [r4, #3360]	; 0xd20
 8005e64:	f043 4370 	orr.w	r3, r3, #4026531840	; 0xf0000000
 8005e68:	f8c4 3d20 	str.w	r3, [r4, #3360]	; 0xd20
 8005e6c:	f7ff ff88 	bl	8005d80 <vPortSetupTimerInterrupt>
 8005e70:	4b0e      	ldr	r3, [pc, #56]	; (8005eac <xPortStartScheduler+0x108>)
 8005e72:	2500      	movs	r5, #0
 8005e74:	601d      	str	r5, [r3, #0]
 8005e76:	f7ff fead 	bl	8005bd4 <vPortEnableVFP>
 8005e7a:	f8d4 3f34 	ldr.w	r3, [r4, #3892]	; 0xf34
 8005e7e:	f043 4340 	orr.w	r3, r3, #3221225472	; 0xc0000000
 8005e82:	f8c4 3f34 	str.w	r3, [r4, #3892]	; 0xf34
 8005e86:	f7ff fe91 	bl	8005bac <prvPortStartFirstTask>
 8005e8a:	f7ff fb4b 	bl	8005524 <vTaskSwitchContext>
 8005e8e:	f7ff feab 	bl	8005be8 <prvTaskExitError>
 8005e92:	4628      	mov	r0, r5
 8005e94:	b003      	add	sp, #12
 8005e96:	bd30      	pop	{r4, r5, pc}
 8005e98:	410fc271 	.word	0x410fc271
 8005e9c:	410fc270 	.word	0x410fc270
 8005ea0:	e000e400 	.word	0xe000e400
 8005ea4:	20001e08 	.word	0x20001e08
 8005ea8:	20001e0c 	.word	0x20001e0c
 8005eac:	200001d0 	.word	0x200001d0

08005eb0 <vPortValidateInterruptPriority>:
 8005eb0:	f3ef 8305 	mrs	r3, IPSR
 8005eb4:	2b0f      	cmp	r3, #15
 8005eb6:	d90e      	bls.n	8005ed6 <vPortValidateInterruptPriority+0x26>
 8005eb8:	4a11      	ldr	r2, [pc, #68]	; (8005f00 <vPortValidateInterruptPriority+0x50>)
 8005eba:	5c9b      	ldrb	r3, [r3, r2]
 8005ebc:	4a11      	ldr	r2, [pc, #68]	; (8005f04 <vPortValidateInterruptPriority+0x54>)
 8005ebe:	7812      	ldrb	r2, [r2, #0]
 8005ec0:	429a      	cmp	r2, r3
 8005ec2:	d908      	bls.n	8005ed6 <vPortValidateInterruptPriority+0x26>
 8005ec4:	f04f 0350 	mov.w	r3, #80	; 0x50
 8005ec8:	f383 8811 	msr	BASEPRI, r3
 8005ecc:	f3bf 8f6f 	isb	sy
 8005ed0:	f3bf 8f4f 	dsb	sy
 8005ed4:	e7fe      	b.n	8005ed4 <vPortValidateInterruptPriority+0x24>
 8005ed6:	f04f 23e0 	mov.w	r3, #3758153728	; 0xe000e000
 8005eda:	4a0b      	ldr	r2, [pc, #44]	; (8005f08 <vPortValidateInterruptPriority+0x58>)
 8005edc:	f8d3 3d0c 	ldr.w	r3, [r3, #3340]	; 0xd0c
 8005ee0:	6812      	ldr	r2, [r2, #0]
 8005ee2:	f403 63e0 	and.w	r3, r3, #1792	; 0x700
 8005ee6:	4293      	cmp	r3, r2
 8005ee8:	d908      	bls.n	8005efc <vPortValidateInterruptPriority+0x4c>
 8005eea:	f04f 0350 	mov.w	r3, #80	; 0x50
 8005eee:	f383 8811 	msr	BASEPRI, r3
 8005ef2:	f3bf 8f6f 	isb	sy
 8005ef6:	f3bf 8f4f 	dsb	sy
 8005efa:	e7fe      	b.n	8005efa <vPortValidateInterruptPriority+0x4a>
 8005efc:	4770      	bx	lr
 8005efe:	bf00      	nop
 8005f00:	e000e3f0 	.word	0xe000e3f0
 8005f04:	20001e08 	.word	0x20001e08
 8005f08:	20001e0c 	.word	0x20001e0c

08005f0c <prvInsertBlockIntoFreeList>:
 8005f0c:	b510      	push	{r4, lr}
 8005f0e:	4b0f      	ldr	r3, [pc, #60]	; (8005f4c <prvInsertBlockIntoFreeList+0x40>)
 8005f10:	461a      	mov	r2, r3
 8005f12:	681b      	ldr	r3, [r3, #0]
 8005f14:	4283      	cmp	r3, r0
 8005f16:	d3fb      	bcc.n	8005f10 <prvInsertBlockIntoFreeList+0x4>
 8005f18:	6854      	ldr	r4, [r2, #4]
 8005f1a:	1911      	adds	r1, r2, r4
 8005f1c:	4288      	cmp	r0, r1
 8005f1e:	bf01      	itttt	eq
 8005f20:	6841      	ldreq	r1, [r0, #4]
 8005f22:	4610      	moveq	r0, r2
 8005f24:	1909      	addeq	r1, r1, r4
 8005f26:	6051      	streq	r1, [r2, #4]
 8005f28:	6844      	ldr	r4, [r0, #4]
 8005f2a:	1901      	adds	r1, r0, r4
 8005f2c:	428b      	cmp	r3, r1
 8005f2e:	d107      	bne.n	8005f40 <prvInsertBlockIntoFreeList+0x34>
 8005f30:	4907      	ldr	r1, [pc, #28]	; (8005f50 <prvInsertBlockIntoFreeList+0x44>)
 8005f32:	6809      	ldr	r1, [r1, #0]
 8005f34:	428b      	cmp	r3, r1
 8005f36:	bf1f      	itttt	ne
 8005f38:	6859      	ldrne	r1, [r3, #4]
 8005f3a:	681b      	ldrne	r3, [r3, #0]
 8005f3c:	1909      	addne	r1, r1, r4
 8005f3e:	6041      	strne	r1, [r0, #4]
 8005f40:	4290      	cmp	r0, r2
 8005f42:	6003      	str	r3, [r0, #0]
 8005f44:	bf18      	it	ne
 8005f46:	6010      	strne	r0, [r2, #0]
 8005f48:	bd10      	pop	{r4, pc}
 8005f4a:	bf00      	nop
 8005f4c:	20005a28 	.word	0x20005a28
 8005f50:	20001e10 	.word	0x20001e10

08005f54 <pvPortMalloc>:
 8005f54:	e92d 41f0 	stmdb	sp!, {r4, r5, r6, r7, r8, lr}
 8005f58:	4604      	mov	r4, r0
 8005f5a:	f7ff f9a7 	bl	80052ac <vTaskSuspendAll>
 8005f5e:	4842      	ldr	r0, [pc, #264]	; (8006068 <pvPortMalloc+0x114>)
 8005f60:	4d42      	ldr	r5, [pc, #264]	; (800606c <pvPortMalloc+0x118>)
 8005f62:	6803      	ldr	r3, [r0, #0]
 8005f64:	bb0b      	cbnz	r3, 8005faa <pvPortMalloc+0x56>
 8005f66:	4942      	ldr	r1, [pc, #264]	; (8006070 <pvPortMalloc+0x11c>)
 8005f68:	074e      	lsls	r6, r1, #29
 8005f6a:	bf1f      	itttt	ne
 8005f6c:	1dcb      	addne	r3, r1, #7
 8005f6e:	f023 0307 	bicne.w	r3, r3, #7
 8005f72:	f501 5270 	addne.w	r2, r1, #15360	; 0x3c00
 8005f76:	1ad2      	subne	r2, r2, r3
 8005f78:	bf14      	ite	ne
 8005f7a:	4619      	movne	r1, r3
 8005f7c:	f44f 5270 	moveq.w	r2, #15360	; 0x3c00
 8005f80:	440a      	add	r2, r1
 8005f82:	4e3c      	ldr	r6, [pc, #240]	; (8006074 <pvPortMalloc+0x120>)
 8005f84:	3a08      	subs	r2, #8
 8005f86:	f022 0207 	bic.w	r2, r2, #7
 8005f8a:	2300      	movs	r3, #0
 8005f8c:	6073      	str	r3, [r6, #4]
 8005f8e:	6031      	str	r1, [r6, #0]
 8005f90:	e9c2 3300 	strd	r3, r3, [r2]
 8005f94:	1a53      	subs	r3, r2, r1
 8005f96:	e9c1 2300 	strd	r2, r3, [r1]
 8005f9a:	6002      	str	r2, [r0, #0]
 8005f9c:	4a36      	ldr	r2, [pc, #216]	; (8006078 <pvPortMalloc+0x124>)
 8005f9e:	6013      	str	r3, [r2, #0]
 8005fa0:	4a36      	ldr	r2, [pc, #216]	; (800607c <pvPortMalloc+0x128>)
 8005fa2:	6013      	str	r3, [r2, #0]
 8005fa4:	f04f 4300 	mov.w	r3, #2147483648	; 0x80000000
 8005fa8:	602b      	str	r3, [r5, #0]
 8005faa:	682f      	ldr	r7, [r5, #0]
 8005fac:	4227      	tst	r7, r4
 8005fae:	d155      	bne.n	800605c <pvPortMalloc+0x108>
 8005fb0:	2c00      	cmp	r4, #0
 8005fb2:	d046      	beq.n	8006042 <pvPortMalloc+0xee>
 8005fb4:	f104 0308 	add.w	r3, r4, #8
 8005fb8:	0761      	lsls	r1, r4, #29
 8005fba:	bf1c      	itt	ne
 8005fbc:	f023 0307 	bicne.w	r3, r3, #7
 8005fc0:	3308      	addne	r3, #8
 8005fc2:	2b00      	cmp	r3, #0
 8005fc4:	d04a      	beq.n	800605c <pvPortMalloc+0x108>
 8005fc6:	4c2d      	ldr	r4, [pc, #180]	; (800607c <pvPortMalloc+0x128>)
 8005fc8:	6826      	ldr	r6, [r4, #0]
 8005fca:	429e      	cmp	r6, r3
 8005fcc:	d346      	bcc.n	800605c <pvPortMalloc+0x108>
 8005fce:	4a29      	ldr	r2, [pc, #164]	; (8006074 <pvPortMalloc+0x120>)
 8005fd0:	6815      	ldr	r5, [r2, #0]
 8005fd2:	6869      	ldr	r1, [r5, #4]
 8005fd4:	4299      	cmp	r1, r3
 8005fd6:	d204      	bcs.n	8005fe2 <pvPortMalloc+0x8e>
 8005fd8:	f8d5 c000 	ldr.w	ip, [r5]
 8005fdc:	f1bc 0f00 	cmp.w	ip, #0
 8005fe0:	d115      	bne.n	800600e <pvPortMalloc+0xba>
 8005fe2:	6800      	ldr	r0, [r0, #0]
 8005fe4:	42a8      	cmp	r0, r5
 8005fe6:	d039      	beq.n	800605c <pvPortMalloc+0x108>
 8005fe8:	1ac9      	subs	r1, r1, r3
 8005fea:	6828      	ldr	r0, [r5, #0]
 8005fec:	f8d2 8000 	ldr.w	r8, [r2]
 8005ff0:	6010      	str	r0, [r2, #0]
 8005ff2:	2910      	cmp	r1, #16
 8005ff4:	d912      	bls.n	800601c <pvPortMalloc+0xc8>
 8005ff6:	18e8      	adds	r0, r5, r3
 8005ff8:	0742      	lsls	r2, r0, #29
 8005ffa:	d00b      	beq.n	8006014 <pvPortMalloc+0xc0>
 8005ffc:	f04f 0350 	mov.w	r3, #80	; 0x50
 8006000:	f383 8811 	msr	BASEPRI, r3
 8006004:	f3bf 8f6f 	isb	sy
 8006008:	f3bf 8f4f 	dsb	sy
 800600c:	e7fe      	b.n	800600c <pvPortMalloc+0xb8>
 800600e:	462a      	mov	r2, r5
 8006010:	4665      	mov	r5, ip
 8006012:	e7de      	b.n	8005fd2 <pvPortMalloc+0x7e>
 8006014:	6041      	str	r1, [r0, #4]
 8006016:	606b      	str	r3, [r5, #4]
 8006018:	f7ff ff78 	bl	8005f0c <prvInsertBlockIntoFreeList>
 800601c:	686b      	ldr	r3, [r5, #4]
 800601e:	4916      	ldr	r1, [pc, #88]	; (8006078 <pvPortMalloc+0x124>)
 8006020:	4a17      	ldr	r2, [pc, #92]	; (8006080 <pvPortMalloc+0x12c>)
 8006022:	6808      	ldr	r0, [r1, #0]
 8006024:	1af6      	subs	r6, r6, r3
 8006026:	431f      	orrs	r7, r3
 8006028:	2300      	movs	r3, #0
 800602a:	602b      	str	r3, [r5, #0]
 800602c:	6813      	ldr	r3, [r2, #0]
 800602e:	6026      	str	r6, [r4, #0]
 8006030:	4286      	cmp	r6, r0
 8006032:	f103 0301 	add.w	r3, r3, #1
 8006036:	bf38      	it	cc
 8006038:	600e      	strcc	r6, [r1, #0]
 800603a:	f108 0408 	add.w	r4, r8, #8
 800603e:	606f      	str	r7, [r5, #4]
 8006040:	6013      	str	r3, [r2, #0]
 8006042:	f7ff f9d7 	bl	80053f4 <xTaskResumeAll>
 8006046:	0763      	lsls	r3, r4, #29
 8006048:	d00a      	beq.n	8006060 <pvPortMalloc+0x10c>
 800604a:	f04f 0350 	mov.w	r3, #80	; 0x50
 800604e:	f383 8811 	msr	BASEPRI, r3
 8006052:	f3bf 8f6f 	isb	sy
 8006056:	f3bf 8f4f 	dsb	sy
 800605a:	e7fe      	b.n	800605a <pvPortMalloc+0x106>
 800605c:	2400      	movs	r4, #0
 800605e:	e7f0      	b.n	8006042 <pvPortMalloc+0xee>
 8006060:	4620      	mov	r0, r4
 8006062:	e8bd 81f0 	ldmia.w	sp!, {r4, r5, r6, r7, r8, pc}
 8006066:	bf00      	nop
 8006068:	20001e10 	.word	0x20001e10
 800606c:	20005a14 	.word	0x20005a14
 8006070:	20001e14 	.word	0x20001e14
 8006074:	20005a28 	.word	0x20005a28
 8006078:	20005a1c 	.word	0x20005a1c
 800607c:	20005a18 	.word	0x20005a18
 8006080:	20005a20 	.word	0x20005a20

08006084 <vPortFree>:
 8006084:	b510      	push	{r4, lr}
 8006086:	4604      	mov	r4, r0
 8006088:	b390      	cbz	r0, 80060f0 <vPortFree+0x6c>
 800608a:	4a1a      	ldr	r2, [pc, #104]	; (80060f4 <vPortFree+0x70>)
 800608c:	f850 3c04 	ldr.w	r3, [r0, #-4]
 8006090:	6812      	ldr	r2, [r2, #0]
 8006092:	4213      	tst	r3, r2
 8006094:	d108      	bne.n	80060a8 <vPortFree+0x24>
 8006096:	f04f 0350 	mov.w	r3, #80	; 0x50
 800609a:	f383 8811 	msr	BASEPRI, r3
 800609e:	f3bf 8f6f 	isb	sy
 80060a2:	f3bf 8f4f 	dsb	sy
 80060a6:	e7fe      	b.n	80060a6 <vPortFree+0x22>
 80060a8:	f850 1c08 	ldr.w	r1, [r0, #-8]
 80060ac:	b141      	cbz	r1, 80060c0 <vPortFree+0x3c>
 80060ae:	f04f 0350 	mov.w	r3, #80	; 0x50
 80060b2:	f383 8811 	msr	BASEPRI, r3
 80060b6:	f3bf 8f6f 	isb	sy
 80060ba:	f3bf 8f4f 	dsb	sy
 80060be:	e7fe      	b.n	80060be <vPortFree+0x3a>
 80060c0:	ea23 0302 	bic.w	r3, r3, r2
 80060c4:	f840 3c04 	str.w	r3, [r0, #-4]
 80060c8:	f7ff f8f0 	bl	80052ac <vTaskSuspendAll>
 80060cc:	4a0a      	ldr	r2, [pc, #40]	; (80060f8 <vPortFree+0x74>)
 80060ce:	f854 3c04 	ldr.w	r3, [r4, #-4]
 80060d2:	6811      	ldr	r1, [r2, #0]
 80060d4:	f1a4 0008 	sub.w	r0, r4, #8
 80060d8:	440b      	add	r3, r1
 80060da:	6013      	str	r3, [r2, #0]
 80060dc:	f7ff ff16 	bl	8005f0c <prvInsertBlockIntoFreeList>
 80060e0:	4a06      	ldr	r2, [pc, #24]	; (80060fc <vPortFree+0x78>)
 80060e2:	6813      	ldr	r3, [r2, #0]
 80060e4:	e8bd 4010 	ldmia.w	sp!, {r4, lr}
 80060e8:	3301      	adds	r3, #1
 80060ea:	6013      	str	r3, [r2, #0]
 80060ec:	f7ff b982 	b.w	80053f4 <xTaskResumeAll>
 80060f0:	bd10      	pop	{r4, pc}
 80060f2:	bf00      	nop
 80060f4:	20005a14 	.word	0x20005a14
 80060f8:	20005a18 	.word	0x20005a18
 80060fc:	20005a24 	.word	0x20005a24

08006100 <__errno>:
 8006100:	4b01      	ldr	r3, [pc, #4]	; (8006108 <__errno+0x8>)
 8006102:	6818      	ldr	r0, [r3, #0]
 8006104:	4770      	bx	lr
 8006106:	bf00      	nop
 8006108:	200001d4 	.word	0x200001d4

0800610c <__libc_init_array>:
 800610c:	b570      	push	{r4, r5, r6, lr}
 800610e:	4d0d      	ldr	r5, [pc, #52]	; (8006144 <__libc_init_array+0x38>)
 8006110:	4c0d      	ldr	r4, [pc, #52]	; (8006148 <__libc_init_array+0x3c>)
 8006112:	1b64      	subs	r4, r4, r5
 8006114:	10a4      	asrs	r4, r4, #2
 8006116:	2600      	movs	r6, #0
 8006118:	42a6      	cmp	r6, r4
 800611a:	d109      	bne.n	8006130 <__libc_init_array+0x24>
 800611c:	4d0b      	ldr	r5, [pc, #44]	; (800614c <__libc_init_array+0x40>)
 800611e:	4c0c      	ldr	r4, [pc, #48]	; (8006150 <__libc_init_array+0x44>)
 8006120:	f000 fca2 	bl	8006a68 <_init>
 8006124:	1b64      	subs	r4, r4, r5
 8006126:	10a4      	asrs	r4, r4, #2
 8006128:	2600      	movs	r6, #0
 800612a:	42a6      	cmp	r6, r4
 800612c:	d105      	bne.n	800613a <__libc_init_array+0x2e>
 800612e:	bd70      	pop	{r4, r5, r6, pc}
 8006130:	f855 3b04 	ldr.w	r3, [r5], #4
 8006134:	4798      	blx	r3
 8006136:	3601      	adds	r6, #1
 8006138:	e7ee      	b.n	8006118 <__libc_init_array+0xc>
 800613a:	f855 3b04 	ldr.w	r3, [r5], #4
 800613e:	4798      	blx	r3
 8006140:	3601      	adds	r6, #1
 8006142:	e7f2      	b.n	800612a <__libc_init_array+0x1e>
 8006144:	08006c68 	.word	0x08006c68
 8006148:	08006c68 	.word	0x08006c68
 800614c:	08006c68 	.word	0x08006c68
 8006150:	08006c6c 	.word	0x08006c6c

08006154 <memcpy>:
 8006154:	440a      	add	r2, r1
 8006156:	4291      	cmp	r1, r2
 8006158:	f100 33ff 	add.w	r3, r0, #4294967295
 800615c:	d100      	bne.n	8006160 <memcpy+0xc>
 800615e:	4770      	bx	lr
 8006160:	b510      	push	{r4, lr}
 8006162:	f811 4b01 	ldrb.w	r4, [r1], #1
 8006166:	f803 4f01 	strb.w	r4, [r3, #1]!
 800616a:	4291      	cmp	r1, r2
 800616c:	d1f9      	bne.n	8006162 <memcpy+0xe>
 800616e:	bd10      	pop	{r4, pc}

08006170 <memset>:
 8006170:	4402      	add	r2, r0
 8006172:	4603      	mov	r3, r0
 8006174:	4293      	cmp	r3, r2
 8006176:	d100      	bne.n	800617a <memset+0xa>
 8006178:	4770      	bx	lr
 800617a:	f803 1b01 	strb.w	r1, [r3], #1
 800617e:	e7f9      	b.n	8006174 <memset+0x4>

08006180 <sniprintf>:
 8006180:	b40c      	push	{r2, r3}
 8006182:	b530      	push	{r4, r5, lr}
 8006184:	4b17      	ldr	r3, [pc, #92]	; (80061e4 <sniprintf+0x64>)
 8006186:	1e0c      	subs	r4, r1, #0
 8006188:	681d      	ldr	r5, [r3, #0]
 800618a:	b09d      	sub	sp, #116	; 0x74
 800618c:	da08      	bge.n	80061a0 <sniprintf+0x20>
 800618e:	238b      	movs	r3, #139	; 0x8b
 8006190:	602b      	str	r3, [r5, #0]
 8006192:	f04f 30ff 	mov.w	r0, #4294967295
 8006196:	b01d      	add	sp, #116	; 0x74
 8006198:	e8bd 4030 	ldmia.w	sp!, {r4, r5, lr}
 800619c:	b002      	add	sp, #8
 800619e:	4770      	bx	lr
 80061a0:	f44f 7302 	mov.w	r3, #520	; 0x208
 80061a4:	f8ad 3014 	strh.w	r3, [sp, #20]
 80061a8:	bf14      	ite	ne
 80061aa:	f104 33ff 	addne.w	r3, r4, #4294967295
 80061ae:	4623      	moveq	r3, r4
 80061b0:	9304      	str	r3, [sp, #16]
 80061b2:	9307      	str	r3, [sp, #28]
 80061b4:	f64f 73ff 	movw	r3, #65535	; 0xffff
 80061b8:	9002      	str	r0, [sp, #8]
 80061ba:	9006      	str	r0, [sp, #24]
 80061bc:	f8ad 3016 	strh.w	r3, [sp, #22]
 80061c0:	9a20      	ldr	r2, [sp, #128]	; 0x80
 80061c2:	ab21      	add	r3, sp, #132	; 0x84
 80061c4:	a902      	add	r1, sp, #8
 80061c6:	4628      	mov	r0, r5
 80061c8:	9301      	str	r3, [sp, #4]
 80061ca:	f000 f869 	bl	80062a0 <_svfiprintf_r>
 80061ce:	1c43      	adds	r3, r0, #1
 80061d0:	bfbc      	itt	lt
 80061d2:	238b      	movlt	r3, #139	; 0x8b
 80061d4:	602b      	strlt	r3, [r5, #0]
 80061d6:	2c00      	cmp	r4, #0
 80061d8:	d0dd      	beq.n	8006196 <sniprintf+0x16>
 80061da:	9b02      	ldr	r3, [sp, #8]
 80061dc:	2200      	movs	r2, #0
 80061de:	701a      	strb	r2, [r3, #0]
 80061e0:	e7d9      	b.n	8006196 <sniprintf+0x16>
 80061e2:	bf00      	nop
 80061e4:	200001d4 	.word	0x200001d4

080061e8 <__ssputs_r>:
 80061e8:	e92d 47f0 	stmdb	sp!, {r4, r5, r6, r7, r8, r9, sl, lr}
 80061ec:	688e      	ldr	r6, [r1, #8]
 80061ee:	429e      	cmp	r6, r3
 80061f0:	4682      	mov	sl, r0
 80061f2:	460c      	mov	r4, r1
 80061f4:	4690      	mov	r8, r2
 80061f6:	461f      	mov	r7, r3
 80061f8:	d838      	bhi.n	800626c <__ssputs_r+0x84>
 80061fa:	898a      	ldrh	r2, [r1, #12]
 80061fc:	f412 6f90 	tst.w	r2, #1152	; 0x480
 8006200:	d032      	beq.n	8006268 <__ssputs_r+0x80>
 8006202:	6825      	ldr	r5, [r4, #0]
 8006204:	6909      	ldr	r1, [r1, #16]
 8006206:	eba5 0901 	sub.w	r9, r5, r1
 800620a:	6965      	ldr	r5, [r4, #20]
 800620c:	eb05 0545 	add.w	r5, r5, r5, lsl #1
 8006210:	eb05 75d5 	add.w	r5, r5, r5, lsr #31
 8006214:	3301      	adds	r3, #1
 8006216:	444b      	add	r3, r9
 8006218:	106d      	asrs	r5, r5, #1
 800621a:	429d      	cmp	r5, r3
 800621c:	bf38      	it	cc
 800621e:	461d      	movcc	r5, r3
 8006220:	0553      	lsls	r3, r2, #21
 8006222:	d531      	bpl.n	8006288 <__ssputs_r+0xa0>
 8006224:	4629      	mov	r1, r5
 8006226:	f000 fb55 	bl	80068d4 <_malloc_r>
 800622a:	4606      	mov	r6, r0
 800622c:	b950      	cbnz	r0, 8006244 <__ssputs_r+0x5c>
 800622e:	230c      	movs	r3, #12
 8006230:	f8ca 3000 	str.w	r3, [sl]
 8006234:	89a3      	ldrh	r3, [r4, #12]
 8006236:	f043 0340 	orr.w	r3, r3, #64	; 0x40
 800623a:	81a3      	strh	r3, [r4, #12]
 800623c:	f04f 30ff 	mov.w	r0, #4294967295
 8006240:	e8bd 87f0 	ldmia.w	sp!, {r4, r5, r6, r7, r8, r9, sl, pc}
 8006244:	6921      	ldr	r1, [r4, #16]
 8006246:	464a      	mov	r2, r9
 8006248:	f7ff ff84 	bl	8006154 <memcpy>
 800624c:	89a3      	ldrh	r3, [r4, #12]
 800624e:	f423 6390 	bic.w	r3, r3, #1152	; 0x480
 8006252:	f043 0380 	orr.w	r3, r3, #128	; 0x80
 8006256:	81a3      	strh	r3, [r4, #12]
 8006258:	6126      	str	r6, [r4, #16]
 800625a:	6165      	str	r5, [r4, #20]
 800625c:	444e      	add	r6, r9
 800625e:	eba5 0509 	sub.w	r5, r5, r9
 8006262:	6026      	str	r6, [r4, #0]
 8006264:	60a5      	str	r5, [r4, #8]
 8006266:	463e      	mov	r6, r7
 8006268:	42be      	cmp	r6, r7
 800626a:	d900      	bls.n	800626e <__ssputs_r+0x86>
 800626c:	463e      	mov	r6, r7
 800626e:	6820      	ldr	r0, [r4, #0]
 8006270:	4632      	mov	r2, r6
 8006272:	4641      	mov	r1, r8
 8006274:	f000 faa8 	bl	80067c8 <memmove>
 8006278:	68a3      	ldr	r3, [r4, #8]
 800627a:	1b9b      	subs	r3, r3, r6
 800627c:	60a3      	str	r3, [r4, #8]
 800627e:	6823      	ldr	r3, [r4, #0]
 8006280:	4433      	add	r3, r6
 8006282:	6023      	str	r3, [r4, #0]
 8006284:	2000      	movs	r0, #0
 8006286:	e7db      	b.n	8006240 <__ssputs_r+0x58>
 8006288:	462a      	mov	r2, r5
 800628a:	f000 fb97 	bl	80069bc <_realloc_r>
 800628e:	4606      	mov	r6, r0
 8006290:	2800      	cmp	r0, #0
 8006292:	d1e1      	bne.n	8006258 <__ssputs_r+0x70>
 8006294:	6921      	ldr	r1, [r4, #16]
 8006296:	4650      	mov	r0, sl
 8006298:	f000 fab0 	bl	80067fc <_free_r>
 800629c:	e7c7      	b.n	800622e <__ssputs_r+0x46>
	...

080062a0 <_svfiprintf_r>:
 80062a0:	e92d 4ff0 	stmdb	sp!, {r4, r5, r6, r7, r8, r9, sl, fp, lr}
 80062a4:	4698      	mov	r8, r3
 80062a6:	898b      	ldrh	r3, [r1, #12]
 80062a8:	061b      	lsls	r3, r3, #24
 80062aa:	b09d      	sub	sp, #116	; 0x74
 80062ac:	4607      	mov	r7, r0
 80062ae:	460d      	mov	r5, r1
 80062b0:	4614      	mov	r4, r2
 80062b2:	d50e      	bpl.n	80062d2 <_svfiprintf_r+0x32>
 80062b4:	690b      	ldr	r3, [r1, #16]
 80062b6:	b963      	cbnz	r3, 80062d2 <_svfiprintf_r+0x32>
 80062b8:	2140      	movs	r1, #64	; 0x40
 80062ba:	f000 fb0b 	bl	80068d4 <_malloc_r>
 80062be:	6028      	str	r0, [r5, #0]
 80062c0:	6128      	str	r0, [r5, #16]
 80062c2:	b920      	cbnz	r0, 80062ce <_svfiprintf_r+0x2e>
 80062c4:	230c      	movs	r3, #12
 80062c6:	603b      	str	r3, [r7, #0]
 80062c8:	f04f 30ff 	mov.w	r0, #4294967295
 80062cc:	e0d1      	b.n	8006472 <_svfiprintf_r+0x1d2>
 80062ce:	2340      	movs	r3, #64	; 0x40
 80062d0:	616b      	str	r3, [r5, #20]
 80062d2:	2300      	movs	r3, #0
 80062d4:	9309      	str	r3, [sp, #36]	; 0x24
 80062d6:	2320      	movs	r3, #32
 80062d8:	f88d 3029 	strb.w	r3, [sp, #41]	; 0x29
 80062dc:	f8cd 800c 	str.w	r8, [sp, #12]
 80062e0:	2330      	movs	r3, #48	; 0x30
 80062e2:	f8df 81a8 	ldr.w	r8, [pc, #424]	; 800648c <_svfiprintf_r+0x1ec>
 80062e6:	f88d 302a 	strb.w	r3, [sp, #42]	; 0x2a
 80062ea:	f04f 0901 	mov.w	r9, #1
 80062ee:	4623      	mov	r3, r4
 80062f0:	469a      	mov	sl, r3
 80062f2:	f813 2b01 	ldrb.w	r2, [r3], #1
 80062f6:	b10a      	cbz	r2, 80062fc <_svfiprintf_r+0x5c>
 80062f8:	2a25      	cmp	r2, #37	; 0x25
 80062fa:	d1f9      	bne.n	80062f0 <_svfiprintf_r+0x50>
 80062fc:	ebba 0b04 	subs.w	fp, sl, r4
 8006300:	d00b      	beq.n	800631a <_svfiprintf_r+0x7a>
 8006302:	465b      	mov	r3, fp
 8006304:	4622      	mov	r2, r4
 8006306:	4629      	mov	r1, r5
 8006308:	4638      	mov	r0, r7
 800630a:	f7ff ff6d 	bl	80061e8 <__ssputs_r>
 800630e:	3001      	adds	r0, #1
 8006310:	f000 80aa 	beq.w	8006468 <_svfiprintf_r+0x1c8>
 8006314:	9a09      	ldr	r2, [sp, #36]	; 0x24
 8006316:	445a      	add	r2, fp
 8006318:	9209      	str	r2, [sp, #36]	; 0x24
 800631a:	f89a 3000 	ldrb.w	r3, [sl]
 800631e:	2b00      	cmp	r3, #0
 8006320:	f000 80a2 	beq.w	8006468 <_svfiprintf_r+0x1c8>
 8006324:	2300      	movs	r3, #0
 8006326:	f04f 32ff 	mov.w	r2, #4294967295
 800632a:	e9cd 2305 	strd	r2, r3, [sp, #20]
 800632e:	f10a 0a01 	add.w	sl, sl, #1
 8006332:	9304      	str	r3, [sp, #16]
 8006334:	9307      	str	r3, [sp, #28]
 8006336:	f88d 3053 	strb.w	r3, [sp, #83]	; 0x53
 800633a:	931a      	str	r3, [sp, #104]	; 0x68
 800633c:	4654      	mov	r4, sl
 800633e:	2205      	movs	r2, #5
 8006340:	f814 1b01 	ldrb.w	r1, [r4], #1
 8006344:	4851      	ldr	r0, [pc, #324]	; (800648c <_svfiprintf_r+0x1ec>)
 8006346:	f7f9 ff4b 	bl	80001e0 <memchr>
 800634a:	9a04      	ldr	r2, [sp, #16]
 800634c:	b9d8      	cbnz	r0, 8006386 <_svfiprintf_r+0xe6>
 800634e:	06d0      	lsls	r0, r2, #27
 8006350:	bf44      	itt	mi
 8006352:	2320      	movmi	r3, #32
 8006354:	f88d 3053 	strbmi.w	r3, [sp, #83]	; 0x53
 8006358:	0711      	lsls	r1, r2, #28
 800635a:	bf44      	itt	mi
 800635c:	232b      	movmi	r3, #43	; 0x2b
 800635e:	f88d 3053 	strbmi.w	r3, [sp, #83]	; 0x53
 8006362:	f89a 3000 	ldrb.w	r3, [sl]
 8006366:	2b2a      	cmp	r3, #42	; 0x2a
 8006368:	d015      	beq.n	8006396 <_svfiprintf_r+0xf6>
 800636a:	9a07      	ldr	r2, [sp, #28]
 800636c:	4654      	mov	r4, sl
 800636e:	2000      	movs	r0, #0
 8006370:	f04f 0c0a 	mov.w	ip, #10
 8006374:	4621      	mov	r1, r4
 8006376:	f811 3b01 	ldrb.w	r3, [r1], #1
 800637a:	3b30      	subs	r3, #48	; 0x30
 800637c:	2b09      	cmp	r3, #9
 800637e:	d94e      	bls.n	800641e <_svfiprintf_r+0x17e>
 8006380:	b1b0      	cbz	r0, 80063b0 <_svfiprintf_r+0x110>
 8006382:	9207      	str	r2, [sp, #28]
 8006384:	e014      	b.n	80063b0 <_svfiprintf_r+0x110>
 8006386:	eba0 0308 	sub.w	r3, r0, r8
 800638a:	fa09 f303 	lsl.w	r3, r9, r3
 800638e:	4313      	orrs	r3, r2
 8006390:	9304      	str	r3, [sp, #16]
 8006392:	46a2      	mov	sl, r4
 8006394:	e7d2      	b.n	800633c <_svfiprintf_r+0x9c>
 8006396:	9b03      	ldr	r3, [sp, #12]
 8006398:	1d19      	adds	r1, r3, #4
 800639a:	681b      	ldr	r3, [r3, #0]
 800639c:	9103      	str	r1, [sp, #12]
 800639e:	2b00      	cmp	r3, #0
 80063a0:	bfbb      	ittet	lt
 80063a2:	425b      	neglt	r3, r3
 80063a4:	f042 0202 	orrlt.w	r2, r2, #2
 80063a8:	9307      	strge	r3, [sp, #28]
 80063aa:	9307      	strlt	r3, [sp, #28]
 80063ac:	bfb8      	it	lt
 80063ae:	9204      	strlt	r2, [sp, #16]
 80063b0:	7823      	ldrb	r3, [r4, #0]
 80063b2:	2b2e      	cmp	r3, #46	; 0x2e
 80063b4:	d10c      	bne.n	80063d0 <_svfiprintf_r+0x130>
 80063b6:	7863      	ldrb	r3, [r4, #1]
 80063b8:	2b2a      	cmp	r3, #42	; 0x2a
 80063ba:	d135      	bne.n	8006428 <_svfiprintf_r+0x188>
 80063bc:	9b03      	ldr	r3, [sp, #12]
 80063be:	1d1a      	adds	r2, r3, #4
 80063c0:	681b      	ldr	r3, [r3, #0]
 80063c2:	9203      	str	r2, [sp, #12]
 80063c4:	2b00      	cmp	r3, #0
 80063c6:	bfb8      	it	lt
 80063c8:	f04f 33ff 	movlt.w	r3, #4294967295
 80063cc:	3402      	adds	r4, #2
 80063ce:	9305      	str	r3, [sp, #20]
 80063d0:	f8df a0c8 	ldr.w	sl, [pc, #200]	; 800649c <_svfiprintf_r+0x1fc>
 80063d4:	7821      	ldrb	r1, [r4, #0]
 80063d6:	2203      	movs	r2, #3
 80063d8:	4650      	mov	r0, sl
 80063da:	f7f9 ff01 	bl	80001e0 <memchr>
 80063de:	b140      	cbz	r0, 80063f2 <_svfiprintf_r+0x152>
 80063e0:	2340      	movs	r3, #64	; 0x40
 80063e2:	eba0 000a 	sub.w	r0, r0, sl
 80063e6:	fa03 f000 	lsl.w	r0, r3, r0
 80063ea:	9b04      	ldr	r3, [sp, #16]
 80063ec:	4303      	orrs	r3, r0
 80063ee:	3401      	adds	r4, #1
 80063f0:	9304      	str	r3, [sp, #16]
 80063f2:	f814 1b01 	ldrb.w	r1, [r4], #1
 80063f6:	4826      	ldr	r0, [pc, #152]	; (8006490 <_svfiprintf_r+0x1f0>)
 80063f8:	f88d 1028 	strb.w	r1, [sp, #40]	; 0x28
 80063fc:	2206      	movs	r2, #6
 80063fe:	f7f9 feef 	bl	80001e0 <memchr>
 8006402:	2800      	cmp	r0, #0
 8006404:	d038      	beq.n	8006478 <_svfiprintf_r+0x1d8>
 8006406:	4b23      	ldr	r3, [pc, #140]	; (8006494 <_svfiprintf_r+0x1f4>)
 8006408:	bb1b      	cbnz	r3, 8006452 <_svfiprintf_r+0x1b2>
 800640a:	9b03      	ldr	r3, [sp, #12]
 800640c:	3307      	adds	r3, #7
 800640e:	f023 0307 	bic.w	r3, r3, #7
 8006412:	3308      	adds	r3, #8
 8006414:	9303      	str	r3, [sp, #12]
 8006416:	9b09      	ldr	r3, [sp, #36]	; 0x24
 8006418:	4433      	add	r3, r6
 800641a:	9309      	str	r3, [sp, #36]	; 0x24
 800641c:	e767      	b.n	80062ee <_svfiprintf_r+0x4e>
 800641e:	fb0c 3202 	mla	r2, ip, r2, r3
 8006422:	460c      	mov	r4, r1
 8006424:	2001      	movs	r0, #1
 8006426:	e7a5      	b.n	8006374 <_svfiprintf_r+0xd4>
 8006428:	2300      	movs	r3, #0
 800642a:	3401      	adds	r4, #1
 800642c:	9305      	str	r3, [sp, #20]
 800642e:	4619      	mov	r1, r3
 8006430:	f04f 0c0a 	mov.w	ip, #10
 8006434:	4620      	mov	r0, r4
 8006436:	f810 2b01 	ldrb.w	r2, [r0], #1
 800643a:	3a30      	subs	r2, #48	; 0x30
 800643c:	2a09      	cmp	r2, #9
 800643e:	d903      	bls.n	8006448 <_svfiprintf_r+0x1a8>
 8006440:	2b00      	cmp	r3, #0
 8006442:	d0c5      	beq.n	80063d0 <_svfiprintf_r+0x130>
 8006444:	9105      	str	r1, [sp, #20]
 8006446:	e7c3      	b.n	80063d0 <_svfiprintf_r+0x130>
 8006448:	fb0c 2101 	mla	r1, ip, r1, r2
 800644c:	4604      	mov	r4, r0
 800644e:	2301      	movs	r3, #1
 8006450:	e7f0      	b.n	8006434 <_svfiprintf_r+0x194>
 8006452:	ab03      	add	r3, sp, #12
 8006454:	9300      	str	r3, [sp, #0]
 8006456:	462a      	mov	r2, r5
 8006458:	4b0f      	ldr	r3, [pc, #60]	; (8006498 <_svfiprintf_r+0x1f8>)
 800645a:	a904      	add	r1, sp, #16
 800645c:	4638      	mov	r0, r7
 800645e:	f3af 8000 	nop.w
 8006462:	1c42      	adds	r2, r0, #1
 8006464:	4606      	mov	r6, r0
 8006466:	d1d6      	bne.n	8006416 <_svfiprintf_r+0x176>
 8006468:	89ab      	ldrh	r3, [r5, #12]
 800646a:	065b      	lsls	r3, r3, #25
 800646c:	f53f af2c 	bmi.w	80062c8 <_svfiprintf_r+0x28>
 8006470:	9809      	ldr	r0, [sp, #36]	; 0x24
 8006472:	b01d      	add	sp, #116	; 0x74
 8006474:	e8bd 8ff0 	ldmia.w	sp!, {r4, r5, r6, r7, r8, r9, sl, fp, pc}
 8006478:	ab03      	add	r3, sp, #12
 800647a:	9300      	str	r3, [sp, #0]
 800647c:	462a      	mov	r2, r5
 800647e:	4b06      	ldr	r3, [pc, #24]	; (8006498 <_svfiprintf_r+0x1f8>)
 8006480:	a904      	add	r1, sp, #16
 8006482:	4638      	mov	r0, r7
 8006484:	f000 f87a 	bl	800657c <_printf_i>
 8006488:	e7eb      	b.n	8006462 <_svfiprintf_r+0x1c2>
 800648a:	bf00      	nop
 800648c:	08006c2c 	.word	0x08006c2c
 8006490:	08006c36 	.word	0x08006c36
 8006494:	00000000 	.word	0x00000000
 8006498:	080061e9 	.word	0x080061e9
 800649c:	08006c32 	.word	0x08006c32

080064a0 <_printf_common>:
 80064a0:	e92d 47f0 	stmdb	sp!, {r4, r5, r6, r7, r8, r9, sl, lr}
 80064a4:	4616      	mov	r6, r2
 80064a6:	4699      	mov	r9, r3
 80064a8:	688a      	ldr	r2, [r1, #8]
 80064aa:	690b      	ldr	r3, [r1, #16]
 80064ac:	f8dd 8020 	ldr.w	r8, [sp, #32]
 80064b0:	4293      	cmp	r3, r2
 80064b2:	bfb8      	it	lt
 80064b4:	4613      	movlt	r3, r2
 80064b6:	6033      	str	r3, [r6, #0]
 80064b8:	f891 2043 	ldrb.w	r2, [r1, #67]	; 0x43
 80064bc:	4607      	mov	r7, r0
 80064be:	460c      	mov	r4, r1
 80064c0:	b10a      	cbz	r2, 80064c6 <_printf_common+0x26>
 80064c2:	3301      	adds	r3, #1
 80064c4:	6033      	str	r3, [r6, #0]
 80064c6:	6823      	ldr	r3, [r4, #0]
 80064c8:	0699      	lsls	r1, r3, #26
 80064ca:	bf42      	ittt	mi
 80064cc:	6833      	ldrmi	r3, [r6, #0]
 80064ce:	3302      	addmi	r3, #2
 80064d0:	6033      	strmi	r3, [r6, #0]
 80064d2:	6825      	ldr	r5, [r4, #0]
 80064d4:	f015 0506 	ands.w	r5, r5, #6
 80064d8:	d106      	bne.n	80064e8 <_printf_common+0x48>
 80064da:	f104 0a19 	add.w	sl, r4, #25
 80064de:	68e3      	ldr	r3, [r4, #12]
 80064e0:	6832      	ldr	r2, [r6, #0]
 80064e2:	1a9b      	subs	r3, r3, r2
 80064e4:	42ab      	cmp	r3, r5
 80064e6:	dc26      	bgt.n	8006536 <_printf_common+0x96>
 80064e8:	f894 2043 	ldrb.w	r2, [r4, #67]	; 0x43
 80064ec:	1e13      	subs	r3, r2, #0
 80064ee:	6822      	ldr	r2, [r4, #0]
 80064f0:	bf18      	it	ne
 80064f2:	2301      	movne	r3, #1
 80064f4:	0692      	lsls	r2, r2, #26
 80064f6:	d42b      	bmi.n	8006550 <_printf_common+0xb0>
 80064f8:	f104 0243 	add.w	r2, r4, #67	; 0x43
 80064fc:	4649      	mov	r1, r9
 80064fe:	4638      	mov	r0, r7
 8006500:	47c0      	blx	r8
 8006502:	3001      	adds	r0, #1
 8006504:	d01e      	beq.n	8006544 <_printf_common+0xa4>
 8006506:	6823      	ldr	r3, [r4, #0]
 8006508:	68e5      	ldr	r5, [r4, #12]
 800650a:	6832      	ldr	r2, [r6, #0]
 800650c:	f003 0306 	and.w	r3, r3, #6
 8006510:	2b04      	cmp	r3, #4
 8006512:	bf08      	it	eq
 8006514:	1aad      	subeq	r5, r5, r2
 8006516:	68a3      	ldr	r3, [r4, #8]
 8006518:	6922      	ldr	r2, [r4, #16]
 800651a:	bf0c      	ite	eq
 800651c:	ea25 75e5 	biceq.w	r5, r5, r5, asr #31
 8006520:	2500      	movne	r5, #0
 8006522:	4293      	cmp	r3, r2
 8006524:	bfc4      	itt	gt
 8006526:	1a9b      	subgt	r3, r3, r2
 8006528:	18ed      	addgt	r5, r5, r3
 800652a:	2600      	movs	r6, #0
 800652c:	341a      	adds	r4, #26
 800652e:	42b5      	cmp	r5, r6
 8006530:	d11a      	bne.n	8006568 <_printf_common+0xc8>
 8006532:	2000      	movs	r0, #0
 8006534:	e008      	b.n	8006548 <_printf_common+0xa8>
 8006536:	2301      	movs	r3, #1
 8006538:	4652      	mov	r2, sl
 800653a:	4649      	mov	r1, r9
 800653c:	4638      	mov	r0, r7
 800653e:	47c0      	blx	r8
 8006540:	3001      	adds	r0, #1
 8006542:	d103      	bne.n	800654c <_printf_common+0xac>
 8006544:	f04f 30ff 	mov.w	r0, #4294967295
 8006548:	e8bd 87f0 	ldmia.w	sp!, {r4, r5, r6, r7, r8, r9, sl, pc}
 800654c:	3501      	adds	r5, #1
 800654e:	e7c6      	b.n	80064de <_printf_common+0x3e>
 8006550:	18e1      	adds	r1, r4, r3
 8006552:	1c5a      	adds	r2, r3, #1
 8006554:	2030      	movs	r0, #48	; 0x30
 8006556:	f881 0043 	strb.w	r0, [r1, #67]	; 0x43
 800655a:	4422      	add	r2, r4
 800655c:	f894 1045 	ldrb.w	r1, [r4, #69]	; 0x45
 8006560:	f882 1043 	strb.w	r1, [r2, #67]	; 0x43
 8006564:	3302      	adds	r3, #2
 8006566:	e7c7      	b.n	80064f8 <_printf_common+0x58>
 8006568:	2301      	movs	r3, #1
 800656a:	4622      	mov	r2, r4
 800656c:	4649      	mov	r1, r9
 800656e:	4638      	mov	r0, r7
 8006570:	47c0      	blx	r8
 8006572:	3001      	adds	r0, #1
 8006574:	d0e6      	beq.n	8006544 <_printf_common+0xa4>
 8006576:	3601      	adds	r6, #1
 8006578:	e7d9      	b.n	800652e <_printf_common+0x8e>
	...

0800657c <_printf_i>:
 800657c:	e92d 47ff 	stmdb	sp!, {r0, r1, r2, r3, r4, r5, r6, r7, r8, r9, sl, lr}
 8006580:	7e0f      	ldrb	r7, [r1, #24]
 8006582:	9d0c      	ldr	r5, [sp, #48]	; 0x30
 8006584:	2f78      	cmp	r7, #120	; 0x78
 8006586:	4691      	mov	r9, r2
 8006588:	4680      	mov	r8, r0
 800658a:	460c      	mov	r4, r1
 800658c:	469a      	mov	sl, r3
 800658e:	f101 0243 	add.w	r2, r1, #67	; 0x43
 8006592:	d807      	bhi.n	80065a4 <_printf_i+0x28>
 8006594:	2f62      	cmp	r7, #98	; 0x62
 8006596:	d80a      	bhi.n	80065ae <_printf_i+0x32>
 8006598:	2f00      	cmp	r7, #0
 800659a:	f000 80d8 	beq.w	800674e <_printf_i+0x1d2>
 800659e:	2f58      	cmp	r7, #88	; 0x58
 80065a0:	f000 80a3 	beq.w	80066ea <_printf_i+0x16e>
 80065a4:	f104 0542 	add.w	r5, r4, #66	; 0x42
 80065a8:	f884 7042 	strb.w	r7, [r4, #66]	; 0x42
 80065ac:	e03a      	b.n	8006624 <_printf_i+0xa8>
 80065ae:	f1a7 0363 	sub.w	r3, r7, #99	; 0x63
 80065b2:	2b15      	cmp	r3, #21
 80065b4:	d8f6      	bhi.n	80065a4 <_printf_i+0x28>
 80065b6:	a101      	add	r1, pc, #4	; (adr r1, 80065bc <_printf_i+0x40>)
 80065b8:	f851 f023 	ldr.w	pc, [r1, r3, lsl #2]
 80065bc:	08006615 	.word	0x08006615
 80065c0:	08006629 	.word	0x08006629
 80065c4:	080065a5 	.word	0x080065a5
 80065c8:	080065a5 	.word	0x080065a5
 80065cc:	080065a5 	.word	0x080065a5
 80065d0:	080065a5 	.word	0x080065a5
 80065d4:	08006629 	.word	0x08006629
 80065d8:	080065a5 	.word	0x080065a5
 80065dc:	080065a5 	.word	0x080065a5
 80065e0:	080065a5 	.word	0x080065a5
 80065e4:	080065a5 	.word	0x080065a5
 80065e8:	08006735 	.word	0x08006735
 80065ec:	08006659 	.word	0x08006659
 80065f0:	08006717 	.word	0x08006717
 80065f4:	080065a5 	.word	0x080065a5
 80065f8:	080065a5 	.word	0x080065a5
 80065fc:	08006757 	.word	0x08006757
 8006600:	080065a5 	.word	0x080065a5
 8006604:	08006659 	.word	0x08006659
 8006608:	080065a5 	.word	0x080065a5
 800660c:	080065a5 	.word	0x080065a5
 8006610:	0800671f 	.word	0x0800671f
 8006614:	682b      	ldr	r3, [r5, #0]
 8006616:	1d1a      	adds	r2, r3, #4
 8006618:	681b      	ldr	r3, [r3, #0]
 800661a:	602a      	str	r2, [r5, #0]
 800661c:	f104 0542 	add.w	r5, r4, #66	; 0x42
 8006620:	f884 3042 	strb.w	r3, [r4, #66]	; 0x42
 8006624:	2301      	movs	r3, #1
 8006626:	e0a3      	b.n	8006770 <_printf_i+0x1f4>
 8006628:	6820      	ldr	r0, [r4, #0]
 800662a:	6829      	ldr	r1, [r5, #0]
 800662c:	0606      	lsls	r6, r0, #24
 800662e:	f101 0304 	add.w	r3, r1, #4
 8006632:	d50a      	bpl.n	800664a <_printf_i+0xce>
 8006634:	680e      	ldr	r6, [r1, #0]
 8006636:	602b      	str	r3, [r5, #0]
 8006638:	2e00      	cmp	r6, #0
 800663a:	da03      	bge.n	8006644 <_printf_i+0xc8>
 800663c:	232d      	movs	r3, #45	; 0x2d
 800663e:	4276      	negs	r6, r6
 8006640:	f884 3043 	strb.w	r3, [r4, #67]	; 0x43
 8006644:	485e      	ldr	r0, [pc, #376]	; (80067c0 <_printf_i+0x244>)
 8006646:	230a      	movs	r3, #10
 8006648:	e019      	b.n	800667e <_printf_i+0x102>
 800664a:	680e      	ldr	r6, [r1, #0]
 800664c:	602b      	str	r3, [r5, #0]
 800664e:	f010 0f40 	tst.w	r0, #64	; 0x40
 8006652:	bf18      	it	ne
 8006654:	b236      	sxthne	r6, r6
 8006656:	e7ef      	b.n	8006638 <_printf_i+0xbc>
 8006658:	682b      	ldr	r3, [r5, #0]
 800665a:	6820      	ldr	r0, [r4, #0]
 800665c:	1d19      	adds	r1, r3, #4
 800665e:	6029      	str	r1, [r5, #0]
 8006660:	0601      	lsls	r1, r0, #24
 8006662:	d501      	bpl.n	8006668 <_printf_i+0xec>
 8006664:	681e      	ldr	r6, [r3, #0]
 8006666:	e002      	b.n	800666e <_printf_i+0xf2>
 8006668:	0646      	lsls	r6, r0, #25
 800666a:	d5fb      	bpl.n	8006664 <_printf_i+0xe8>
 800666c:	881e      	ldrh	r6, [r3, #0]
 800666e:	4854      	ldr	r0, [pc, #336]	; (80067c0 <_printf_i+0x244>)
 8006670:	2f6f      	cmp	r7, #111	; 0x6f
 8006672:	bf0c      	ite	eq
 8006674:	2308      	moveq	r3, #8
 8006676:	230a      	movne	r3, #10
 8006678:	2100      	movs	r1, #0
 800667a:	f884 1043 	strb.w	r1, [r4, #67]	; 0x43
 800667e:	6865      	ldr	r5, [r4, #4]
 8006680:	60a5      	str	r5, [r4, #8]
 8006682:	2d00      	cmp	r5, #0
 8006684:	bfa2      	ittt	ge
 8006686:	6821      	ldrge	r1, [r4, #0]
 8006688:	f021 0104 	bicge.w	r1, r1, #4
 800668c:	6021      	strge	r1, [r4, #0]
 800668e:	b90e      	cbnz	r6, 8006694 <_printf_i+0x118>
 8006690:	2d00      	cmp	r5, #0
 8006692:	d04d      	beq.n	8006730 <_printf_i+0x1b4>
 8006694:	4615      	mov	r5, r2
 8006696:	fbb6 f1f3 	udiv	r1, r6, r3
 800669a:	fb03 6711 	mls	r7, r3, r1, r6
 800669e:	5dc7      	ldrb	r7, [r0, r7]
 80066a0:	f805 7d01 	strb.w	r7, [r5, #-1]!
 80066a4:	4637      	mov	r7, r6
 80066a6:	42bb      	cmp	r3, r7
 80066a8:	460e      	mov	r6, r1
 80066aa:	d9f4      	bls.n	8006696 <_printf_i+0x11a>
 80066ac:	2b08      	cmp	r3, #8
 80066ae:	d10b      	bne.n	80066c8 <_printf_i+0x14c>
 80066b0:	6823      	ldr	r3, [r4, #0]
 80066b2:	07de      	lsls	r6, r3, #31
 80066b4:	d508      	bpl.n	80066c8 <_printf_i+0x14c>
 80066b6:	6923      	ldr	r3, [r4, #16]
 80066b8:	6861      	ldr	r1, [r4, #4]
 80066ba:	4299      	cmp	r1, r3
 80066bc:	bfde      	ittt	le
 80066be:	2330      	movle	r3, #48	; 0x30
 80066c0:	f805 3c01 	strble.w	r3, [r5, #-1]
 80066c4:	f105 35ff 	addle.w	r5, r5, #4294967295
 80066c8:	1b52      	subs	r2, r2, r5
 80066ca:	6122      	str	r2, [r4, #16]
 80066cc:	f8cd a000 	str.w	sl, [sp]
 80066d0:	464b      	mov	r3, r9
 80066d2:	aa03      	add	r2, sp, #12
 80066d4:	4621      	mov	r1, r4
 80066d6:	4640      	mov	r0, r8
 80066d8:	f7ff fee2 	bl	80064a0 <_printf_common>
 80066dc:	3001      	adds	r0, #1
 80066de:	d14c      	bne.n	800677a <_printf_i+0x1fe>
 80066e0:	f04f 30ff 	mov.w	r0, #4294967295
 80066e4:	b004      	add	sp, #16
 80066e6:	e8bd 87f0 	ldmia.w	sp!, {r4, r5, r6, r7, r8, r9, sl, pc}
 80066ea:	4835      	ldr	r0, [pc, #212]	; (80067c0 <_printf_i+0x244>)
 80066ec:	f881 7045 	strb.w	r7, [r1, #69]	; 0x45
 80066f0:	6829      	ldr	r1, [r5, #0]
 80066f2:	6823      	ldr	r3, [r4, #0]
 80066f4:	f851 6b04 	ldr.w	r6, [r1], #4
 80066f8:	6029      	str	r1, [r5, #0]
 80066fa:	061d      	lsls	r5, r3, #24
 80066fc:	d514      	bpl.n	8006728 <_printf_i+0x1ac>
 80066fe:	07df      	lsls	r7, r3, #31
 8006700:	bf44      	itt	mi
 8006702:	f043 0320 	orrmi.w	r3, r3, #32
 8006706:	6023      	strmi	r3, [r4, #0]
 8006708:	b91e      	cbnz	r6, 8006712 <_printf_i+0x196>
 800670a:	6823      	ldr	r3, [r4, #0]
 800670c:	f023 0320 	bic.w	r3, r3, #32
 8006710:	6023      	str	r3, [r4, #0]
 8006712:	2310      	movs	r3, #16
 8006714:	e7b0      	b.n	8006678 <_printf_i+0xfc>
 8006716:	6823      	ldr	r3, [r4, #0]
 8006718:	f043 0320 	orr.w	r3, r3, #32
 800671c:	6023      	str	r3, [r4, #0]
 800671e:	2378      	movs	r3, #120	; 0x78
 8006720:	4828      	ldr	r0, [pc, #160]	; (80067c4 <_printf_i+0x248>)
 8006722:	f884 3045 	strb.w	r3, [r4, #69]	; 0x45
 8006726:	e7e3      	b.n	80066f0 <_printf_i+0x174>
 8006728:	0659      	lsls	r1, r3, #25
 800672a:	bf48      	it	mi
 800672c:	b2b6      	uxthmi	r6, r6
 800672e:	e7e6      	b.n	80066fe <_printf_i+0x182>
 8006730:	4615      	mov	r5, r2
 8006732:	e7bb      	b.n	80066ac <_printf_i+0x130>
 8006734:	682b      	ldr	r3, [r5, #0]
 8006736:	6826      	ldr	r6, [r4, #0]
 8006738:	6961      	ldr	r1, [r4, #20]
 800673a:	1d18      	adds	r0, r3, #4
 800673c:	6028      	str	r0, [r5, #0]
 800673e:	0635      	lsls	r5, r6, #24
 8006740:	681b      	ldr	r3, [r3, #0]
 8006742:	d501      	bpl.n	8006748 <_printf_i+0x1cc>
 8006744:	6019      	str	r1, [r3, #0]
 8006746:	e002      	b.n	800674e <_printf_i+0x1d2>
 8006748:	0670      	lsls	r0, r6, #25
 800674a:	d5fb      	bpl.n	8006744 <_printf_i+0x1c8>
 800674c:	8019      	strh	r1, [r3, #0]
 800674e:	2300      	movs	r3, #0
 8006750:	6123      	str	r3, [r4, #16]
 8006752:	4615      	mov	r5, r2
 8006754:	e7ba      	b.n	80066cc <_printf_i+0x150>
 8006756:	682b      	ldr	r3, [r5, #0]
 8006758:	1d1a      	adds	r2, r3, #4
 800675a:	602a      	str	r2, [r5, #0]
 800675c:	681d      	ldr	r5, [r3, #0]
 800675e:	6862      	ldr	r2, [r4, #4]
 8006760:	2100      	movs	r1, #0
 8006762:	4628      	mov	r0, r5
 8006764:	f7f9 fd3c 	bl	80001e0 <memchr>
 8006768:	b108      	cbz	r0, 800676e <_printf_i+0x1f2>
 800676a:	1b40      	subs	r0, r0, r5
 800676c:	6060      	str	r0, [r4, #4]
 800676e:	6863      	ldr	r3, [r4, #4]
 8006770:	6123      	str	r3, [r4, #16]
 8006772:	2300      	movs	r3, #0
 8006774:	f884 3043 	strb.w	r3, [r4, #67]	; 0x43
 8006778:	e7a8      	b.n	80066cc <_printf_i+0x150>
 800677a:	6923      	ldr	r3, [r4, #16]
 800677c:	462a      	mov	r2, r5
 800677e:	4649      	mov	r1, r9
 8006780:	4640      	mov	r0, r8
 8006782:	47d0      	blx	sl
 8006784:	3001      	adds	r0, #1
 8006786:	d0ab      	beq.n	80066e0 <_printf_i+0x164>
 8006788:	6823      	ldr	r3, [r4, #0]
 800678a:	079b      	lsls	r3, r3, #30
 800678c:	d413      	bmi.n	80067b6 <_printf_i+0x23a>
 800678e:	68e0      	ldr	r0, [r4, #12]
 8006790:	9b03      	ldr	r3, [sp, #12]
 8006792:	4298      	cmp	r0, r3
 8006794:	bfb8      	it	lt
 8006796:	4618      	movlt	r0, r3
 8006798:	e7a4      	b.n	80066e4 <_printf_i+0x168>
 800679a:	2301      	movs	r3, #1
 800679c:	4632      	mov	r2, r6
 800679e:	4649      	mov	r1, r9
 80067a0:	4640      	mov	r0, r8
 80067a2:	47d0      	blx	sl
 80067a4:	3001      	adds	r0, #1
 80067a6:	d09b      	beq.n	80066e0 <_printf_i+0x164>
 80067a8:	3501      	adds	r5, #1
 80067aa:	68e3      	ldr	r3, [r4, #12]
 80067ac:	9903      	ldr	r1, [sp, #12]
 80067ae:	1a5b      	subs	r3, r3, r1
 80067b0:	42ab      	cmp	r3, r5
 80067b2:	dcf2      	bgt.n	800679a <_printf_i+0x21e>
 80067b4:	e7eb      	b.n	800678e <_printf_i+0x212>
 80067b6:	2500      	movs	r5, #0
 80067b8:	f104 0619 	add.w	r6, r4, #25
 80067bc:	e7f5      	b.n	80067aa <_printf_i+0x22e>
 80067be:	bf00      	nop
 80067c0:	08006c3d 	.word	0x08006c3d
 80067c4:	08006c4e 	.word	0x08006c4e

080067c8 <memmove>:
 80067c8:	4288      	cmp	r0, r1
 80067ca:	b510      	push	{r4, lr}
 80067cc:	eb01 0402 	add.w	r4, r1, r2
 80067d0:	d902      	bls.n	80067d8 <memmove+0x10>
 80067d2:	4284      	cmp	r4, r0
 80067d4:	4623      	mov	r3, r4
 80067d6:	d807      	bhi.n	80067e8 <memmove+0x20>
 80067d8:	1e43      	subs	r3, r0, #1
 80067da:	42a1      	cmp	r1, r4
 80067dc:	d008      	beq.n	80067f0 <memmove+0x28>
 80067de:	f811 2b01 	ldrb.w	r2, [r1], #1
 80067e2:	f803 2f01 	strb.w	r2, [r3, #1]!
 80067e6:	e7f8      	b.n	80067da <memmove+0x12>
 80067e8:	4402      	add	r2, r0
 80067ea:	4601      	mov	r1, r0
 80067ec:	428a      	cmp	r2, r1
 80067ee:	d100      	bne.n	80067f2 <memmove+0x2a>
 80067f0:	bd10      	pop	{r4, pc}
 80067f2:	f813 4d01 	ldrb.w	r4, [r3, #-1]!
 80067f6:	f802 4d01 	strb.w	r4, [r2, #-1]!
 80067fa:	e7f7      	b.n	80067ec <memmove+0x24>

080067fc <_free_r>:
 80067fc:	b537      	push	{r0, r1, r2, r4, r5, lr}
 80067fe:	2900      	cmp	r1, #0
 8006800:	d044      	beq.n	800688c <_free_r+0x90>
 8006802:	f851 3c04 	ldr.w	r3, [r1, #-4]
 8006806:	9001      	str	r0, [sp, #4]
 8006808:	2b00      	cmp	r3, #0
 800680a:	f1a1 0404 	sub.w	r4, r1, #4
 800680e:	bfb8      	it	lt
 8006810:	18e4      	addlt	r4, r4, r3
 8006812:	f000 f913 	bl	8006a3c <__malloc_lock>
 8006816:	4a1e      	ldr	r2, [pc, #120]	; (8006890 <_free_r+0x94>)
 8006818:	9801      	ldr	r0, [sp, #4]
 800681a:	6813      	ldr	r3, [r2, #0]
 800681c:	b933      	cbnz	r3, 800682c <_free_r+0x30>
 800681e:	6063      	str	r3, [r4, #4]
 8006820:	6014      	str	r4, [r2, #0]
 8006822:	b003      	add	sp, #12
 8006824:	e8bd 4030 	ldmia.w	sp!, {r4, r5, lr}
 8006828:	f000 b90e 	b.w	8006a48 <__malloc_unlock>
 800682c:	42a3      	cmp	r3, r4
 800682e:	d908      	bls.n	8006842 <_free_r+0x46>
 8006830:	6825      	ldr	r5, [r4, #0]
 8006832:	1961      	adds	r1, r4, r5
 8006834:	428b      	cmp	r3, r1
 8006836:	bf01      	itttt	eq
 8006838:	6819      	ldreq	r1, [r3, #0]
 800683a:	685b      	ldreq	r3, [r3, #4]
 800683c:	1949      	addeq	r1, r1, r5
 800683e:	6021      	streq	r1, [r4, #0]
 8006840:	e7ed      	b.n	800681e <_free_r+0x22>
 8006842:	461a      	mov	r2, r3
 8006844:	685b      	ldr	r3, [r3, #4]
 8006846:	b10b      	cbz	r3, 800684c <_free_r+0x50>
 8006848:	42a3      	cmp	r3, r4
 800684a:	d9fa      	bls.n	8006842 <_free_r+0x46>
 800684c:	6811      	ldr	r1, [r2, #0]
 800684e:	1855      	adds	r5, r2, r1
 8006850:	42a5      	cmp	r5, r4
 8006852:	d10b      	bne.n	800686c <_free_r+0x70>
 8006854:	6824      	ldr	r4, [r4, #0]
 8006856:	4421      	add	r1, r4
 8006858:	1854      	adds	r4, r2, r1
 800685a:	42a3      	cmp	r3, r4
 800685c:	6011      	str	r1, [r2, #0]
 800685e:	d1e0      	bne.n	8006822 <_free_r+0x26>
 8006860:	681c      	ldr	r4, [r3, #0]
 8006862:	685b      	ldr	r3, [r3, #4]
 8006864:	6053      	str	r3, [r2, #4]
 8006866:	4421      	add	r1, r4
 8006868:	6011      	str	r1, [r2, #0]
 800686a:	e7da      	b.n	8006822 <_free_r+0x26>
 800686c:	d902      	bls.n	8006874 <_free_r+0x78>
 800686e:	230c      	movs	r3, #12
 8006870:	6003      	str	r3, [r0, #0]
 8006872:	e7d6      	b.n	8006822 <_free_r+0x26>
 8006874:	6825      	ldr	r5, [r4, #0]
 8006876:	1961      	adds	r1, r4, r5
 8006878:	428b      	cmp	r3, r1
 800687a:	bf04      	itt	eq
 800687c:	6819      	ldreq	r1, [r3, #0]
 800687e:	685b      	ldreq	r3, [r3, #4]
 8006880:	6063      	str	r3, [r4, #4]
 8006882:	bf04      	itt	eq
 8006884:	1949      	addeq	r1, r1, r5
 8006886:	6021      	streq	r1, [r4, #0]
 8006888:	6054      	str	r4, [r2, #4]
 800688a:	e7ca      	b.n	8006822 <_free_r+0x26>
 800688c:	b003      	add	sp, #12
 800688e:	bd30      	pop	{r4, r5, pc}
 8006890:	20005a30 	.word	0x20005a30

08006894 <sbrk_aligned>:
 8006894:	b570      	push	{r4, r5, r6, lr}
 8006896:	4e0e      	ldr	r6, [pc, #56]	; (80068d0 <sbrk_aligned+0x3c>)
 8006898:	460c      	mov	r4, r1
 800689a:	6831      	ldr	r1, [r6, #0]
 800689c:	4605      	mov	r5, r0
 800689e:	b911      	cbnz	r1, 80068a6 <sbrk_aligned+0x12>
 80068a0:	f000 f8bc 	bl	8006a1c <_sbrk_r>
 80068a4:	6030      	str	r0, [r6, #0]
 80068a6:	4621      	mov	r1, r4
 80068a8:	4628      	mov	r0, r5
 80068aa:	f000 f8b7 	bl	8006a1c <_sbrk_r>
 80068ae:	1c43      	adds	r3, r0, #1
 80068b0:	d00a      	beq.n	80068c8 <sbrk_aligned+0x34>
 80068b2:	1cc4      	adds	r4, r0, #3
 80068b4:	f024 0403 	bic.w	r4, r4, #3
 80068b8:	42a0      	cmp	r0, r4
 80068ba:	d007      	beq.n	80068cc <sbrk_aligned+0x38>
 80068bc:	1a21      	subs	r1, r4, r0
 80068be:	4628      	mov	r0, r5
 80068c0:	f000 f8ac 	bl	8006a1c <_sbrk_r>
 80068c4:	3001      	adds	r0, #1
 80068c6:	d101      	bne.n	80068cc <sbrk_aligned+0x38>
 80068c8:	f04f 34ff 	mov.w	r4, #4294967295
 80068cc:	4620      	mov	r0, r4
 80068ce:	bd70      	pop	{r4, r5, r6, pc}
 80068d0:	20005a34 	.word	0x20005a34

080068d4 <_malloc_r>:
 80068d4:	e92d 41f0 	stmdb	sp!, {r4, r5, r6, r7, r8, lr}
 80068d8:	1ccd      	adds	r5, r1, #3
 80068da:	f025 0503 	bic.w	r5, r5, #3
 80068de:	3508      	adds	r5, #8
 80068e0:	2d0c      	cmp	r5, #12
 80068e2:	bf38      	it	cc
 80068e4:	250c      	movcc	r5, #12
 80068e6:	2d00      	cmp	r5, #0
 80068e8:	4607      	mov	r7, r0
 80068ea:	db01      	blt.n	80068f0 <_malloc_r+0x1c>
 80068ec:	42a9      	cmp	r1, r5
 80068ee:	d905      	bls.n	80068fc <_malloc_r+0x28>
 80068f0:	230c      	movs	r3, #12
 80068f2:	603b      	str	r3, [r7, #0]
 80068f4:	2600      	movs	r6, #0
 80068f6:	4630      	mov	r0, r6
 80068f8:	e8bd 81f0 	ldmia.w	sp!, {r4, r5, r6, r7, r8, pc}
 80068fc:	4e2e      	ldr	r6, [pc, #184]	; (80069b8 <_malloc_r+0xe4>)
 80068fe:	f000 f89d 	bl	8006a3c <__malloc_lock>
 8006902:	6833      	ldr	r3, [r6, #0]
 8006904:	461c      	mov	r4, r3
 8006906:	bb34      	cbnz	r4, 8006956 <_malloc_r+0x82>
 8006908:	4629      	mov	r1, r5
 800690a:	4638      	mov	r0, r7
 800690c:	f7ff ffc2 	bl	8006894 <sbrk_aligned>
 8006910:	1c43      	adds	r3, r0, #1
 8006912:	4604      	mov	r4, r0
 8006914:	d14d      	bne.n	80069b2 <_malloc_r+0xde>
 8006916:	6834      	ldr	r4, [r6, #0]
 8006918:	4626      	mov	r6, r4
 800691a:	2e00      	cmp	r6, #0
 800691c:	d140      	bne.n	80069a0 <_malloc_r+0xcc>
 800691e:	6823      	ldr	r3, [r4, #0]
 8006920:	4631      	mov	r1, r6
 8006922:	4638      	mov	r0, r7
 8006924:	eb04 0803 	add.w	r8, r4, r3
 8006928:	f000 f878 	bl	8006a1c <_sbrk_r>
 800692c:	4580      	cmp	r8, r0
 800692e:	d13a      	bne.n	80069a6 <_malloc_r+0xd2>
 8006930:	6821      	ldr	r1, [r4, #0]
 8006932:	3503      	adds	r5, #3
 8006934:	1a6d      	subs	r5, r5, r1
 8006936:	f025 0503 	bic.w	r5, r5, #3
 800693a:	3508      	adds	r5, #8
 800693c:	2d0c      	cmp	r5, #12
 800693e:	bf38      	it	cc
 8006940:	250c      	movcc	r5, #12
 8006942:	4629      	mov	r1, r5
 8006944:	4638      	mov	r0, r7
 8006946:	f7ff ffa5 	bl	8006894 <sbrk_aligned>
 800694a:	3001      	adds	r0, #1
 800694c:	d02b      	beq.n	80069a6 <_malloc_r+0xd2>
 800694e:	6823      	ldr	r3, [r4, #0]
 8006950:	442b      	add	r3, r5
 8006952:	6023      	str	r3, [r4, #0]
 8006954:	e00e      	b.n	8006974 <_malloc_r+0xa0>
 8006956:	6822      	ldr	r2, [r4, #0]
 8006958:	1b52      	subs	r2, r2, r5
 800695a:	d41e      	bmi.n	800699a <_malloc_r+0xc6>
 800695c:	2a0b      	cmp	r2, #11
 800695e:	d916      	bls.n	800698e <_malloc_r+0xba>
 8006960:	1961      	adds	r1, r4, r5
 8006962:	42a3      	cmp	r3, r4
 8006964:	6025      	str	r5, [r4, #0]
 8006966:	bf18      	it	ne
 8006968:	6059      	strne	r1, [r3, #4]
 800696a:	6863      	ldr	r3, [r4, #4]
 800696c:	bf08      	it	eq
 800696e:	6031      	streq	r1, [r6, #0]
 8006970:	5162      	str	r2, [r4, r5]
 8006972:	604b      	str	r3, [r1, #4]
 8006974:	4638      	mov	r0, r7
 8006976:	f104 060b 	add.w	r6, r4, #11
 800697a:	f000 f865 	bl	8006a48 <__malloc_unlock>
 800697e:	f026 0607 	bic.w	r6, r6, #7
 8006982:	1d23      	adds	r3, r4, #4
 8006984:	1af2      	subs	r2, r6, r3
 8006986:	d0b6      	beq.n	80068f6 <_malloc_r+0x22>
 8006988:	1b9b      	subs	r3, r3, r6
 800698a:	50a3      	str	r3, [r4, r2]
 800698c:	e7b3      	b.n	80068f6 <_malloc_r+0x22>
 800698e:	6862      	ldr	r2, [r4, #4]
 8006990:	42a3      	cmp	r3, r4
 8006992:	bf0c      	ite	eq
 8006994:	6032      	streq	r2, [r6, #0]
 8006996:	605a      	strne	r2, [r3, #4]
 8006998:	e7ec      	b.n	8006974 <_malloc_r+0xa0>
 800699a:	4623      	mov	r3, r4
 800699c:	6864      	ldr	r4, [r4, #4]
 800699e:	e7b2      	b.n	8006906 <_malloc_r+0x32>
 80069a0:	4634      	mov	r4, r6
 80069a2:	6876      	ldr	r6, [r6, #4]
 80069a4:	e7b9      	b.n	800691a <_malloc_r+0x46>
 80069a6:	230c      	movs	r3, #12
 80069a8:	603b      	str	r3, [r7, #0]
 80069aa:	4638      	mov	r0, r7
 80069ac:	f000 f84c 	bl	8006a48 <__malloc_unlock>
 80069b0:	e7a1      	b.n	80068f6 <_malloc_r+0x22>
 80069b2:	6025      	str	r5, [r4, #0]
 80069b4:	e7de      	b.n	8006974 <_malloc_r+0xa0>
 80069b6:	bf00      	nop
 80069b8:	20005a30 	.word	0x20005a30

080069bc <_realloc_r>:
 80069bc:	e92d 41f0 	stmdb	sp!, {r4, r5, r6, r7, r8, lr}
 80069c0:	4680      	mov	r8, r0
 80069c2:	4614      	mov	r4, r2
 80069c4:	460e      	mov	r6, r1
 80069c6:	b921      	cbnz	r1, 80069d2 <_realloc_r+0x16>
 80069c8:	e8bd 41f0 	ldmia.w	sp!, {r4, r5, r6, r7, r8, lr}
 80069cc:	4611      	mov	r1, r2
 80069ce:	f7ff bf81 	b.w	80068d4 <_malloc_r>
 80069d2:	b92a      	cbnz	r2, 80069e0 <_realloc_r+0x24>
 80069d4:	f7ff ff12 	bl	80067fc <_free_r>
 80069d8:	4625      	mov	r5, r4
 80069da:	4628      	mov	r0, r5
 80069dc:	e8bd 81f0 	ldmia.w	sp!, {r4, r5, r6, r7, r8, pc}
 80069e0:	f000 f838 	bl	8006a54 <_malloc_usable_size_r>
 80069e4:	4284      	cmp	r4, r0
 80069e6:	4607      	mov	r7, r0
 80069e8:	d802      	bhi.n	80069f0 <_realloc_r+0x34>
 80069ea:	ebb4 0f50 	cmp.w	r4, r0, lsr #1
 80069ee:	d812      	bhi.n	8006a16 <_realloc_r+0x5a>
 80069f0:	4621      	mov	r1, r4
 80069f2:	4640      	mov	r0, r8
 80069f4:	f7ff ff6e 	bl	80068d4 <_malloc_r>
 80069f8:	4605      	mov	r5, r0
 80069fa:	2800      	cmp	r0, #0
 80069fc:	d0ed      	beq.n	80069da <_realloc_r+0x1e>
 80069fe:	42bc      	cmp	r4, r7
 8006a00:	4622      	mov	r2, r4
 8006a02:	4631      	mov	r1, r6
 8006a04:	bf28      	it	cs
 8006a06:	463a      	movcs	r2, r7
 8006a08:	f7ff fba4 	bl	8006154 <memcpy>
 8006a0c:	4631      	mov	r1, r6
 8006a0e:	4640      	mov	r0, r8
 8006a10:	f7ff fef4 	bl	80067fc <_free_r>
 8006a14:	e7e1      	b.n	80069da <_realloc_r+0x1e>
 8006a16:	4635      	mov	r5, r6
 8006a18:	e7df      	b.n	80069da <_realloc_r+0x1e>
	...

08006a1c <_sbrk_r>:
 8006a1c:	b538      	push	{r3, r4, r5, lr}
 8006a1e:	4d06      	ldr	r5, [pc, #24]	; (8006a38 <_sbrk_r+0x1c>)
 8006a20:	2300      	movs	r3, #0
 8006a22:	4604      	mov	r4, r0
 8006a24:	4608      	mov	r0, r1
 8006a26:	602b      	str	r3, [r5, #0]
 8006a28:	f7fa f92e 	bl	8000c88 <_sbrk>
 8006a2c:	1c43      	adds	r3, r0, #1
 8006a2e:	d102      	bne.n	8006a36 <_sbrk_r+0x1a>
 8006a30:	682b      	ldr	r3, [r5, #0]
 8006a32:	b103      	cbz	r3, 8006a36 <_sbrk_r+0x1a>
 8006a34:	6023      	str	r3, [r4, #0]
 8006a36:	bd38      	pop	{r3, r4, r5, pc}
 8006a38:	20005a38 	.word	0x20005a38

08006a3c <__malloc_lock>:
 8006a3c:	4801      	ldr	r0, [pc, #4]	; (8006a44 <__malloc_lock+0x8>)
 8006a3e:	f000 b811 	b.w	8006a64 <__retarget_lock_acquire_recursive>
 8006a42:	bf00      	nop
 8006a44:	20005a3c 	.word	0x20005a3c

08006a48 <__malloc_unlock>:
 8006a48:	4801      	ldr	r0, [pc, #4]	; (8006a50 <__malloc_unlock+0x8>)
 8006a4a:	f000 b80c 	b.w	8006a66 <__retarget_lock_release_recursive>
 8006a4e:	bf00      	nop
 8006a50:	20005a3c 	.word	0x20005a3c

08006a54 <_malloc_usable_size_r>:
 8006a54:	f851 3c04 	ldr.w	r3, [r1, #-4]
 8006a58:	1f18      	subs	r0, r3, #4
 8006a5a:	2b00      	cmp	r3, #0
 8006a5c:	bfbc      	itt	lt
 8006a5e:	580b      	ldrlt	r3, [r1, r0]
 8006a60:	18c0      	addlt	r0, r0, r3
 8006a62:	4770      	bx	lr

08006a64 <__retarget_lock_acquire_recursive>:
 8006a64:	4770      	bx	lr

08006a66 <__retarget_lock_release_recursive>:
 8006a66:	4770      	bx	lr

08006a68 <_init>:
 8006a68:	b5f8      	push	{r3, r4, r5, r6, r7, lr}
 8006a6a:	bf00      	nop
 8006a6c:	bcf8      	pop	{r3, r4, r5, r6, r7}
 8006a6e:	bc08      	pop	{r3}
 8006a70:	469e      	mov	lr, r3
 8006a72:	4770      	bx	lr

08006a74 <_fini>:
 8006a74:	b5f8      	push	{r3, r4, r5, r6, r7, lr}
 8006a76:	bf00      	nop
 8006a78:	bcf8      	pop	{r3, r4, r5, r6, r7}
 8006a7a:	bc08      	pop	{r3}
 8006a7c:	469e      	mov	lr, r3
 8006a7e:	4770      	bx	lr
